ccopy_reg
_reconstructor
p1
(cHRGSample
NPSampler
p2
c__builtin__
object
p3
NtRp4
(dp5
S'rule_size_counts'
p6
(dp7
sS'rule_size_tables'
p8
(dp9
sS'counts'
p10
(dp11
g1
(crule
Rule
p12
g3
NtRp13
(dp14
S'e'
cutil.hgraph.hgraph
Hgraph
p15
(tRp16
S'_3'
p17
cutil.hgraph.hgraph
ListMap
p18
(tRp19
S'7'
(lp20
(tassS'_2'
p21
g18
(tRp22
S'quant'
p23
(lp24
(g17
tp25
asS's/section'
p26
(lp27
(tassS'_1'
p28
g18
(tRp29
S'ARG2'
p30
(lp31
(g21
tp32
assS'_0'
p33
g18
(tRp34
S'ARG2'
p35
(lp36
(g28
tp37
asS'm/mean-01'
p38
(lp39
(tass(dp40
S'_Hgraph__nodelabels'
p41
I00
sS'num_edges'
p42
I6
sS'node_to_concepts'
p43
(dp44
g33
NssS'replace_count'
p45
I0
sS'_Hgraph__cached_depth'
p46
NsS'node_alignments'
p47
(dp48
sS'external_nodes'
p49
(dp50
g28
I0
ssS'_Hgraph__cached_triples'
p51
NsS'rev_external_nodes'
p52
(dp53
I0
S'_1'
p54
ssS'roots'
p55
(lp56
g33
asS'edge_alignments'
p57
(dp58
sbsS'f'
(lp59
S'into'
p60
aS'seven'
p61
aS'sections'
p62
asS'hcost'
p63
I0
sS'cost'
p64
I0
sS'lhs'
p65
S'[A2-10]'
p66
sS'fcosts'
p67
(lp68
sS'grammar'
p69
NsS'feats'
p70
(lp71
sbI1
sg1
(g12
g3
NtRp72
(dp73
S'e'
g15
(tRp74
S'_8'
p75
g18
(tRp76
S'c2/common'
p77
(lp78
(tassS'_7'
p79
g18
(tRp80
S'mod'
p81
(lp82
(g75
tp83
assS'_6'
p84
g18
(tRp85
S'p2'
p86
(lp87
(tassS'_5'
p88
g18
(tRp89
S'ARG1'
p90
(lp91
(g84
tp92
asS'a2/awe-01'
p93
(lp94
(tassS'_4'
p95
g18
(tRp96
S'p2'
p97
(lp98
(tassS'_3'
p99
g18
(tRp100
S'ARG0'
p101
(lp102
(g95
tp103
asS'w/wonder-02'
p104
(lp105
(tassS'_2'
p106
g18
(tRp107
S'a/and'
p108
(lp109
(tassS'_1'
p110
g18
(tRp111
g1
(cutil.cfg
NonterminalLabel
p112
g3
NtRp113
(dp114
S'index'
p115
I0
sS'label'
p116
S'A5-10001'
p117
sb(lp118
(g106
g99
g88
g79
tp119
assS'_0'
p120
g18
(tRp121
S'h/have-concession-91'
p122
(lp123
(tasS'ARG2'
p124
(lp125
(g110
tp126
ass(dp127
g42
I12
sg51
Nsg47
(dp128
sg57
(dp129
sg41
I00
sg43
(dp130
g120
Nssg45
I0
sg46
Nsg55
(lp131
g120
asg49
(dp132
sg52
(dp133
sbsS'f'
(lp134
S'However'
p135
aS','
aS'to'
p136
aS'common'
p137
aS'[A5-10001]'
p138
aS'them'
p139
aS'is'
p140
aS'wonder'
p141
aS'and'
p142
aS'awe'
p143
asg63
I0
sg64
I0
sg65
S'[A1-1]'
p144
sg67
(lp145
sg69
Nsg70
(lp146
sbI-1
sg1
(g12
g3
NtRp147
(dp148
S'e'
g15
(tRp149
S'_2'
p150
g18
(tRp151
S'd/differ-01'
p152
(lp153
(tassS'_1'
p154
g18
(tRp155
S'3'
(lp156
(tassS'_0'
p157
g18
(tRp158
S'ARG1-of'
p159
(lp160
(g150
tp161
asS'quant'
p162
(lp163
(g154
tp164
asS't/type'
p165
(lp166
(tass(dp167
g42
I5
sg51
Nsg47
(dp168
sg57
(dp169
sg41
I00
sg43
(dp170
g157
Nssg45
I0
sg46
Nsg55
(lp171
g157
asg49
(dp172
sg52
(dp173
sbsS'f'
(lp174
S'three'
p175
aS'different'
p176
aS'types'
p177
asg63
I0
sg64
I0
sg65
g144
sg67
(lp178
sg69
Nsg70
(lp179
sbI-1
sg1
(g12
g3
NtRp180
(dp181
S'e'
g15
(tRp182
S'_2'
p183
g18
(tRp184
S'g2/guard'
p185
(lp186
(tassS'_1'
p187
g18
(tRp188
g1
(g112
g3
NtRp189
(dp190
g115
I0
sg116
S'A2-10'
p191
sb(lp192
(g183
tp193
assS'_0'
p194
g18
(tRp195
S'h/have-concession-91'
p196
(lp197
(tasS'ARG2'
p198
(lp199
(g187
tp200
ass(dp201
g41
I00
sg42
I4
sg43
(dp202
g194
Nssg45
I0
sg46
Nsg47
(dp203
sg49
(dp204
g187
I0
ssg51
Nsg52
(dp205
I0
S'_1'
p206
ssg55
(lp207
g194
asg57
(dp208
sbsS'f'
(lp209
S'However'
p210
aS','
ag66
aS'guard'
p211
asg63
I0
sg64
I0
sg65
S'[A2-11]'
p212
sg67
(lp213
sg69
Nsg70
(lp214
sbI1
sg1
(g12
g3
NtRp215
(dp216
S'e'
g15
(tRp217
S'_5'
p218
g18
(tRp219
sS'_4'
p220
g18
(tRp221
S'w/world'
p222
(lp223
(tassS'_3'
p224
g18
(tRp225
S'r/renown'
p226
(lp227
(tasS'location'
p228
(lp229
(g220
tp230
assS'_2'
p231
g18
(tRp232
g1
(g112
g3
NtRp233
(dp234
g115
I0
sg116
S'A1-1'
p235
sb(lp236
(tasS'mod'
p237
(lp238
(g224
tp239
assS'_1'
p240
g18
(tRp241
S'h2/here'
p242
(lp243
(tassS'_0'
p244
g18
(tRp245
g1
(g112
g3
NtRp246
(dp247
g115
I1
sg116
S'A3-101'
p248
sb(lp249
(g231
g218
tp250
asS'location'
p251
(lp252
(g240
tp253
ass(dp254
g42
I8
sg51
Nsg47
(dp255
sg57
(dp256
sg41
I00
sg43
(dp257
g244
Nssg45
I0
sg46
Nsg55
(lp258
g244
asg49
(dp259
S'_5'
p260
I1
sS'_2'
p261
I0
ssg52
(dp262
I0
g261
sI1
g260
ssbsS'f'
(lp263
S'world'
p264
aS'renowned'
p265
ag144
aS'at'
p266
aS'[A3-101]'
p267
aS'here'
p268
asg63
I0
sg64
I0
sg65
S'[A3-111]'
p269
sg67
(lp270
sg69
Nsg70
(lp271
sbI-1
sg1
(g12
g3
NtRp272
(dp273
S'e'
g15
(tRp274
S'_4'
p275
g18
(tRp276
sS'_3'
p277
g18
(tRp278
sS'_2'
p279
g18
(tRp280
S'w/we'
p281
(lp282
(tassS'_1'
p283
g18
(tRp284
g1
(g112
g3
NtRp285
(dp286
g115
I1
sg116
S'A1-1'
p287
sb(lp288
(tasS'poss'
p289
(lp290
(g279
tp291
assS'_0'
p292
g18
(tRp293
g1
(g112
g3
NtRp294
(dp295
g115
I0
sg116
S'A4-0000'
p296
sb(lp297
(g283
g277
g275
tp298
asS'o/open-01'
p299
(lp300
(tass(dp301
g42
I5
sg51
Nsg47
(dp302
sg57
(dp303
sg41
I00
sg43
(dp304
g292
Nssg45
I0
sg46
Nsg55
(lp305
g292
asg49
(dp306
S'_4'
p307
I1
sS'_3'
p308
I0
ssg52
(dp309
I0
g308
sI1
g307
ssbsS'f'
(lp310
S'[A4-0000]'
p311
aS','
aS'our'
p312
ag144
aS'will'
p313
aS'open'
p314
asg63
I0
sg64
I0
sg65
S'[A3-100]'
p315
sg67
(lp316
sg69
Nsg70
(lp317
sbI-1
sg1
(g12
g3
NtRp318
(dp319
S'e'
g15
(tRp320
S'_2'
p321
g18
(tRp322
g1
(g112
g3
NtRp323
(dp324
g115
I0
sg116
S'A1-1'
p325
sb(lp326
(tassS'_1'
p327
g18
(tRp328
g1
(g112
g3
NtRp329
(dp330
g115
I1
sg116
S'A1-1'
p331
sb(lp332
(tasS'time'
p333
(lp334
(g321
tp335
assS'_0'
p336
g18
(tRp337
S'h/have-concession-91'
p338
(lp339
(tasS'ARG2'
p340
(lp341
(g327
tp342
ass(dp343
g42
I5
sg51
Nsg47
(dp344
sg57
(dp345
sg41
I00
sg43
(dp346
g336
Nssg45
I0
sg46
Nsg55
(lp347
g336
asg49
(dp348
g327
I0
ssg52
(dp349
I0
S'_1'
p350
ssbsS'f'
(lp351
S'However'
p352
aS','
aS'[A1-1]'
p353
aS'were'
p354
aS'in'
p355
aS'sight'
p356
aS','
aS'the'
p357
ag353
asg63
I0
sg64
I0
sg65
S'[A2-11]'
p358
sg67
(lp359
sg69
Nsg70
(lp360
sbI-1
sg1
(g12
g3
NtRp361
(dp362
S'e'
g15
(tRp363
S'_3'
p364
g18
(tRp365
S'p/prohibit-01'
p366
(lp367
(tassS'_2'
p368
g18
(tRp369
S'ARG1-of'
p370
(lp371
(g364
tp372
asS'z/zone'
p373
(lp374
(tassS'_1'
p375
g18
(tRp376
S'a/area'
p377
(lp378
(tassS'_0'
p379
g18
(tRp380
S'ARG1'
p381
(lp382
(g375
tp383
asS'ARG2'
p384
(lp385
(g368
tp386
asS'b/become-01'
p387
(lp388
(tass(dp389
g42
I7
sg51
Nsg47
(dp390
sg57
(dp391
sg41
I00
sg43
(dp392
g379
Nssg45
I0
sg46
Nsg55
(lp393
g379
asg49
(dp394
g368
I1
sg375
I0
ssg52
(dp395
I0
S'_1'
p396
sI1
S'_2'
p397
ssbsS'f'
(lp398
S'area'
p399
aS'has'
p400
aS'become'
p401
aS'a'
aS'prohibited'
p402
aS'zone'
p403
asg63
I0
sg64
I0
sg65
g269
sg67
(lp404
sg69
Nsg70
(lp405
sbI-1
sg1
(g12
g3
NtRp406
(dp407
S'e'
g15
(tRp408
S'_4'
p409
g18
(tRp410
S'p/prohibit-01'
p411
(lp412
(tassS'_3'
p413
g18
(tRp414
S'ARG1-of'
p415
(lp416
(g409
tp417
assS'_2'
p418
g18
(tRp419
S't/this'
p420
(lp421
(tassS'_1'
p422
g18
(tRp423
S'a/area'
p424
(lp425
(tasS'mod'
p426
(lp427
(g418
tp428
assS'_0'
p429
g18
(tRp430
S'ARG1'
p431
(lp432
(g422
tp433
asS'ARG2'
p434
(lp435
(g413
tp436
asS'b/become-01'
p437
(lp438
(tass(dp439
g41
I00
sg42
I8
sg43
(dp440
g429
Nssg45
I0
sg46
Nsg47
(dp441
sg49
(dp442
g413
I0
ssg51
Nsg52
(dp443
I0
S'_3'
p444
ssg55
(lp445
g429
asg57
(dp446
sbsS'f'
(lp447
S'this'
p448
aS'area'
p449
aS'has'
p450
aS'become'
p451
aS'a'
aS'prohibited'
p452
asg63
I0
sg64
I0
sg65
g66
sg67
(lp453
sg69
Nsg70
(lp454
sbI1
sg1
(g12
g3
NtRp455
(dp456
S'e'
g15
(tRp457
S'_3'
p458
g18
(tRp459
S'n/now'
p460
(lp461
(tassS'_2'
p462
g18
(tRp463
S'time'
p464
(lp465
(g458
tp466
assS'_1'
p467
g18
(tRp468
S't/they'
p469
(lp470
(tassS'_0'
p471
g18
(tRp472
S'ARG1'
p473
(lp474
(g467
tp475
asS'ARG2'
p476
(lp477
(g462
tp478
asS'd/differ-02'
p479
(lp480
(tass(dp481
g41
I00
sg42
I6
sg43
(dp482
g471
Nssg45
I0
sg46
Nsg47
(dp483
sg49
(dp484
g462
I0
ssg51
Nsg52
(dp485
I0
S'_2'
p486
ssg55
(lp487
g471
asg57
(dp488
sbsS'f'
(lp489
S'different'
p490
aS'from'
p491
aS'what'
p492
aS'they'
p493
aS'are'
p494
aS'now'
p495
asg63
I0
sg64
I0
sg65
g66
sg67
(lp496
sg69
Nsg70
(lp497
sbI1
sg1
(g12
g3
NtRp498
(dp499
S'e'
g15
(tRp500
S'_5'
p501
g18
(tRp502
sS'_4'
p503
g18
(tRp504
S'o2/only'
p505
(lp506
(tassS'_3'
p507
g18
(tRp508
S'm/month'
p509
(lp510
(tassS'_2'
p511
g18
(tRp512
S'1'
(lp513
(tassS'_1'
p514
g18
(tRp515
S'quant'
p516
(lp517
(g511
tp518
asS't/temporal-quantity'
p519
(lp520
(tasS'unit'
p521
(lp522
(g507
tp523
asS'mod'
p524
(lp525
(g503
tp526
assS'_0'
p527
g18
(tRp528
g1
(g112
g3
NtRp529
(dp530
g115
I0
sg116
S'A3-101'
p531
sb(lp532
(g514
g501
tp533
ass(dp534
g42
I8
sg51
Nsg47
(dp535
sg57
(dp536
sg41
I00
sg43
(dp537
g527
Nssg45
I0
sg46
Nsg55
(lp538
g527
asg49
(dp539
S'_5'
p540
I0
ssg52
(dp541
I0
g540
ssbsS'f'
(lp542
S'only'
p543
aS'one'
p544
aS'month'
p545
ag267
asg63
I0
sg64
I0
sg65
S'[A2-11]'
p546
sg67
(lp547
sg69
Nsg70
(lp548
sbI-1
sg1
(g12
g3
NtRp549
(dp550
S'e'
g15
(tRp551
S'_1'
p552
g18
(tRp553
S't2/they'
p554
(lp555
(tassS'_0'
p556
g18
(tRp557
g1
(g112
g3
NtRp558
(dp559
g115
I0
sg116
S'A2-10'
p560
sb(lp561
(g552
tp562
ass(dp563
g41
I00
sg42
I2
sg43
(dp564
g556
Nssg45
I0
sg46
Nsg47
(dp565
sg49
(dp566
sg51
Nsg52
(dp567
sg55
(lp568
g556
asg57
(dp569
sbsS'f'
(lp570
S'they'
p571
aS'going'
p572
aS'to'
p573
aS'be'
p574
ag66
asg63
I0
sg64
I0
sg65
S'[A1-1]'
p575
sg67
(lp576
sg69
Nsg70
(lp577
sbI1
sg1
(g12
g3
NtRp578
(dp579
S'e'
g15
(tRp580
S'_4'
p581
g18
(tRp582
S'w/world'
p583
(lp584
(tassS'_3'
p585
g18
(tRp586
S'f/fame-01'
p587
(lp588
(tasS'location'
p589
(lp590
(g581
tp591
assS'_2'
p592
g18
(tRp593
g1
(g112
g3
NtRp594
(dp595
g115
I0
sg116
S'A1-1'
p596
sb(lp597
(tassS'_1'
p598
g18
(tRp599
S's/shop-01'
p600
(lp601
(tassS'_0'
p602
g18
(tRp603
S'topic'
p604
(lp605
(g598
tp606
asS'p/paradise'
p607
(lp608
(tasS'domain'
p609
(lp610
(g592
tp611
asS'ARG1-of'
p612
(lp613
(g585
tp614
ass(dp615
g41
I00
sg42
I9
sg43
(dp616
g602
Nssg45
I0
sg46
Nsg47
(dp617
sg49
(dp618
sg51
Nsg52
(dp619
sg55
(lp620
g602
asg57
(dp621
sbsS'f'
(lp622
g575
aS'is'
p623
aS'a'
aS'world'
p624
aS'famous'
p625
aS'shopping'
p626
aS'paradise'
p627
asg63
I0
sg64
I0
sg65
g575
sg67
(lp628
sg69
Nsg70
(lp629
sbI1
sg1
(g12
g3
NtRp630
(dp631
S'e'
g15
(tRp632
S'_6'
p633
g18
(tRp634
S'u/unique'
p635
(lp636
(tassS'_5'
p637
g18
(tRp638
sS'_4'
p639
g18
(tRp640
S'ARG1'
p641
(lp642
(g637
tp643
asS'a/attract-01'
p644
(lp645
(tassS'_3'
p646
g18
(tRp647
S'w/west'
p648
(lp649
(tassS'_2'
p650
g18
(tRp651
S'r/region'
p652
(lp653
(tasS'ARG0-of'
p654
(lp655
(g639
tp656
asS'mod'
p657
(lp658
(g646
tp659
assS'_1'
p660
g18
(tRp661
S'a3/amr-unknown'
p662
(lp663
(tassS'_0'
p664
g18
(tRp665
S'ARG0'
p666
(lp667
(g650
tp668
asg1
(g112
g3
NtRp669
(dp670
g115
I0
sg116
S'A1-0'
p671
sb(lp672
(tasS'manner'
p673
(lp674
(g660
tp675
asS'c2/charm-01'
p676
(lp677
(tasS'mod'
p678
(lp679
(g633
tp680
ass(dp681
g42
I13
sg51
Nsg47
(dp682
sg57
(dp683
sg41
I00
sg43
(dp684
g664
Nssg45
I0
sg46
Nsg55
(lp685
g664
asg49
(dp686
g637
I0
ssg52
(dp687
I0
S'_5'
p688
ssbsS'f'
(lp689
S'what'
p690
aS'is'
p691
aS'the'
p692
aS'unique'
p693
aS'charm'
p694
aS'[A1-0]'
p695
aS'of'
p696
aS'the'
p697
aS'western'
p698
aS'region'
p699
aS'that'
p700
aS'has'
p701
aS'attracted'
p702
asg63
I0
sg64
I0
sg65
S'[A2-10]'
p703
sg67
(lp704
sg69
Nsg70
(lp705
sbI-1
sg1
(g12
g3
NtRp706
(dp707
S'e'
g15
(tRp708
S'_4'
p709
g18
(tRp710
S't/this'
p711
(lp712
(tassS'_3'
p713
g18
(tRp714
S'mod'
p715
(lp716
(g709
tp717
assS'_2'
p718
g18
(tRp719
g1
(g112
g3
NtRp720
(dp721
g115
I0
sg116
S'A1-1'
p722
sb(lp723
(tassS'_1'
p724
g18
(tRp725
S'y/you'
p726
(lp727
(tassS'_0'
p728
g18
(tRp729
S'ARG0'
p730
(lp731
(g724
tp732
asS'ARG1'
p733
(lp734
(g718
tp735
asS'w2/watch-01'
p736
(lp737
(tasS'part-of'
p738
(lp739
(g713
tp740
ass(dp741
g41
I00
sg42
I8
sg43
(dp742
g728
Nssg45
I0
sg46
Nsg47
(dp743
sg49
(dp744
g713
I1
sg724
I0
ssg51
Nsg52
(dp745
I0
S'_1'
p746
sI1
S'_3'
p747
ssg55
(lp748
g728
asg57
(dp749
sbsS'f'
(lp750
S'you'
p751
aS'to'
p752
aS'watch'
p753
ag575
aS'in'
p754
aS'this'
p755
asg63
I0
sg64
I0
sg65
S'[A3-110]'
p756
sg67
(lp757
sg69
Nsg70
(lp758
sbI1
sg1
(g12
g3
NtRp759
(dp760
S'e'
g15
(tRp761
S'_5'
p762
g18
(tRp763
S'g2/gourmet'
p764
(lp765
(tassS'_4'
p766
g18
(tRp767
S'f2/food'
p768
(lp769
(tasS'mod'
p770
(lp771
(g762
tp772
assS'_3'
p773
g18
(tRp774
sS'_2'
p775
g18
(tRp776
sS'_1'
p777
g18
(tRp778
g1
(g112
g3
NtRp779
(dp780
g115
I0
sg116
S'A1-1'
p781
sb(lp782
(tassS'_0'
p783
g18
(tRp784
g1
(g112
g3
NtRp785
(dp786
g115
I1
sg116
S'A4-1110'
p787
sb(lp788
(g775
g773
g766
tp789
asS'time'
p790
(lp791
(g777
tp792
ass(dp793
g41
I00
sg42
I6
sg43
(dp794
g783
Nssg45
I0
sg46
Nsg47
(dp795
sg49
(dp796
S'_3'
p797
I1
sS'_2'
p798
I0
ssg51
Nsg52
(dp799
I0
g798
sI1
g797
ssg55
(lp800
g783
asg57
(dp801
sbsS'f'
(lp802
g575
aS','
aS'it'
p803
aS'will'
p804
aS'[A4-1110]'
p805
aS'gourmet'
p806
aS'food'
p807
asg63
I0
sg64
I0
sg65
S'[A3-111]'
p808
sg67
(lp809
sg69
Nsg70
(lp810
sbI1
sg1
(g12
g3
NtRp811
(dp812
S'e'
g15
(tRp813
S'_6'
p814
g18
(tRp815
S't/they'
p816
(lp817
(tassS'_5'
p818
g18
(tRp819
S'a/area'
p820
(lp821
(tasS'poss'
p822
(lp823
(g814
tp824
assS'_4'
p825
g18
(tRp826
S'o/overall'
p827
(lp828
(tassS'_3'
p829
g18
(tRp830
S'w2/we'
p831
(lp832
(tassS'_2'
p833
g18
(tRp834
S'p2/project'
p835
(lp836
(tasS'poss'
p837
(lp838
(g829
tp839
asS'mod'
p840
(lp841
(g825
tp842
assS'_1'
p843
g18
(tRp844
g1
(g112
g3
NtRp845
(dp846
g115
I0
sg116
S'A2-10'
p847
sb(lp848
(g833
tp849
assS'_0'
p850
g18
(tRp851
S'ARG0'
p852
(lp853
(g843
tp854
asS's/surprise-01'
p855
(lp856
(tasS'mod'
p857
(lp858
(g818
tp859
ass(dp860
g42
I12
sg51
Nsg47
(dp861
sg57
(dp862
sg41
I00
sg43
(dp863
g850
Nssg45
I0
sg46
Nsg55
(lp864
g850
asg49
(dp865
sg52
(dp866
sbsS'f'
(lp867
S'Their'
p868
aS'area'
p869
aS'of'
p870
aS'surprise'
p871
aS'was'
p872
aS'that'
p873
aS'those'
p874
ag703
aS'our'
p875
aS'overall'
p876
aS'project'
p877
asg63
I0
sg64
I0
sg65
g144
sg67
(lp878
sg69
Nsg70
(lp879
sbI-1
sg1
(g12
g3
NtRp880
(dp881
S'e'
g15
(tRp882
S'_5'
p883
g18
(tRp884
S'w2/write-01'
p885
(lp886
(tassS'_4'
p887
g18
(tRp888
S'o/official'
p889
(lp890
(tassS'_3'
p891
g18
(tRp892
g1
(g112
g3
NtRp893
(dp894
g115
I0
sg116
S'A1-1'
p895
sb(lp896
(tassS'_2'
p897
g18
(tRp898
S'beneficiary'
p899
(lp900
(g891
tp901
asS'c/ceremony'
p902
(lp903
(tasS'mod'
p904
(lp905
(g887
tp906
a(g883
tp907
assS'_1'
p908
g18
(tRp909
S't/then'
p910
(lp911
(tassS'_0'
p912
g18
(tRp913
S'w/welcome-01'
p914
(lp915
(tasS'ARG2'
p916
(lp917
(g897
tp918
asS'mod'
p919
(lp920
(g908
tp921
ass(dp922
g41
I00
sg42
I11
sg43
(dp923
g912
Nssg45
I0
sg46
Nsg47
(dp924
sg49
(dp925
sg51
Nsg52
(dp926
sg55
(lp927
g912
asg57
(dp928
sbsS'f'
(lp929
S'Then'
p930
aS'welcome'
p931
aS'to'
p932
aS'the'
p933
aS'official'
p934
aS'writing'
p935
aS'ceremony'
p936
aS'of'
p937
ag575
asg63
I0
sg64
I0
sg65
g575
sg67
(lp938
sg69
Nsg70
(lp939
sbI1
sg1
(g12
g3
NtRp940
(dp941
S'e'
g15
(tRp942
S'_4'
p943
g18
(tRp944
sS'_3'
p945
g18
(tRp946
S'ARG1'
p947
(lp948
(g943
tp949
asS'b/beat-01'
p950
(lp951
(tassS'_2'
p952
g18
(tRp953
S'-'
(lp954
(tassS'_1'
p955
g18
(tRp956
S'polarity'
p957
(lp958
(g952
tp959
asS'e2/ever'
p960
(lp961
(tassS'_0'
p962
g18
(tRp963
S'ARG1'
p964
(lp965
(g945
tp966
asS's/stop-01'
p967
(lp968
(tasS'time'
p969
(lp970
(g955
tp971
ass(dp972
g42
I8
sg51
Nsg47
(dp973
sg57
(dp974
sg41
I00
sg43
(dp975
g962
Nssg45
I0
sg46
Nsg55
(lp976
g962
asg49
(dp977
g943
I0
ssg52
(dp978
I0
S'_4'
p979
ssbsS'f'
(lp980
S'never'
p981
aS'stops'
p982
aS'beating'
p983
asg63
I0
sg64
I0
sg65
S'[A2-10]'
p984
sg67
(lp985
sg69
Nsg70
(lp986
sbI-1
sg1
(g12
g3
NtRp987
(dp988
S'e'
g15
(tRp989
S'_7'
p990
g18
(tRp991
S'g2/gourmet'
p992
(lp993
(tassS'_6'
p994
g18
(tRp995
S'f2/food'
p996
(lp997
(tasS'mod'
p998
(lp999
(g990
tp1000
assS'_5'
p1001
g18
(tRp1002
sS'_4'
p1003
g18
(tRp1004
sS'_3'
p1005
g18
(tRp1006
g1
(g112
g3
NtRp1007
(dp1008
g115
I0
sg116
S'A1-1'
p1009
sb(lp1010
(tassS'_2'
p1011
g18
(tRp1012
S'b2/build-01'
p1013
(lp1014
(tasS'ARG1'
p1015
(lp1016
(g1005
tp1017
assS'_1'
p1018
g18
(tRp1019
S'op1'
p1020
(lp1021
(g1011
tp1022
asS'o/once'
p1023
(lp1024
(tassS'_0'
p1025
g18
(tRp1026
g1
(g112
g3
NtRp1027
(dp1028
g115
I1
sg116
S'A4-1110'
p1029
sb(lp1030
(g1003
g1001
g994
tp1031
asS'time'
p1032
(lp1033
(g1018
tp1034
ass(dp1035
g42
I10
sg51
Nsg47
(dp1036
sg57
(dp1037
sg41
I00
sg43
(dp1038
g1025
Nssg45
I0
sg46
Nsg55
(lp1039
g1025
asg49
(dp1040
S'_5'
p1041
I1
sS'_4'
p1042
I0
ssg52
(dp1043
I0
g1042
sI1
g1041
ssbsS'f'
(lp1044
S'Once'
p1045
aS'the'
p1046
aS'[A1-1]'
p1047
aS'is'
p1048
aS'built'
p1049
aS','
aS'it'
p1050
aS'will'
p1051
aS'[A4-1110]'
p1052
aS'gourmet'
p1053
aS'food'
p1054
asg63
I0
sg64
I0
sg65
S'[A3-111]'
p1055
sg67
(lp1056
sg69
Nsg70
(lp1057
sbI-1
sg1
(g12
g3
NtRp1058
(dp1059
S'e'
g15
(tRp1060
S'_4'
p1061
g18
(tRp1062
S's/shop-01'
p1063
(lp1064
(tassS'_3'
p1065
g18
(tRp1066
S'topic'
p1067
(lp1068
(g1061
tp1069
asS'p2/paradise'
p1070
(lp1071
(tassS'_2'
p1072
g18
(tRp1073
g1
(g112
g3
NtRp1074
(dp1075
g115
I0
sg116
S'A2-10'
p1076
sb(lp1077
(g1065
tp1078
assS'_1'
p1079
g18
(tRp1080
S'a/amr-unknown'
p1081
(lp1082
(tassS'_0'
p1083
g18
(tRp1084
S'd/determine-01'
p1085
(lp1086
(tasS'ARG0'
p1087
(lp1088
(g1079
tp1089
asS'ARG1'
p1090
(lp1091
(g1072
tp1092
ass(dp1093
g41
I00
sg42
I8
sg43
(dp1094
g1083
Nssg45
I0
sg46
Nsg47
(dp1095
sg49
(dp1096
sg51
Nsg52
(dp1097
sg55
(lp1098
g1083
asg57
(dp1099
sbsS'f'
(lp1100
S'What'
p1101
aS'determined'
p1102
aS'the'
p1103
ag66
aS'a'
aS'shopping'
p1104
aS'paradise'
p1105
asg63
I0
sg64
I0
sg65
g575
sg67
(lp1106
sg69
Nsg70
(lp1107
sbI1
sg1
(g12
g3
NtRp1108
(dp1109
S'e'
g15
(tRp1110
S'_7'
p1111
g18
(tRp1112
S'e3/enchant-01'
p1113
(lp1114
(tassS'_6'
p1115
g18
(tRp1116
S'e2/evening'
p1117
(lp1118
(tassS'_5'
p1119
g18
(tRp1120
S'ARG0-of'
p1121
(lp1122
(g1111
tp1123
asS'v2/view-01'
p1124
(lp1125
(tasS'time'
p1126
(lp1127
(g1115
tp1128
assS'_4'
p1129
g18
(tRp1130
S'y/you'
p1131
(lp1132
(tassS'_3'
p1133
g18
(tRp1134
S'ARG0'
p1135
(lp1136
(g1129
tp1137
asS'e/enjoy-01'
p1138
(lp1139
(tasS'ARG1'
p1140
(lp1141
(g1119
tp1142
assS'_2'
p1143
g18
(tRp1144
S'd/darken-01'
p1145
(lp1146
(tassS'_1'
p1147
g18
(tRp1148
S'a/after'
p1149
(lp1150
(tasS'op1'
p1151
(lp1152
(g1143
tp1153
assS'_0'
p1154
g18
(tRp1155
g1
(g112
g3
NtRp1156
(dp1157
g115
I0
sg116
S'A2-10'
p1158
sb(lp1159
(S'_4'
tp1160
asS'purpose'
p1161
(lp1162
(g1133
tp1163
asS'time'
p1164
(lp1165
(g1147
tp1166
ass(dp1167
g41
I00
sg42
I15
sg43
(dp1168
g1154
Nssg45
I0
sg46
Nsg47
(dp1169
sg49
(dp1170
sg51
Nsg52
(dp1171
sg55
(lp1172
g1154
asg57
(dp1173
sbsS'f'
(lp1174
S'After'
p1175
aS'dark'
p1176
aS','
ag66
aS'to'
p1177
aS'enjoy'
p1178
aS'the'
p1179
aS'enchanting'
p1180
aS'evening'
p1181
aS'view'
p1182
asg63
I0
sg64
I0
sg65
g575
sg67
(lp1183
sg69
Nsg70
(lp1184
sbI1
sg1
(g12
g3
NtRp1185
(dp1186
S'e'
g15
(tRp1187
S'_4'
p1188
g18
(tRp1189
S'a4/also'
p1190
(lp1191
(tassS'_3'
p1192
g18
(tRp1193
g1
(g112
g3
NtRp1194
(dp1195
g115
I0
sg116
S'A1-1'
p1196
sb(lp1197
(tassS'_2'
p1198
g18
(tRp1199
sS'_1'
p1200
g18
(tRp1201
S'a/and'
p1202
(lp1203
(tasS'op1'
p1204
(lp1205
(g1198
tp1206
asS'op2'
p1207
(lp1208
(g1192
tp1209
assS'_0'
p1210
g18
(tRp1211
S'c2/construct-01'
p1212
(lp1213
(tasS'ARG1'
p1214
(lp1215
(g1200
tp1216
asS'mod'
p1217
(lp1218
(g1188
tp1219
ass(dp1220
g42
I8
sg51
Nsg47
(dp1221
sg57
(dp1222
sg41
I00
sg43
(dp1223
g1210
Nssg45
I0
sg46
Nsg55
(lp1224
g1210
asg49
(dp1225
g1192
I1
sg1198
I0
ssg52
(dp1226
I0
S'_2'
p1227
sI1
S'_3'
p1228
ssbsS'f'
(lp1229
S'and'
p1230
ag144
aS'have'
p1231
aS'also'
p1232
aS'been'
p1233
aS'constructed'
p1234
asg63
I0
sg64
I0
sg65
g267
sg67
(lp1235
sg69
Nsg70
(lp1236
sbI-1
sg1
(g12
g3
NtRp1237
(dp1238
S'e'
g15
(tRp1239
S'_8'
p1240
g18
(tRp1241
S'"Peak"'
p1242
(lp1243
(tassS'_7'
p1244
g18
(tRp1245
S'"Victoria"'
p1246
(lp1247
(tassS'_6'
p1248
g18
(tRp1249
S'n/name'
p1250
(lp1251
(tasS'op1'
p1252
(lp1253
(g1244
tp1254
asS'op2'
p1255
(lp1256
(g1240
tp1257
assS'_5'
p1258
g18
(tRp1259
S'"Victoria_Peak"'
p1260
(lp1261
(tassS'_4'
p1262
g18
(tRp1263
S'wiki'
p1264
(lp1265
(g1258
tp1266
asS'm/mountain'
p1267
(lp1268
(tasS'name'
p1269
(lp1270
(g1248
tp1271
assS'_3'
p1272
g18
(tRp1273
S'y/you'
p1274
(lp1275
(tassS'_2'
p1276
g18
(tRp1277
g1
(g112
g3
NtRp1278
(dp1279
g115
I0
sg116
S'A2-10'
p1280
sb(lp1281
(g1272
tp1282
assS'_1'
p1283
g18
(tRp1284
S'ARG0'
p1285
(lp1286
(S'_3'
tp1287
asS'ARG1'
p1288
(lp1289
(g1262
tp1290
asS'purpose'
p1291
(lp1292
(g1276
tp1293
asS'a/ascend-01'
p1294
(lp1295
(tassS'_0'
p1296
g18
(tRp1297
S'ARG1'
p1298
(lp1299
(g1283
tp1300
asS'p/possible-01'
p1301
(lp1302
(tass(dp1303
g41
I00
sg42
I17
sg43
(dp1304
g1296
Nssg45
I0
sg46
Nsg47
(dp1305
sg49
(dp1306
sg51
Nsg52
(dp1307
sg55
(lp1308
g1296
asg57
(dp1309
sbsS'f'
(lp1310
S'You'
p1311
aS'can'
p1312
aS'ascend'
p1313
aS'Victoria'
p1314
aS'Peak'
p1315
aS'to'
p1316
ag66
asg63
I0
sg64
I0
sg65
g575
sg67
(lp1317
sg69
Nsg70
(lp1318
sbI1
sg1
(g12
g3
NtRp1319
(dp1320
S'e'
g15
(tRp1321
S'_4'
p1322
g18
(tRp1323
S'e3/entire'
p1324
(lp1325
(tassS'_3'
p1326
g18
(tRp1327
S'2006'
p1328
(lp1329
(tassS'_2'
p1330
g18
(tRp1331
S'd3/date-entity'
p1332
(lp1333
(tasS'year'
p1334
(lp1335
(g1326
tp1336
assS'_1'
p1337
g18
(tRp1338
g1
(g112
g3
NtRp1339
(dp1340
g115
I1
sg116
S'A1-1'
p1341
sb(lp1342
(tasS'time'
p1343
(lp1344
(g1330
tp1345
asS'mod'
p1346
(lp1347
(g1322
tp1348
assS'_0'
p1349
g18
(tRp1350
g1
(g112
g3
NtRp1351
(dp1352
g115
I0
sg116
S'A2-10'
p1353
sb(lp1354
(g1337
tp1355
ass(dp1356
g42
I8
sg51
Nsg47
(dp1357
sg57
(dp1358
sg41
I00
sg43
(dp1359
g1349
Nssg45
I0
sg46
Nsg55
(lp1360
g1349
asg49
(dp1361
sg52
(dp1362
sbsS'f'
(lp1363
g703
aS'entire'
p1364
aS'2006'
p1365
ag144
asg63
I0
sg64
I0
sg65
g144
sg67
(lp1366
sg69
Nsg70
(lp1367
sbI-1
sg1
(g12
g3
NtRp1368
(dp1369
S'e'
g15
(tRp1370
S'_3'
p1371
g18
(tRp1372
S'1'
(lp1373
(tassS'_2'
p1374
g18
(tRp1375
S'j/just'
p1376
(lp1377
(tassS'_1'
p1378
g18
(tRp1379
S'h2/hour'
p1380
(lp1381
(tassS'_0'
p1382
g18
(tRp1383
S't2/temporal-quantity'
p1384
(lp1385
(tasS'quant'
p1386
(lp1387
(g1371
tp1388
asS'unit'
p1389
(lp1390
(g1378
tp1391
asS'mod'
p1392
(lp1393
(g1374
tp1394
ass(dp1395
g41
I00
sg42
I7
sg43
(dp1396
g1382
Nssg45
I0
sg46
Nsg47
(dp1397
sg49
(dp1398
sg51
Nsg52
(dp1399
sg55
(lp1400
g1382
asg57
(dp1401
sbsS'f'
(lp1402
S'just'
p1403
aS'an'
p1404
aS'hour'
p1405
asg63
I0
sg64
I0
sg65
g575
sg67
(lp1406
sg69
Nsg70
(lp1407
sbI1
sg1
(g12
g3
NtRp1408
(dp1409
S'e'
g15
(tRp1410
S'_7'
p1411
g18
(tRp1412
S'i/i'
p1413
(lp1414
(tassS'_6'
p1415
g18
(tRp1416
S'expressive'
p1417
(lp1418
(tassS'_5'
p1419
g18
(tRp1420
S'a/ah'
p1421
(lp1422
(tasS'mode'
p1423
(lp1424
(g1415
tp1425
assS'_4'
p1426
g18
(tRp1427
S's/she'
p1428
(lp1429
(tassS'_3'
p1430
g18
(tRp1431
S'"Goddess"'
p1432
(lp1433
(tassS'_2'
p1434
g18
(tRp1435
S'n/name'
p1436
(lp1437
(tasS'op1'
p1438
(lp1439
(g1430
tp1440
assS'_1'
p1441
g18
(tRp1442
S'"Goddess"'
p1443
(lp1444
(tassS'_0'
p1445
g18
(tRp1446
S'p/person'
p1447
(lp1448
(tasS'wiki'
p1449
(lp1450
(g1441
tp1451
asS'domain'
p1452
(lp1453
(g1426
tp1454
asS'name'
p1455
(lp1456
(g1434
tp1457
asS'poss'
p1458
(lp1459
(g1411
tp1460
asS'mod'
p1461
(lp1462
(g1419
tp1463
ass(dp1464
g41
I00
sg42
I15
sg43
(dp1465
g1445
Nssg45
I0
sg46
Nsg47
(dp1466
sg49
(dp1467
sg51
Nsg52
(dp1468
sg55
(lp1469
g1445
asg57
(dp1470
sbsS'f'
(lp1471
S'She'
p1472
aS'is'
p1473
aS'my'
p1474
aS'Goddess'
p1475
aS','
aS'ah'
p1476
asg63
I0
sg64
I0
sg65
g575
sg67
(lp1477
sg69
Nsg70
(lp1478
sbI1
sg1
(g12
g3
NtRp1479
(dp1480
S'e'
g15
(tRp1481
S'_7'
p1482
g18
(tRp1483
S'"Shenzhen"'
p1484
(lp1485
(tassS'_6'
p1486
g18
(tRp1487
S'n2/name'
p1488
(lp1489
(tasS'op1'
p1490
(lp1491
(g1482
tp1492
assS'_5'
p1493
g18
(tRp1494
S'"Shenzhen"'
p1495
(lp1496
(tassS'_4'
p1497
g18
(tRp1498
S'wiki'
p1499
(lp1500
(g1493
tp1501
asS'c/city'
p1502
(lp1503
(tasS'name'
p1504
(lp1505
(g1486
tp1506
assS'_3'
p1507
g18
(tRp1508
S'mod'
p1509
(lp1510
(g1497
tp1511
assS'_2'
p1512
g18
(tRp1513
S'y/you'
p1514
(lp1515
(tassS'_1'
p1516
g18
(tRp1517
sS'_0'
p1518
g18
(tRp1519
g1
(g112
g3
NtRp1520
(dp1521
g115
I0
sg116
S'A4-1101'
p1522
sb(lp1523
(g1516
g1512
g1507
tp1524
ass(dp1525
g42
I10
sg51
Nsg47
(dp1526
sg57
(dp1527
sg41
I00
sg43
(dp1528
g1518
Nssg45
I0
sg46
Nsg55
(lp1529
g1518
asg49
(dp1530
S'_1'
p1531
I0
ssg52
(dp1532
I0
g1531
ssbsS'f'
(lp1533
S'you'
p1534
aS'[A4-1101]'
p1535
aS'of'
p1536
aS'Shenzhen'
p1537
asg63
I0
sg64
I0
sg65
S'[A2-11]'
p1538
sg67
(lp1539
sg69
Nsg70
(lp1540
sbI-1
sg1
(g12
g3
NtRp1541
(dp1542
S'e'
g15
(tRp1543
S'_5'
p1544
g18
(tRp1545
S'd/differ-01'
p1546
(lp1547
(tassS'_4'
p1548
g18
(tRp1549
S'3'
(lp1550
(tassS'_3'
p1551
g18
(tRp1552
S'ARG1-of'
p1553
(lp1554
(g1544
tp1555
asS'quant'
p1556
(lp1557
(g1548
tp1558
asS't/type'
p1559
(lp1560
(tassS'_2'
p1561
g18
(tRp1562
S'a/aviary'
p1563
(lp1564
(tasS'mod'
p1565
(lp1566
(g1551
tp1567
assS'_1'
p1568
g18
(tRp1569
S'r2/result-01'
p1570
(lp1571
(tassS'_0'
p1572
g18
(tRp1573
S'ARG1'
p1574
(lp1575
(g1561
tp1576
asS'b/build-01'
p1577
(lp1578
(tasS'ARG2-of'
p1579
(lp1580
(g1568
tp1581
ass(dp1582
g41
I00
sg42
I11
sg43
(dp1583
g1572
Nssg45
I0
sg46
Nsg47
(dp1584
sg49
(dp1585
sg51
Nsg52
(dp1586
sg55
(lp1587
g1572
asg57
(dp1588
sbsS'f'
(lp1589
S'result'
p1590
aS','
aS'three'
p1591
aS'different'
p1592
aS'types'
p1593
aS'of'
p1594
aS'aviaries'
p1595
aS'were'
p1596
aS'built'
p1597
asg63
I0
sg64
I0
sg65
g575
sg67
(lp1598
sg69
Nsg70
(lp1599
sbI1
sg1
(g12
g3
NtRp1600
(dp1601
S'e'
g15
(tRp1602
S'_5'
p1603
g18
(tRp1604
S'm2/most'
p1605
(lp1606
(tassS'_4'
p1607
g18
(tRp1608
S'e/early'
p1609
(lp1610
(tasS'degree'
p1611
(lp1612
(g1603
tp1613
assS'_3'
p1614
g18
(tRp1615
S'h/here'
p1616
(lp1617
(tassS'_2'
p1618
g18
(tRp1619
S't/this'
p1620
(lp1621
(tassS'_1'
p1622
g18
(tRp1623
S'mod'
p1624
(lp1625
(g1618
tp1626
assS'_0'
p1627
g18
(tRp1628
S's/settle-03'
p1629
(lp1630
(tasS'ARG1'
p1631
(lp1632
(g1622
tp1633
asS'ARG4'
p1634
(lp1635
(g1614
tp1636
asS'time'
p1637
(lp1638
(g1607
tp1639
ass(dp1640
g41
I00
sg42
I10
sg43
(dp1641
g1627
Nssg45
I0
sg46
Nsg47
(dp1642
sg49
(dp1643
g1622
I0
ssg51
Nsg52
(dp1644
I0
S'_1'
p1645
ssg55
(lp1646
g1627
asg57
(dp1647
sbsS'f'
(lp1648
S'earliest'
p1649
aS'to'
p1650
aS'settle'
p1651
aS'here'
p1652
aS'was'
p1653
aS'this'
p1654
asg63
I0
sg64
I0
sg65
g66
sg67
(lp1655
sg69
Nsg70
(lp1656
sbI1
sg1
(g12
g3
NtRp1657
(dp1658
S'e'
g15
(tRp1659
S'_4'
p1660
g18
(tRp1661
S's/spot'
p1662
(lp1663
(tasg1
(g112
g3
NtRp1664
(dp1665
g115
I1
sg116
S'A1-0'
p1666
sb(lp1667
(tassS'_3'
p1668
g18
(tRp1669
g1
(g112
g3
NtRp1670
(dp1671
g115
I0
sg116
S'A1-1'
p1672
sb(lp1673
(tassS'_2'
p1674
g18
(tRp1675
S'ARG1'
p1676
(lp1677
(g1668
tp1678
asS'ARG2'
p1679
(lp1680
(g1660
tp1681
asS'b/become-01'
p1682
(lp1683
(tassS'_1'
p1684
g18
(tRp1685
S't2/this'
p1686
(lp1687
(tassS'_0'
p1688
g18
(tRp1689
S'ARG0'
p1690
(lp1691
(g1684
tp1692
asS'ARG1'
p1693
(lp1694
(g1674
tp1695
asS'c4/cause-01'
p1696
(lp1697
(tass(dp1698
g41
I00
sg42
I10
sg43
(dp1699
g1688
Nssg45
I0
sg46
Nsg47
(dp1700
sg49
(dp1701
sg51
Nsg52
(dp1702
sg55
(lp1703
g1688
asg57
(dp1704
sbsS'f'
(lp1705
S'this'
p1706
aS'reason'
p1707
aS','
ag575
aS'has'
p1708
aS'become'
p1709
aS'a'
aS'[A1-0]'
p1710
aS'spot'
p1711
asg63
I0
sg64
I0
sg65
g575
sg67
(lp1712
sg69
Nsg70
(lp1713
sbI1
sg1
(g12
g3
NtRp1714
(dp1715
S'e'
g15
(tRp1716
S'_4'
p1717
g18
(tRp1718
S'c/city'
p1719
(lp1720
(tassS'_3'
p1721
g18
(tRp1722
S'poss'
p1723
(lp1724
(g1717
tp1725
asS'p/pulse'
p1726
(lp1727
(tassS'_2'
p1728
g18
(tRp1729
S'e/even'
p1730
(lp1731
(tassS'_1'
p1732
g18
(tRp1733
S'd/dusk'
p1734
(lp1735
(tasS'mod'
p1736
(lp1737
(g1728
tp1738
assS'_0'
p1739
g18
(tRp1740
S'dayperiod'
p1741
(lp1742
(g1732
tp1743
asg1
(g112
g3
NtRp1744
(dp1745
g115
I0
sg116
S'A2-10'
p1746
sb(lp1747
(g1721
tp1748
ass(dp1749
g42
I8
sg51
Nsg47
(dp1750
sg57
(dp1751
sg41
I00
sg43
(dp1752
g1739
Nssg45
I0
sg46
Nsg55
(lp1753
g1739
asg49
(dp1754
sg52
(dp1755
sbsS'f'
(lp1756
S'Even'
p1757
aS'at'
p1758
aS'dusk'
p1759
aS','
aS'the'
p1760
aS'city'
p1761
aS"'s"
p1762
aS'pulse'
p1763
ag984
asg63
I0
sg64
I0
sg65
S'[A1-1]'
p1764
sg67
(lp1765
sg69
Nsg70
(lp1766
sbI-1
sg1
(g12
g3
NtRp1767
(dp1768
S'e'
g15
(tRp1769
S'_4'
p1770
g18
(tRp1771
S'p2/perform-01'
p1772
(lp1773
(tassS'_3'
p1774
g18
(tRp1775
S'p/person'
p1776
(lp1777
(tasS'ARG0-of'
p1778
(lp1779
(g1770
tp1780
assS'_2'
p1781
g18
(tRp1782
S'k/key-02'
p1783
(lp1784
(tassS'_1'
p1785
g18
(tRp1786
S'ARG1-of'
p1787
(lp1788
(g1781
tp1789
asS'b/building'
p1790
(lp1791
(tassS'_0'
p1792
g18
(tRp1793
S'ARG1'
p1794
(lp1795
(g1785
tp1796
asS'ARG2'
p1797
(lp1798
(g1774
tp1799
asS'r/resemble-01'
p1800
(lp1801
(tass(dp1802
g41
I00
sg42
I9
sg43
(dp1803
g1792
Nssg45
I0
sg46
Nsg47
(dp1804
sg49
(dp1805
g1781
I0
ssg51
Nsg52
(dp1806
I0
S'_2'
p1807
ssg55
(lp1808
g1792
asg57
(dp1809
sbsS'f'
(lp1810
S'key'
p1811
aS'building'
p1812
aS'is'
p1813
aS'like'
p1814
aS'a'
aS'performer'
p1815
asg63
I0
sg64
I0
sg65
g212
sg67
(lp1816
sg69
Nsg70
(lp1817
sbI1
sg1
(g12
g3
NtRp1818
(dp1819
S'e'
g15
(tRp1820
S'_1'
p1821
g18
(tRp1822
S'b/busy'
p1823
(lp1824
(tassS'_0'
p1825
g18
(tRp1826
S'm/metropolis'
p1827
(lp1828
(tasS'mod'
p1829
(lp1830
(g1821
tp1831
ass(dp1832
g41
I00
sg42
I3
sg43
(dp1833
g1825
Nssg45
I0
sg46
Nsg47
(dp1834
sg49
(dp1835
sg51
Nsg52
(dp1836
sg55
(lp1837
g1825
asg57
(dp1838
sbsS'f'
(lp1839
S'busy'
p1840
aS'metropolis'
p1841
asg63
I0
sg64
I0
sg65
g575
sg67
(lp1842
sg69
Nsg70
(lp1843
sbI1
sg1
(g12
g3
NtRp1844
(dp1845
S'e'
g15
(tRp1846
S'_3'
p1847
g18
(tRp1848
g1
(g112
g3
NtRp1849
(dp1850
g115
I0
sg116
S'A1-1'
p1851
sb(lp1852
(tassS'_2'
p1853
g18
(tRp1854
S'1'
(lp1855
(tassS'_1'
p1856
g18
(tRp1857
S'domain'
p1858
(lp1859
(g1847
tp1860
asS'i/idea'
p1861
(lp1862
(tasS'quant'
p1863
(lp1864
(g1853
tp1865
assS'_0'
p1866
g18
(tRp1867
S'ARG1'
p1868
(lp1869
(g1856
tp1870
asS'i2/infer-01'
p1871
(lp1872
(tass(dp1873
g42
I7
sg51
Nsg47
(dp1874
sg57
(dp1875
sg41
I00
sg43
(dp1876
g1866
Nssg45
I0
sg46
Nsg55
(lp1877
g1866
asg49
(dp1878
sg52
(dp1879
sbsS'f'
(lp1880
S'one'
p1881
aS'idea'
p1882
aS'was'
p1883
aS'to'
p1884
ag144
asg63
I0
sg64
I0
sg65
g144
sg67
(lp1885
sg69
Nsg70
(lp1886
sbI-1
sg1
(g12
g3
NtRp1887
(dp1888
S'e'
g15
(tRp1889
S'_3'
p1890
g18
(tRp1891
S'y/year'
p1892
(lp1893
(tassS'_2'
p1894
g18
(tRp1895
S'2'
(lp1896
(tassS'_1'
p1897
g18
(tRp1898
S't3/temporal-quantity'
p1899
(lp1900
(tasS'quant'
p1901
(lp1902
(g1894
tp1903
asS'unit'
p1904
(lp1905
(g1890
tp1906
assS'_0'
p1907
g18
(tRp1908
g1
(g112
g3
NtRp1909
(dp1910
g115
I0
sg116
S'A2-10'
p1911
sb(lp1912
(g1897
tp1913
ass(dp1914
g41
I00
sg42
I6
sg43
(dp1915
g1907
Nssg45
I0
sg46
Nsg47
(dp1916
sg49
(dp1917
sg51
Nsg52
(dp1918
sg55
(lp1919
g1907
asg57
(dp1920
sbsS'f'
(lp1921
S'[A2-10]'
p1922
aS'two'
p1923
aS'years'
p1924
asg63
I0
sg64
I0
sg65
S'[A1-1]'
p1925
sg67
(lp1926
sg69
Nsg70
(lp1927
sbI1
sg1
(g12
g3
NtRp1928
(dp1929
S'e'
g15
(tRp1930
S'_3'
p1931
g18
(tRp1932
S'e/especially'
p1933
(lp1934
(tassS'_2'
p1935
g18
(tRp1936
S'v/video'
p1937
(lp1938
(tassS'_1'
p1939
g18
(tRp1940
S'ARG1'
p1941
(lp1942
(g1935
tp1943
asS'r/record-01'
p1944
(lp1945
(tassS'_0'
p1946
g18
(tRp1947
S'ARG1'
p1948
(lp1949
(g1939
tp1950
asS'f/forbid-01'
p1951
(lp1952
(tasS'mod'
p1953
(lp1954
(g1931
tp1955
ass(dp1956
g42
I7
sg51
Nsg47
(dp1957
sg57
(dp1958
sg41
I00
sg43
(dp1959
g1946
Nssg45
I0
sg46
Nsg55
(lp1960
g1946
asg49
(dp1961
sg52
(dp1962
sbsS'f'
(lp1963
S'Video'
p1964
aS'recording'
p1965
aS'is'
p1966
aS'especially'
p1967
aS'forbidden'
p1968
asg63
I0
sg64
I0
sg65
S'[A1-1]'
p1969
sg67
(lp1970
sg69
Nsg70
(lp1971
sbI-1
sg1
(g12
g3
NtRp1972
(dp1973
S'e'
g15
(tRp1974
S'_6'
p1975
g18
(tRp1976
g1
(g112
g3
NtRp1977
(dp1978
g115
I1
sg116
S'A1-1'
p1979
sb(lp1980
(tassS'_5'
p1981
g18
(tRp1982
S'part-of'
p1983
(lp1984
(g1975
tp1985
assS'_4'
p1986
g18
(tRp1987
S't/this'
p1988
(lp1989
(tassS'_3'
p1990
g18
(tRp1991
S'mod'
p1992
(lp1993
(g1986
tp1994
assS'_2'
p1995
g18
(tRp1996
S't2/then'
p1997
(lp1998
(tassS'_1'
p1999
g18
(tRp2000
S's/since'
p2001
(lp2002
(tasS'op1'
p2003
(lp2004
(g1995
tp2005
assS'_0'
p2006
g18
(tRp2007
g1
(g112
g3
NtRp2008
(dp2009
g115
I0
sg116
S'A3-111'
p2010
sb(lp2011
(g1990
g1981
tp2012
asS'time'
p2013
(lp2014
(g1999
tp2015
ass(dp2016
g42
I9
sg51
Nsg47
(dp2017
sg57
(dp2018
sg41
I00
sg43
(dp2019
g2006
Nssg45
I0
sg46
Nsg55
(lp2020
g2006
asg49
(dp2021
sg52
(dp2022
sbsS'f'
(lp2023
S'Since'
p2024
aS'then'
p2025
aS','
aS'this'
p2026
ag269
aS'in'
p2027
ag144
asg63
I0
sg64
I0
sg65
g144
sg67
(lp2028
sg69
Nsg70
(lp2029
sbI-1
sg1
(g12
g3
NtRp2030
(dp2031
S'e'
g15
(tRp2032
S'_5'
p2033
g18
(tRp2034
g1
(g112
g3
NtRp2035
(dp2036
g115
I0
sg116
S'A1-1'
p2037
sb(lp2038
(tassS'_4'
p2039
g18
(tRp2040
S's/shop-01'
p2041
(lp2042
(tassS'_3'
p2043
g18
(tRp2044
S'topic'
p2045
(lp2046
(g2039
tp2047
asS'p2/paradise'
p2048
(lp2049
(tassS'_2'
p2050
g18
(tRp2051
S'ARG1'
p2052
(lp2053
(g2033
tp2054
asS'ARG2'
p2055
(lp2056
(g2043
tp2057
asS'p/position-01'
p2058
(lp2059
(tassS'_1'
p2060
g18
(tRp2061
S'a/amr-unknown'
p2062
(lp2063
(tassS'_0'
p2064
g18
(tRp2065
S'd/determine-01'
p2066
(lp2067
(tasS'ARG0'
p2068
(lp2069
(g2060
tp2070
asS'ARG1'
p2071
(lp2072
(g2050
tp2073
ass(dp2074
g42
I11
sg51
Nsg47
(dp2075
sg57
(dp2076
sg41
I00
sg43
(dp2077
g2064
Nssg45
I0
sg46
Nsg55
(lp2078
g2064
asg49
(dp2079
sg52
(dp2080
sbsS'f'
(lp2081
S'What'
p2082
aS'determined'
p2083
aS'the'
p2084
aS'position'
p2085
aS'of'
p2086
aS'[A1-1]'
p2087
aS'as'
p2088
aS'a'
aS'shopping'
p2089
aS'paradise'
p2090
asg63
I0
sg64
I0
sg65
g2087
sg67
(lp2091
sg69
Nsg70
(lp2092
sbI-1
sg1
(g12
g3
NtRp2093
(dp2094
S'e'
g15
(tRp2095
S'_8'
p2096
g18
(tRp2097
sS'_7'
p2098
g18
(tRp2099
S'"Kok"'
p2100
(lp2101
(tassS'_6'
p2102
g18
(tRp2103
S'"Lap"'
p2104
(lp2105
(tassS'_5'
p2106
g18
(tRp2107
S'"Chek"'
p2108
(lp2109
(tassS'_4'
p2110
g18
(tRp2111
S'op3'
p2112
(lp2113
(g2098
tp2114
asS'n2/name'
p2115
(lp2116
(tasS'op2'
p2117
(lp2118
(g2102
tp2119
asS'op1'
p2120
(lp2121
(g2106
tp2122
assS'_3'
p2123
g18
(tRp2124
S'"Chek_Lap_Kok"'
p2125
(lp2126
(tassS'_2'
p2127
g18
(tRp2128
S'wiki'
p2129
(lp2130
(g2123
tp2131
asS'i/island'
p2132
(lp2133
(tasS'name'
p2134
(lp2135
(g2110
tp2136
assS'_1'
p2137
g18
(tRp2138
S'location'
p2139
(lp2140
(g2127
tp2141
asg1
(g112
g3
NtRp2142
(dp2143
g115
I0
sg116
S'A1-1'
p2144
sb(lp2145
(tassS'_0'
p2146
g18
(tRp2147
g1
(g112
g3
NtRp2148
(dp2149
g115
I1
sg116
S'A3-100'
p2150
sb(lp2151
(g2137
g2096
tp2152
ass(dp2153
g41
I00
sg42
I14
sg43
(dp2154
g2146
Nssg45
I0
sg46
Nsg47
(dp2155
sg49
(dp2156
S'_1'
p2157
I0
sS'_8'
p2158
I1
ssg51
Nsg52
(dp2159
I0
g2157
sI1
g2158
ssg55
(lp2160
g2146
asg57
(dp2161
sbsS'f'
(lp2162
g575
aS'at'
p2163
aS'Chek'
p2164
aS'Lap'
p2165
aS'Kok'
p2166
aS'[A3-100]'
p2167
asg63
I0
sg64
I0
sg65
g756
sg67
(lp2168
sg69
Nsg70
(lp2169
sbI1
sg1
(g12
g3
NtRp2170
(dp2171
S'e'
g15
(tRp2172
S'_4'
p2173
g18
(tRp2174
S't/this'
p2175
(lp2176
(tassS'_3'
p2177
g18
(tRp2178
sS'_2'
p2179
g18
(tRp2180
S'a/about'
p2181
(lp2182
(tasS'op1'
p2183
(lp2184
(g2177
tp2185
assS'_1'
p2186
g18
(tRp2187
S'p2/point'
p2188
(lp2189
(tasS'quant'
p2190
(lp2191
(g2179
tp2192
asS'mod'
p2193
(lp2194
(g2173
tp2195
assS'_0'
p2196
g18
(tRp2197
S'ARG2'
p2198
(lp2199
(g2186
tp2200
asS'b/be-temporally-at-91'
p2201
(lp2202
(tass(dp2203
g41
I00
sg42
I8
sg43
(dp2204
g2196
Nssg45
I0
sg46
Nsg47
(dp2205
sg49
(dp2206
g2177
I0
ssg51
Nsg52
(dp2207
I0
S'_3'
p2208
ssg55
(lp2209
g2196
asg57
(dp2210
sbsS'f'
(lp2211
S'At'
p2212
aS'this'
p2213
aS'point'
p2214
aS','
aS'it'
p2215
aS'has'
p2216
aS'been'
p2217
aS'about'
p2218
asg63
I0
sg64
I0
sg65
g66
sg67
(lp2219
sg69
Nsg70
(lp2220
sbI1
sg1
(g12
g3
NtRp2221
(dp2222
S'e'
g15
(tRp2223
S'_4'
p2224
g18
(tRp2225
S'"Peak"'
p2226
(lp2227
(tassS'_3'
p2228
g18
(tRp2229
S'"Victoria"'
p2230
(lp2231
(tassS'_2'
p2232
g18
(tRp2233
S'n/name'
p2234
(lp2235
(tasS'op1'
p2236
(lp2237
(g2228
tp2238
asS'op2'
p2239
(lp2240
(g2224
tp2241
assS'_1'
p2242
g18
(tRp2243
S'"Victoria_Peak"'
p2244
(lp2245
(tassS'_0'
p2246
g18
(tRp2247
S'wiki'
p2248
(lp2249
(g2242
tp2250
asS'm/mountain'
p2251
(lp2252
(tasS'name'
p2253
(lp2254
(g2232
tp2255
ass(dp2256
g42
I9
sg51
Nsg47
(dp2257
sg57
(dp2258
sg41
I00
sg43
(dp2259
sg45
I0
sg46
Nsg55
(lp2260
S'_0'
p2261
asg49
(dp2262
sg52
(dp2263
sbsS'f'
(lp2264
S'Victoria'
p2265
aS'Peak'
p2266
asg63
I0
sg64
I0
sg65
S'[A1-1]'
p2267
sg67
(lp2268
sg69
Nsg70
(lp2269
sbI-1
sg1
(g12
g3
NtRp2270
(dp2271
S'e'
g15
(tRp2272
S'_4'
p2273
g18
(tRp2274
S'"Mouse"'
p2275
(lp2276
(tassS'_3'
p2277
g18
(tRp2278
S'"Mickey"'
p2279
(lp2280
(tassS'_2'
p2281
g18
(tRp2282
S'n2/name'
p2283
(lp2284
(tasS'op2'
p2285
(lp2286
(g2273
tp2287
asS'op1'
p2288
(lp2289
(g2277
tp2290
assS'_1'
p2291
g18
(tRp2292
S'"Mickey_Mouse"'
p2293
(lp2294
(tassS'_0'
p2295
g18
(tRp2296
S'p/person'
p2297
(lp2298
(tasS'wiki'
p2299
(lp2300
(g2291
tp2301
asS'name'
p2302
(lp2303
(g2281
tp2304
ass(dp2305
g42
I9
sg51
Nsg47
(dp2306
sg57
(dp2307
sg41
I00
sg43
(dp2308
sg45
I0
sg46
Nsg55
(lp2309
S'_0'
p2310
asg49
(dp2311
sg52
(dp2312
sbsS'f'
(lp2313
S'Mickey'
p2314
aS'Mouse'
p2315
asg63
I0
sg64
I0
sg65
g144
sg67
(lp2316
sg69
Nsg70
(lp2317
sbI-1
sg1
(g12
g3
NtRp2318
(dp2319
S'e'
g15
(tRp2320
S'_2'
p2321
g18
(tRp2322
S'a/attract-01'
p2323
(lp2324
(tassS'_1'
p2325
g18
(tRp2326
g1
(g112
g3
NtRp2327
(dp2328
g115
I0
sg116
S'A1-1'
p2329
sb(lp2330
(tassS'_0'
p2331
g18
(tRp2332
S'ARG0-of'
p2333
(lp2334
(g2321
tp2335
asS'example'
p2336
(lp2337
(g2325
tp2338
asS't2/thing'
p2339
(lp2340
(tass(dp2341
g42
I5
sg51
Nsg47
(dp2342
sg57
(dp2343
sg41
I00
sg43
(dp2344
g2331
Nssg45
I0
sg46
Nsg55
(lp2345
g2331
asg49
(dp2346
sg52
(dp2347
sbsS'f'
(lp2348
S'attractions'
p2349
aS'like'
p2350
aS'the'
p2351
ag2267
asg63
I0
sg64
I0
sg65
g2267
sg67
(lp2352
sg69
Nsg70
(lp2353
sbI-1
sg1
(g12
g3
NtRp2354
(dp2355
S'e'
g15
(tRp2356
S'_4'
p2357
g18
(tRp2358
S'expressive'
p2359
(lp2360
(tassS'_3'
p2361
g18
(tRp2362
S'a/ah'
p2363
(lp2364
(tasS'mode'
p2365
(lp2366
(g2357
tp2367
assS'_2'
p2368
g18
(tRp2369
S'n/now'
p2370
(lp2371
(tassS'_1'
p2372
g18
(tRp2373
S't/they'
p2374
(lp2375
(tasS'time'
p2376
(lp2377
(g2368
tp2378
assS'_0'
p2379
g18
(tRp2380
S'ARG0'
p2381
(lp2382
(g2372
tp2383
asS'mod'
p2384
(lp2385
(g2361
tp2386
asS'r/rehearse-01'
p2387
(lp2388
(tass(dp2389
g42
I9
sg51
Nsg47
(dp2390
sg57
(dp2391
sg41
I00
sg43
(dp2392
g2379
Nssg45
I0
sg46
Nsg55
(lp2393
g2379
asg49
(dp2394
sg52
(dp2395
sbsS'f'
(lp2396
S'Ah'
p2397
aS','
aS'they'
p2398
aS'are'
p2399
aS'now'
p2400
aS'rehearsing'
p2401
asg63
I0
sg64
I0
sg65
S'[A1-1]'
p2402
sg67
(lp2403
sg69
Nsg70
(lp2404
sbI-1
sg1
(g12
g3
NtRp2405
(dp2406
S'e'
g15
(tRp2407
S'_4'
p2408
g18
(tRp2409
S'a4/add-02'
p2410
(lp2411
(tassS'_3'
p2412
g18
(tRp2413
S'ARG1-of'
p2414
(lp2415
(g2408
tp2416
assS'_2'
p2417
g18
(tRp2418
S't/tour-01'
p2419
(lp2420
(tassS'_1'
p2421
g18
(tRp2422
S'p/person'
p2423
(lp2424
(tasS'ARG0-of'
p2425
(lp2426
(g2417
tp2427
assS'_0'
p2428
g18
(tRp2429
g1
(g112
g3
NtRp2430
(dp2431
g115
I0
sg116
S'A3-101'
p2432
sb(lp2433
(g2421
g2412
tp2434
ass(dp2435
g41
I00
sg42
I6
sg43
(dp2436
g2428
Nssg45
I0
sg46
Nsg47
(dp2437
sg49
(dp2438
sg51
Nsg52
(dp2439
sg55
(lp2440
g2428
asg57
(dp2441
sbsS'f'
(lp2442
S'additional'
p2443
aS','
aS'[A3-101]'
p2444
aS'tourists'
p2445
asg63
I0
sg64
I0
sg65
g575
sg67
(lp2446
sg69
Nsg70
(lp2447
sbI1
sg1
(g12
g3
NtRp2448
(dp2449
S'e'
g15
(tRp2450
S'_3'
p2451
g18
(tRp2452
S'w/world'
p2453
(lp2454
(tassS'_2'
p2455
g18
(tRp2456
S'f/fame-01'
p2457
(lp2458
(tasS'location'
p2459
(lp2460
(g2451
tp2461
assS'_1'
p2462
g18
(tRp2463
S's/shop-01'
p2464
(lp2465
(tassS'_0'
p2466
g18
(tRp2467
S'topic'
p2468
(lp2469
(g2462
tp2470
asS'p/paradise'
p2471
(lp2472
(tasS'ARG1-of'
p2473
(lp2474
(g2455
tp2475
ass(dp2476
g42
I7
sg51
Nsg47
(dp2477
sg57
(dp2478
sg41
I00
sg43
(dp2479
g2466
Nssg45
I0
sg46
Nsg55
(lp2480
g2466
asg49
(dp2481
sg52
(dp2482
sbsS'f'
(lp2483
S'world'
p2484
aS'famous'
p2485
aS'shopping'
p2486
aS'paradise'
p2487
asg63
I0
sg64
I0
sg65
g1047
sg67
(lp2488
sg69
Nsg70
(lp2489
sbI-1
sg1
(g12
g3
NtRp2490
(dp2491
S'e'
g15
(tRp2492
S'_5'
p2493
g18
(tRp2494
g1
(g112
g3
NtRp2495
(dp2496
g115
I2
sg116
S'A1-1'
p2497
sb(lp2498
(tassS'_4'
p2499
g18
(tRp2500
S'g3/gradual'
p2501
(lp2502
(tassS'_3'
p2503
g18
(tRp2504
g1
(g112
g3
NtRp2505
(dp2506
g115
I1
sg116
S'A1-1'
p2507
sb(lp2508
(tassS'_2'
p2509
g18
(tRp2510
sS'_1'
p2511
g18
(tRp2512
S'source'
p2513
(lp2514
(g2503
tp2515
asS'poss'
p2516
(lp2517
(g2509
tp2518
asg1
(g112
g3
NtRp2519
(dp2520
g115
I0
sg116
S'A1-1'
p2521
sb(lp2522
(tassS'_0'
p2523
g18
(tRp2524
S'm/move-01'
p2525
(lp2526
(tasS'ARG1'
p2527
(lp2528
(g2511
tp2529
asS'ARG2'
p2530
(lp2531
(g2493
tp2532
asS'manner'
p2533
(lp2534
(g2499
tp2535
ass(dp2536
g42
I10
sg51
Nsg47
(dp2537
sg57
(dp2538
sg41
I00
sg43
(dp2539
g2523
Nssg45
I0
sg46
Nsg55
(lp2540
g2523
asg49
(dp2541
g2509
I0
ssg52
(dp2542
I0
S'_2'
p2543
ssbsS'f'
(lp2544
S"'s"
p2545
ag2267
aS'have'
p2546
aS'gradually'
p2547
aS'moved'
p2548
aS'from'
p2549
ag2267
aS'to'
p2550
ag2267
asg63
I0
sg64
I0
sg65
S'[A2-10]'
p2551
sg67
(lp2552
sg69
Nsg70
(lp2553
sbI-1
sg1
(g12
g3
NtRp2554
(dp2555
S'e'
g15
(tRp2556
S'_4'
p2557
g18
(tRp2558
S'f/future'
p2559
(lp2560
(tassS'_3'
p2561
g18
(tRp2562
S'purpose'
p2563
(lp2564
(g2557
tp2565
asg1
(g112
g3
NtRp2566
(dp2567
g115
I0
sg116
S'A1-1'
p2568
sb(lp2569
(tassS'_2'
p2570
g18
(tRp2571
S'w/we'
p2572
(lp2573
(tassS'_1'
p2574
g18
(tRp2575
S'ARG0'
p2576
(lp2577
(g2570
tp2578
asS'ARG1'
p2579
(lp2580
(g2561
tp2581
asS'h/have-03'
p2582
(lp2583
(tassS'_0'
p2584
g18
(tRp2585
S'ARG1'
p2586
(lp2587
(g2574
tp2588
asS's2/seem-01'
p2589
(lp2590
(tass(dp2591
g41
I00
sg42
I9
sg43
(dp2592
g2584
Nssg45
I0
sg46
Nsg47
(dp2593
sg49
(dp2594
sg51
Nsg52
(dp2595
sg55
(lp2596
g2584
asg57
(dp2597
sbsS'f'
(lp2598
S'seems'
p2599
aS'that'
p2600
aS'for'
p2601
aS'the'
p2602
aS'future'
p2603
aS','
aS'we'
p2604
aS'have'
p2605
aS'a'
ag575
asg63
I0
sg64
I0
sg65
g575
sg67
(lp2606
sg69
Nsg70
(lp2607
sbI1
sg1
(g12
g3
NtRp2608
(dp2609
S'e'
g15
(tRp2610
S'_5'
p2611
g18
(tRp2612
S'g/general-02'
p2613
(lp2614
(tassS'_4'
p2615
g18
(tRp2616
S'p2/public'
p2617
(lp2618
(tasS'mod'
p2619
(lp2620
(g2611
tp2621
assS'_3'
p2622
g18
(tRp2623
S'r/rich'
p2624
(lp2625
(tassS'_2'
p2626
g18
(tRp2627
S'o/or'
p2628
(lp2629
(tasS'op2'
p2630
(lp2631
(g2615
tp2632
asS'op1'
p2633
(lp2634
(g2622
tp2635
assS'_1'
p2636
g18
(tRp2637
S'i/it'
p2638
(lp2639
(tassS'_0'
p2640
g18
(tRp2641
S'beneficiary'
p2642
(lp2643
(g2626
tp2644
asS'p/paradise'
p2645
(lp2646
(tasS'domain'
p2647
(lp2648
(g2636
tp2649
ass(dp2650
g41
I00
sg42
I11
sg43
(dp2651
g2640
Nssg45
I0
sg46
Nsg47
(dp2652
sg49
(dp2653
sg51
Nsg52
(dp2654
sg55
(lp2655
g2640
asg57
(dp2656
sbsS'f'
(lp2657
S'Is'
p2658
aS'it'
p2659
aS'a'
aS'paradise'
p2660
aS'for'
p2661
aS'the'
p2662
aS'rich'
p2663
aS'or'
p2664
aS'the'
p2665
aS'general'
p2666
aS'public'
p2667
asg63
I0
sg64
I0
sg65
g575
sg67
(lp2668
sg69
Nsg70
(lp2669
sbI1
sg1
(g12
g3
NtRp2670
(dp2671
S'e'
g15
(tRp2672
S'_2'
p2673
g18
(tRp2674
S'v/video'
p2675
(lp2676
(tassS'_1'
p2677
g18
(tRp2678
S'ARG1'
p2679
(lp2680
(g2673
tp2681
asS'r/record-01'
p2682
(lp2683
(tassS'_0'
p2684
g18
(tRp2685
g1
(g112
g3
NtRp2686
(dp2687
g115
I0
sg116
S'A2-10'
p2688
sb(lp2689
(g2677
tp2690
ass(dp2691
g41
I00
sg42
I4
sg43
(dp2692
g2684
Nssg45
I0
sg46
Nsg47
(dp2693
sg49
(dp2694
sg51
Nsg52
(dp2695
sg55
(lp2696
g2684
asg57
(dp2697
sbsS'f'
(lp2698
S'Video'
p2699
aS'recording'
p2700
aS'is'
p2701
ag66
asg63
I0
sg64
I0
sg65
g575
sg67
(lp2702
sg69
Nsg70
(lp2703
sbI1
sg1
(g12
g3
NtRp2704
(dp2705
S'e'
g15
(tRp2706
S'_3'
p2707
g18
(tRp2708
S'n2/next'
p2709
(lp2710
(tassS'_2'
p2711
g18
(tRp2712
S'y/year'
p2713
(lp2714
(tasS'mod'
p2715
(lp2716
(g2707
tp2717
assS'_1'
p2718
g18
(tRp2719
S'time'
p2720
(lp2721
(g2711
tp2722
assS'_0'
p2723
g18
(tRp2724
g1
(g112
g3
NtRp2725
(dp2726
g115
I0
sg116
S'A2-11'
p2727
sb(lp2728
(g2718
tp2729
ass(dp2730
g42
I5
sg51
Nsg47
(dp2731
sg57
(dp2732
sg41
I00
sg43
(dp2733
g2723
Nssg45
I0
sg46
Nsg55
(lp2734
g2723
asg49
(dp2735
sg52
(dp2736
sbsS'f'
(lp2737
S'[A2-11]'
p2738
aS'next'
p2739
aS'year'
p2740
asg63
I0
sg64
I0
sg65
S'[A1-1]'
p2741
sg67
(lp2742
sg69
Nsg70
(lp2743
sbI-1
sg1
(g12
g3
NtRp2744
(dp2745
S'e'
g15
(tRp2746
S'_8'
p2747
g18
(tRp2748
S'"Bridge"'
p2749
(lp2750
(tassS'_7'
p2751
g18
(tRp2752
S'"Macao"'
p2753
(lp2754
(tassS'_6'
p2755
g18
(tRp2756
S'"Hong-Kong"'
p2757
(lp2758
(tassS'_5'
p2759
g18
(tRp2760
S'"Zhuhai"'
p2761
(lp2762
(tassS'_4'
p2763
g18
(tRp2764
S'op4'
p2765
(lp2766
(g2747
tp2767
asS'n3/name'
p2768
(lp2769
(tasS'op1'
p2770
(lp2771
(g2759
tp2772
asS'op2'
p2773
(lp2774
(g2755
tp2775
asS'op3'
p2776
(lp2777
(g2751
tp2778
assS'_3'
p2779
g18
(tRp2780
S'"Hong_Kong\xe2\x80\x93Zhuhai\xe2\x80\x93Macau_Bridge"'
p2781
(lp2782
(tassS'_2'
p2783
g18
(tRp2784
S'wiki'
p2785
(lp2786
(g2779
tp2787
asS'name'
p2788
(lp2789
(g2763
tp2790
asS'b3/bridge'
p2791
(lp2792
(tassS'_1'
p2793
g18
(tRp2794
S'b2/build-01'
p2795
(lp2796
(tasS'ARG1'
p2797
(lp2798
(g2783
tp2799
assS'_0'
p2800
g18
(tRp2801
S'op1'
p2802
(lp2803
(g2793
tp2804
asS'o/once'
p2805
(lp2806
(tass(dp2807
g41
I00
sg42
I17
sg43
(dp2808
g2800
Nssg45
I0
sg46
Nsg47
(dp2809
sg49
(dp2810
sg51
Nsg52
(dp2811
sg55
(lp2812
g2800
asg57
(dp2813
sbsS'f'
(lp2814
S'Once'
p2815
aS'the'
p2816
aS'Zhuhai'
p2817
aS'-'
aS'Hong'
p2818
aS'Kong'
p2819
aS'-'
aS'Macao'
p2820
aS'bridge'
p2821
aS'is'
p2822
aS'built'
p2823
asg63
I0
sg64
I0
sg65
g575
sg67
(lp2824
sg69
Nsg70
(lp2825
sbI1
sg1
(g12
g3
NtRp2826
(dp2827
S'e'
g15
(tRp2828
S'_3'
p2829
g18
(tRp2830
S'w/worldwide'
p2831
(lp2832
(tassS'_2'
p2833
g18
(tRp2834
S'mod'
p2835
(lp2836
(g2829
tp2837
assS'_1'
p2838
g18
(tRp2839
g1
(g112
g3
NtRp2840
(dp2841
g115
I0
sg116
S'A1-1'
p2842
sb(lp2843
(tassS'_0'
p2844
g18
(tRp2845
S'ARG0'
p2846
(lp2847
(g2838
tp2848
asS'ARG1'
p2849
(lp2850
(g2833
tp2851
asS'c3/capture-01'
p2852
(lp2853
(tass(dp2854
g41
I00
sg42
I6
sg43
(dp2855
g2844
Nssg45
I0
sg46
Nsg47
(dp2856
sg49
(dp2857
g2833
I1
sg2838
I0
ssg51
Nsg52
(dp2858
I0
S'_1'
p2859
sI1
S'_2'
p2860
ssg55
(lp2861
g2844
asg57
(dp2862
sbsS'f'
(lp2863
g575
aS'time'
p2864
aS','
aS'has'
p2865
aS'captured'
p2866
aS'worldwide'
p2867
asg63
I0
sg64
I0
sg65
g756
sg67
(lp2868
sg69
Nsg70
(lp2869
sbI1
sg1
(g12
g3
NtRp2870
(dp2871
S'e'
g15
(tRp2872
S'_2'
p2873
g18
(tRp2874
g1
(g112
g3
NtRp2875
(dp2876
g115
I0
sg116
S'A1-1'
p2877
sb(lp2878
(tassS'_1'
p2879
g18
(tRp2880
S'p/perspective'
p2881
(lp2882
(tasS'poss'
p2883
(lp2884
(g2873
tp2885
assS'_0'
p2886
g18
(tRp2887
g1
(g112
g3
NtRp2888
(dp2889
g115
I1
sg116
S'A1-1'
p2890
sb(lp2891
(tasS'manner'
p2892
(lp2893
(g2879
tp2894
ass(dp2895
g41
I00
sg42
I5
sg43
(dp2896
g2886
Nssg45
I0
sg46
Nsg47
(dp2897
sg49
(dp2898
sg51
Nsg52
(dp2899
sg55
(lp2900
g2886
asg57
(dp2901
sbsS'f'
(lp2902
S'perspective'
p2903
aS'of'
p2904
aS'either'
p2905
ag575
aS','
ag575
asg63
I0
sg64
I0
sg65
g575
sg67
(lp2906
sg69
Nsg70
(lp2907
sbI1
sg1
(g12
g3
NtRp2908
(dp2909
S'e'
g15
(tRp2910
S'_8'
p2911
g18
(tRp2912
S'a/attend-02'
p2913
(lp2914
(tasS'ARG1'
p2915
(lp2916
(S'_1'
tp2917
assS'_7'
p2918
g18
(tRp2919
S'n/new'
p2920
(lp2921
(tassS'_6'
p2922
g18
(tRp2923
S'"Mouse"'
p2924
(lp2925
(tassS'_5'
p2926
g18
(tRp2927
S'"Mickey"'
p2928
(lp2929
(tassS'_4'
p2930
g18
(tRp2931
S'n2/name'
p2932
(lp2933
(tasS'op2'
p2934
(lp2935
(g2922
tp2936
asS'op1'
p2937
(lp2938
(g2926
tp2939
assS'_3'
p2940
g18
(tRp2941
S'"Mickey_Mouse"'
p2942
(lp2943
(tassS'_2'
p2944
g18
(tRp2945
S'p/person'
p2946
(lp2947
(tasS'wiki'
p2948
(lp2949
(g2940
tp2950
asS'name'
p2951
(lp2952
(g2930
tp2953
assS'_1'
p2954
g18
(tRp2955
S'poss'
p2956
(lp2957
(g2944
tp2958
asS'mod'
p2959
(lp2960
(g2918
tp2961
assS'_0'
p2962
g18
(tRp2963
g1
(g112
g3
NtRp2964
(dp2965
g115
I0
sg116
S'A3-110'
p2966
sb(lp2967
(g2954
g2911
tp2968
ass(dp2969
g41
I00
sg42
I15
sg43
(dp2970
g2962
Nssg45
I0
sg46
Nsg47
(dp2971
sg49
(dp2972
sg51
Nsg52
(dp2973
sg55
(lp2974
g2962
asg57
(dp2975
sbsS'f'
(lp2976
S'Mickey'
p2977
aS'Mouse'
p2978
aS"'s"
p2979
aS'new'
p2980
ag756
aS'attention'
p2981
asg63
I0
sg64
I0
sg65
g575
sg67
(lp2982
sg69
Nsg70
(lp2983
sbI1
sg1
(g12
g3
NtRp2984
(dp2985
S'e'
g15
(tRp2986
S'_5'
p2987
g18
(tRp2988
S'h/here'
p2989
(lp2990
(tassS'_4'
p2991
g18
(tRp2992
S'p2/public'
p2993
(lp2994
(tasS'location'
p2995
(lp2996
(g2987
tp2997
assS'_3'
p2998
g18
(tRp2999
S'w/world'
p3000
(lp3001
(tassS'_2'
p3002
g18
(tRp3003
S'poss'
p3004
(lp3005
(g2998
tp3006
asg1
(g112
g3
NtRp3007
(dp3008
g115
I0
sg116
S'A1-1'
p3009
sb(lp3010
(tassS'_1'
p3011
g18
(tRp3012
S's/soon'
p3013
(lp3014
(tassS'_0'
p3015
g18
(tRp3016
S'o2/open-01'
p3017
(lp3018
(tasS'ARG1'
p3019
(lp3020
(g3002
tp3021
asS'ARG3'
p3022
(lp3023
(g2991
tp3024
asS'time'
p3025
(lp3026
(g3011
tp3027
ass(dp3028
g41
I00
sg42
I11
sg43
(dp3029
g3015
Nssg45
I0
sg46
Nsg47
(dp3030
sg49
(dp3031
sg51
Nsg52
(dp3032
sg55
(lp3033
g3015
asg57
(dp3034
sbsS'f'
(lp3035
S'world'
p3036
aS"'s"
p3037
ag575
aS'will'
p3038
aS'soon'
p3039
aS'open'
p3040
aS'to'
p3041
aS'the'
p3042
aS'public'
p3043
aS'here'
p3044
asg63
I0
sg64
I0
sg65
g575
sg67
(lp3045
sg69
Nsg70
(lp3046
sbI1
sg1
(g12
g3
NtRp3047
(dp3048
S'e'
g15
(tRp3049
S'_2'
p3050
g18
(tRp3051
S't/this'
p3052
(lp3053
(tassS'_1'
p3054
g18
(tRp3055
g1
(g112
g3
NtRp3056
(dp3057
g115
I0
sg116
S'A1-1'
p3058
sb(lp3059
(tassS'_0'
p3060
g18
(tRp3061
S'ARG1'
p3062
(lp3063
(g3054
tp3064
asS'ARG2'
p3065
(lp3066
(g3050
tp3067
asS'i/include-91'
p3068
(lp3069
(tass(dp3070
g41
I00
sg42
I5
sg43
(dp3071
g3060
Nssg45
I0
sg46
Nsg47
(dp3072
sg49
(dp3073
sg51
Nsg52
(dp3074
sg55
(lp3075
g3060
asg57
(dp3076
sbsS'f'
(lp3077
S'Among'
p3078
aS'these'
p3079
aS'is'
p3080
aS'the'
p3081
ag575
asg63
I0
sg64
I0
sg65
g575
sg67
(lp3082
sg69
Nsg70
(lp3083
sbI1
sg1
(g12
g3
NtRp3084
(dp3085
S'e'
g15
(tRp3086
S'_3'
p3087
g18
(tRp3088
S'p/picture'
p3089
(lp3090
(tassS'_2'
p3091
g18
(tRp3092
g1
(g112
g3
NtRp3093
(dp3094
g115
I0
sg116
S'A2-01'
p3095
sb(lp3096
(S'_1'
tp3097
asS'ARG1'
p3098
(lp3099
(g3087
tp3100
asS't/take-01'
p3101
(lp3102
(tassS'_1'
p3103
g18
(tRp3104
sS'_0'
p3105
g18
(tRp3106
S'ARG1'
p3107
(lp3108
(g3103
tp3109
asS'ARG2'
p3110
(lp3111
(g3091
tp3112
asS'h2/have-condition-91'
p3113
(lp3114
(tass(dp3115
g42
I7
sg51
Nsg47
(dp3116
sg57
(dp3117
sg41
I00
sg43
(dp3118
g3105
Nssg45
I0
sg46
Nsg55
(lp3119
g3105
asg49
(dp3120
sg52
(dp3121
sbsS'f'
(lp3122
S'If'
p3123
aS'pictures'
p3124
aS'are'
p3125
aS'taken'
p3126
aS'[A2-01]'
p3127
asg63
I0
sg64
I0
sg65
g2267
sg67
(lp3128
sg69
Nsg70
(lp3129
sbI-1
sg1
(g12
g3
NtRp3130
(dp3131
S'e'
g15
(tRp3132
S'_7'
p3133
g18
(tRp3134
S'c/city'
p3135
(lp3136
(tassS'_6'
p3137
g18
(tRp3138
S'poss'
p3139
(lp3140
(g3133
tp3141
asS'p/pulse'
p3142
(lp3143
(tassS'_5'
p3144
g18
(tRp3145
S'ARG1'
p3146
(lp3147
(g3137
tp3148
asS'b/beat-01'
p3149
(lp3150
(tassS'_4'
p3151
g18
(tRp3152
S'e/even'
p3153
(lp3154
(tassS'_3'
p3155
g18
(tRp3156
S'd/dusk'
p3157
(lp3158
(tasS'mod'
p3159
(lp3160
(g3151
tp3161
assS'_2'
p3162
g18
(tRp3163
S'-'
(lp3164
(tassS'_1'
p3165
g18
(tRp3166
S'polarity'
p3167
(lp3168
(g3162
tp3169
asS'e2/ever'
p3170
(lp3171
(tassS'_0'
p3172
g18
(tRp3173
S'dayperiod'
p3174
(lp3175
(g3155
tp3176
asS'ARG1'
p3177
(lp3178
(g3144
tp3179
asS's/stop-01'
p3180
(lp3181
(tasS'time'
p3182
(lp3183
(g3165
tp3184
ass(dp3185
g41
I00
sg42
I15
sg43
(dp3186
g3172
Nssg45
I0
sg46
Nsg47
(dp3187
sg49
(dp3188
sg51
Nsg52
(dp3189
sg55
(lp3190
g3172
asg57
(dp3191
sbsS'f'
(lp3192
S'Even'
p3193
aS'at'
p3194
aS'dusk'
p3195
aS','
aS'the'
p3196
aS'city'
p3197
aS"'s"
p3198
aS'pulse'
p3199
aS'never'
p3200
aS'stops'
p3201
aS'beating'
p3202
asg63
I0
sg64
I0
sg65
g575
sg67
(lp3203
sg69
Nsg70
(lp3204
sbI1
sg1
(g12
g3
NtRp3205
(dp3206
S'e'
g15
(tRp3207
S'_2'
p3208
g18
(tRp3209
S'b/busy'
p3210
(lp3211
(tassS'_1'
p3212
g18
(tRp3213
g1
(g112
g3
NtRp3214
(dp3215
g115
I0
sg116
S'A1-1'
p3216
sb(lp3217
(tassS'_0'
p3218
g18
(tRp3219
S'domain'
p3220
(lp3221
(g3212
tp3222
asS'm/metropolis'
p3223
(lp3224
(tasS'mod'
p3225
(lp3226
(g3208
tp3227
ass(dp3228
g42
I5
sg51
Nsg47
(dp3229
sg57
(dp3230
sg41
I00
sg43
(dp3231
g3218
Nssg45
I0
sg46
Nsg55
(lp3232
g3218
asg49
(dp3233
sg52
(dp3234
sbsS'f'
(lp3235
g2267
aS'is'
p3236
aS'a'
aS'busy'
p3237
aS'metropolis'
p3238
asg63
I0
sg64
I0
sg65
g2267
sg67
(lp3239
sg69
Nsg70
(lp3240
sbI-1
sg1
(g12
g3
NtRp3241
(dp3242
S'e'
g15
(tRp3243
S'_4'
p3244
g18
(tRp3245
S's5/security'
p3246
(lp3247
(tassS'_3'
p3248
g18
(tRp3249
S'mod'
p3250
(lp3251
(g3244
tp3252
assS'_2'
p3253
g18
(tRp3254
S'c2/car'
p3255
(lp3256
(tassS'_1'
p3257
g18
(tRp3258
g1
(g112
g3
NtRp3259
(dp3260
g115
I0
sg116
S'A1-1'
p3261
sb(lp3262
(tassS'_0'
p3263
g18
(tRp3264
S'ARG0'
p3265
(lp3266
(g3248
tp3267
asS'ARG1'
p3268
(lp3269
(g3253
tp3270
asS's/stop-01'
p3271
(lp3272
(tasS'time'
p3273
(lp3274
(g3257
tp3275
ass(dp3276
g41
I00
sg42
I8
sg43
(dp3277
g3263
Nssg45
I0
sg46
Nsg47
(dp3278
sg49
(dp3279
g3248
I0
ssg51
Nsg52
(dp3280
I0
S'_3'
p3281
ssg55
(lp3282
g3263
asg57
(dp3283
sbsS'f'
(lp3284
g575
aS'were'
p3285
aS'in'
p3286
aS'sight'
p3287
aS','
aS'the'
p3288
aS'car'
p3289
aS'was'
p3290
aS'stopped'
p3291
aS'by'
p3292
aS'a'
aS'security'
p3293
asg63
I0
sg64
I0
sg65
g66
sg67
(lp3294
sg69
Nsg70
(lp3295
sbI1
sg1
(g12
g3
NtRp3296
(dp3297
S'e'
g15
(tRp3298
S'_2'
p3299
g18
(tRp3300
sS'_1'
p3301
g18
(tRp3302
S'm/merchandise'
p3303
(lp3304
(tassS'_0'
p3305
g18
(tRp3306
S'o/or'
p3307
(lp3308
(tasS'op2'
p3309
(lp3310
(g3299
tp3311
asS'op1'
p3312
(lp3313
(g3301
tp3314
ass(dp3315
g41
I00
sg42
I4
sg43
(dp3316
g3305
Nssg45
I0
sg46
Nsg47
(dp3317
sg49
(dp3318
g3299
I1
sg3301
I0
ssg51
Nsg52
(dp3319
I0
S'_1'
p3320
sI1
S'_2'
p3321
ssg55
(lp3322
g3305
asg57
(dp3323
sbsS'f'
(lp3324
S'merchandise'
p3325
aS'or'
p3326
asg63
I0
sg64
I0
sg65
g756
sg67
(lp3327
sg69
Nsg70
(lp3328
sbI1
sg1
(g12
g3
NtRp3329
(dp3330
S'e'
g15
(tRp3331
S'_7'
p3332
g18
(tRp3333
S't/this'
p3334
(lp3335
(tassS'_6'
p3336
g18
(tRp3337
S'"Stars"'
p3338
(lp3339
(tassS'_5'
p3340
g18
(tRp3341
S'"of"'
p3342
(lp3343
(tassS'_4'
p3344
g18
(tRp3345
S'"Avenue"'
p3346
(lp3347
(tassS'_3'
p3348
g18
(tRp3349
S'n/name'
p3350
(lp3351
(tasS'op1'
p3352
(lp3353
(g3344
tp3354
asS'op2'
p3355
(lp3356
(g3340
tp3357
asS'op3'
p3358
(lp3359
(g3336
tp3360
assS'_2'
p3361
g18
(tRp3362
S'"Avenue_of_Stars,_Hong_Kong"'
p3363
(lp3364
(tassS'_1'
p3365
g18
(tRp3366
S'wiki'
p3367
(lp3368
(g3361
tp3369
asS'f/facility'
p3370
(lp3371
(tasS'name'
p3372
(lp3373
(g3348
tp3374
assS'_0'
p3375
g18
(tRp3376
S'ARG1'
p3377
(lp3378
(g3365
tp3379
asS'ARG2'
p3380
(lp3381
(g3332
tp3382
asS'i/include-91'
p3383
(lp3384
(tass(dp3385
g42
I15
sg51
Nsg47
(dp3386
sg57
(dp3387
sg41
I00
sg43
(dp3388
g3375
Nssg45
I0
sg46
Nsg55
(lp3389
g3375
asg49
(dp3390
sg52
(dp3391
sbsS'f'
(lp3392
S'Among'
p3393
aS'these'
p3394
aS'is'
p3395
aS'the'
p3396
aS'Avenue'
p3397
aS'of'
p3398
aS'Stars'
p3399
asg63
I0
sg64
I0
sg65
g2267
sg67
(lp3400
sg69
Nsg70
(lp3401
sbI-1
sg1
(g12
g3
NtRp3402
(dp3403
S'e'
g15
(tRp3404
S'_4'
p3405
g18
(tRp3406
S'i/i'
p3407
(lp3408
(tassS'_3'
p3409
g18
(tRp3410
S'"Goddess"'
p3411
(lp3412
(tassS'_2'
p3413
g18
(tRp3414
S'n/name'
p3415
(lp3416
(tasS'op1'
p3417
(lp3418
(g3409
tp3419
assS'_1'
p3420
g18
(tRp3421
S'"Goddess"'
p3422
(lp3423
(tassS'_0'
p3424
g18
(tRp3425
S'p/person'
p3426
(lp3427
(tasS'wiki'
p3428
(lp3429
(g3420
tp3430
asS'name'
p3431
(lp3432
(g3413
tp3433
asS'poss'
p3434
(lp3435
(g3405
tp3436
ass(dp3437
g42
I9
sg51
Nsg47
(dp3438
sg57
(dp3439
sg41
I00
sg43
(dp3440
g3424
Nssg45
I0
sg46
Nsg55
(lp3441
g3424
asg49
(dp3442
sg52
(dp3443
sbsS'f'
(lp3444
S'my'
p3445
aS'Goddess'
p3446
asg63
I0
sg64
I0
sg65
g144
sg67
(lp3447
sg69
Nsg70
(lp3448
sbI-1
sg1
(g12
g3
NtRp3449
(dp3450
S'e'
g15
(tRp3451
S'_4'
p3452
g18
(tRp3453
S'expressive'
p3454
(lp3455
(tassS'_3'
p3456
g18
(tRp3457
S'mode'
p3458
(lp3459
(g3452
tp3460
asS'a5/ah'
p3461
(lp3462
(tassS'_2'
p3463
g18
(tRp3464
S'a/attract-01'
p3465
(lp3466
(tassS'_1'
p3467
g18
(tRp3468
S'mod'
p3469
(lp3470
(g3456
tp3471
asS'ARG0-of'
p3472
(lp3473
(g3463
tp3474
asS't2/thing'
p3475
(lp3476
(tassS'_0'
p3477
g18
(tRp3478
S'ARG2'
p3479
(lp3480
(g3467
tp3481
asS'a2/available-02'
p3482
(lp3483
(tass(dp3484
g41
I00
sg42
I9
sg43
(dp3485
g3477
Nssg45
I0
sg46
Nsg47
(dp3486
sg49
(dp3487
g3463
I1
sg3467
I0
ssg51
Nsg52
(dp3488
I0
S'_1'
p3489
sI1
S'_2'
p3490
ssg55
(lp3491
g3477
asg57
(dp3492
sbsS'f'
(lp3493
S'ah'
p3494
aS','
aS'attractions'
p3495
aS'will'
p3496
aS'be'
p3497
aS'available'
p3498
asg63
I0
sg64
I0
sg65
g808
sg67
(lp3499
sg69
Nsg70
(lp3500
sbI1
sg1
(g12
g3
NtRp3501
(dp3502
S'e'
g15
(tRp3503
S'_1'
p3504
g18
(tRp3505
S'interrogative'
p3506
(lp3507
(tassS'_0'
p3508
g18
(tRp3509
S'mode'
p3510
(lp3511
(g3504
tp3512
asg1
(g112
g3
NtRp3513
(dp3514
g115
I0
sg116
S'A1-1'
p3515
sb(lp3516
(tass(dp3517
g41
I00
sg42
I3
sg43
(dp3518
g3508
Nssg45
I0
sg46
Nsg47
(dp3519
sg49
(dp3520
sg51
Nsg52
(dp3521
sg55
(lp3522
g3508
asg57
(dp3523
sbsS'f'
(lp3524
S'[A1-1]'
p3525
aS'?'
asg63
I0
sg64
I0
sg65
g3525
sg67
(lp3526
sg69
Nsg70
(lp3527
sbI1
sg1
(g12
g3
NtRp3528
(dp3529
S'e'
g15
(tRp3530
S'_3'
p3531
g18
(tRp3532
S'b/big'
p3533
(lp3534
(tassS'_2'
p3535
g18
(tRp3536
S'mod'
p3537
(lp3538
(g3531
tp3539
asS'h/hassle-02'
p3540
(lp3541
(tassS'_1'
p3542
g18
(tRp3543
S'ARG0-of'
p3544
(lp3545
(g3535
tp3546
assS'_0'
p3547
g18
(tRp3548
g1
(g112
g3
NtRp3549
(dp3550
g115
I0
sg116
S'A2-01'
p3551
sb(lp3552
(g3542
tp3553
ass(dp3554
g42
I5
sg51
Nsg47
(dp3555
sg57
(dp3556
sg41
I00
sg43
(dp3557
g3547
Nssg45
I0
sg46
Nsg55
(lp3558
g3547
asg49
(dp3559
S'_1'
p3560
I0
ssg52
(dp3561
I0
g3560
ssbsS'f'
(lp3562
g3127
aS','
aS'a'
aS'big'
p3563
aS'hassle'
p3564
asg63
I0
sg64
I0
sg65
g3127
sg67
(lp3565
sg69
Nsg70
(lp3566
sbI-1
sg1
(g12
g3
NtRp3567
(dp3568
S'e'
g15
(tRp3569
S'_4'
p3570
g18
(tRp3571
S'e2/evening'
p3572
(lp3573
(tassS'_3'
p3574
g18
(tRp3575
S'v2/view-01'
p3576
(lp3577
(tasS'time'
p3578
(lp3579
(g3570
tp3580
assS'_2'
p3581
g18
(tRp3582
S'd/darken-01'
p3583
(lp3584
(tassS'_1'
p3585
g18
(tRp3586
S'a/after'
p3587
(lp3588
(tasS'op1'
p3589
(lp3590
(g3581
tp3591
assS'_0'
p3592
g18
(tRp3593
g1
(g112
g3
NtRp3594
(dp3595
g115
I0
sg116
S'A2-10'
p3596
sb(lp3597
(g3574
tp3598
asS'time'
p3599
(lp3600
(g3585
tp3601
ass(dp3602
g42
I8
sg51
Nsg47
(dp3603
sg57
(dp3604
sg41
I00
sg43
(dp3605
g3592
Nssg45
I0
sg46
Nsg55
(lp3606
g3592
asg49
(dp3607
sg52
(dp3608
sbsS'f'
(lp3609
S'After'
p3610
aS'dark'
p3611
aS','
ag2551
aS'evening'
p3612
aS'view'
p3613
asg63
I0
sg64
I0
sg65
g2267
sg67
(lp3614
sg69
Nsg70
(lp3615
sbI-1
sg1
(g12
g3
NtRp3616
(dp3617
S'e'
g15
(tRp3618
S'_3'
p3619
g18
(tRp3620
S't2/tour-01'
p3621
(lp3622
(tassS'_2'
p3623
g18
(tRp3624
S'p/person'
p3625
(lp3626
(tasS'ARG0-of'
p3627
(lp3628
(g3619
tp3629
assS'_1'
p3630
g18
(tRp3631
S'ARG1'
p3632
(lp3633
(g3623
tp3634
asS'a/attract-01'
p3635
(lp3636
(tassS'_0'
p3637
g18
(tRp3638
S'ARG0-of'
p3639
(lp3640
(g3630
tp3641
asS't/thing'
p3642
(lp3643
(tass(dp3644
g42
I7
sg51
Nsg47
(dp3645
sg57
(dp3646
sg41
I00
sg43
(dp3647
g3637
Nssg45
I0
sg46
Nsg55
(lp3648
g3637
asg49
(dp3649
sg52
(dp3650
sbsS'f'
(lp3651
S'tourist'
p3652
aS'attractions'
p3653
asg63
I0
sg64
I0
sg65
g2267
sg67
(lp3654
sg69
Nsg70
(lp3655
sbI-1
sg1
(g12
g3
NtRp3656
(dp3657
S'e'
g15
(tRp3658
S'_4'
p3659
g18
(tRp3660
S'n/new'
p3661
(lp3662
(tassS'_3'
p3663
g18
(tRp3664
S'w/world'
p3665
(lp3666
(tasS'mod'
p3667
(lp3668
(g3659
tp3669
assS'_2'
p3670
g18
(tRp3671
g1
(g112
g3
NtRp3672
(dp3673
g115
I1
sg116
S'A2-10'
p3674
sb(lp3675
(g3663
tp3676
assS'_1'
p3677
g18
(tRp3678
S'i/it'
p3679
(lp3680
(tassS'_0'
p3681
g18
(tRp3682
g1
(g112
g3
NtRp3683
(dp3684
g115
I0
sg116
S'A3-100'
p3685
sb(lp3686
(g3677
g3670
tp3687
ass(dp3688
g42
I6
sg51
Nsg47
(dp3689
sg57
(dp3690
sg41
I00
sg43
(dp3691
g3681
Nssg45
I0
sg46
Nsg55
(lp3692
g3681
asg49
(dp3693
sg52
(dp3694
sbsS'f'
(lp3695
S'It'
p3696
ag315
aS';'
ag703
aS'new'
p3697
aS'worlds'
p3698
asg63
I0
sg64
I0
sg65
g144
sg67
(lp3699
sg69
Nsg70
(lp3700
sbI-1
sg1
(g12
g3
NtRp3701
(dp3702
S'e'
g15
(tRp3703
S'_2'
p3704
g18
(tRp3705
S'c3/city'
p3706
(lp3707
(tassS'_1'
p3708
g18
(tRp3709
sS'_0'
p3710
g18
(tRp3711
S'ARG2'
p3712
(lp3713
(g3708
tp3714
asS'b/blend-01'
p3715
(lp3716
(tasS'location'
p3717
(lp3718
(g3704
tp3719
ass(dp3720
g41
I00
sg42
I4
sg43
(dp3721
g3710
Nssg45
I0
sg46
Nsg47
(dp3722
sg49
(dp3723
g3708
I0
ssg51
Nsg52
(dp3724
I0
S'_1'
p3725
ssg55
(lp3726
g3710
asg57
(dp3727
sbsS'f'
(lp3728
S'city'
p3729
aS"'s"
p3730
aS'blend'
p3731
asg63
I0
sg64
I0
sg65
g66
sg67
(lp3732
sg69
Nsg70
(lp3733
sbI1
sg1
(g12
g3
NtRp3734
(dp3735
S'e'
g15
(tRp3736
S'_2'
p3737
g18
(tRp3738
sS'_1'
p3739
g18
(tRp3740
S'b/before'
p3741
(lp3742
(tasS'op1'
p3743
(lp3744
(g3737
tp3745
assS'_0'
p3746
g18
(tRp3747
S'h3/history'
p3748
(lp3749
(tasS'time'
p3750
(lp3751
(g3739
tp3752
ass(dp3753
g41
I00
sg42
I4
sg43
(dp3754
g3746
Nssg45
I0
sg46
Nsg47
(dp3755
sg49
(dp3756
g3737
I1
sg3739
I0
ssg51
Nsg52
(dp3757
I0
S'_1'
p3758
sI1
S'_2'
p3759
ssg55
(lp3760
g3746
asg57
(dp3761
sbsS'f'
(lp3762
S'history'
p3763
asg63
I0
sg64
I0
sg65
g756
sg67
(lp3764
sg69
Nsg70
(lp3765
sbI1
sg1
(g12
g3
NtRp3766
(dp3767
S'e'
g15
(tRp3768
S'_4'
p3769
g18
(tRp3770
S'expressive'
p3771
(lp3772
(tassS'_3'
p3773
g18
(tRp3774
S'e/er'
p3775
(lp3776
(tasS'mode'
p3777
(lp3778
(g3769
tp3779
assS'_2'
p3780
g18
(tRp3781
S'f/fascinate-01'
p3782
(lp3783
(tasS'mod'
p3784
(lp3785
(g3773
tp3786
assS'_1'
p3787
g18
(tRp3788
S'ARG0-of'
p3789
(lp3790
(g3780
tp3791
assS'_0'
p3792
g18
(tRp3793
g1
(g112
g3
NtRp3794
(dp3795
g115
I0
sg116
S'A2-10'
p3796
sb(lp3797
(g3787
tp3798
ass(dp3799
g42
I7
sg51
Nsg47
(dp3800
sg57
(dp3801
sg41
I00
sg43
(dp3802
g3792
Nssg45
I0
sg46
Nsg55
(lp3803
g3792
asg49
(dp3804
S'_1'
p3805
I0
ssg52
(dp3806
I0
g3805
ssbsS'f'
(lp3807
g703
aS','
aS'er'
p3808
aS','
aS'and'
p3809
aS'fascinating'
p3810
asg63
I0
sg64
I0
sg65
g703
sg67
(lp3811
sg69
Nsg70
(lp3812
sbI-1
sg1
(g12
g3
NtRp3813
(dp3814
S'e'
g15
(tRp3815
S'_6'
p3816
g18
(tRp3817
S'n/new'
p3818
(lp3819
(tassS'_5'
p3820
g18
(tRp3821
S'w/world'
p3822
(lp3823
(tasS'mod'
p3824
(lp3825
(g3816
tp3826
assS'_4'
p3827
g18
(tRp3828
g1
(g112
g3
NtRp3829
(dp3830
g115
I0
sg116
S'A2-10'
p3831
sb(lp3832
(g3820
tp3833
assS'_3'
p3834
g18
(tRp3835
S'ARG0'
p3836
(lp3837
(S'_2'
tp3838
asS'e/explore-01'
p3839
(lp3840
(tassS'_2'
p3841
g18
(tRp3842
S'i/it'
p3843
(lp3844
(tassS'_1'
p3845
g18
(tRp3846
S'ARG0'
p3847
(lp3848
(g3841
tp3849
asS'ARG1'
p3850
(lp3851
(g3834
tp3852
asS'c/continue-01'
p3853
(lp3854
(tassS'_0'
p3855
g18
(tRp3856
S'snt2'
p3857
(lp3858
(g3827
tp3859
asS'snt1'
p3860
(lp3861
(g3845
tp3862
asS'm/multi-sentence'
p3863
(lp3864
(tass(dp3865
g41
I00
sg42
I13
sg43
(dp3866
g3855
Nssg45
I0
sg46
Nsg47
(dp3867
sg49
(dp3868
sg51
Nsg52
(dp3869
sg55
(lp3870
g3855
asg57
(dp3871
sbsS'f'
(lp3872
S'It'
p3873
aS'continues'
p3874
aS'to'
p3875
aS'explore'
p3876
aS';'
ag66
aS'new'
p3877
aS'worlds'
p3878
asg63
I0
sg64
I0
sg65
g575
sg67
(lp3879
sg69
Nsg70
(lp3880
sbI1
sg1
(g12
g3
NtRp3881
(dp3882
S'e'
g15
(tRp3883
S'_2'
p3884
g18
(tRp3885
sS'_1'
p3886
g18
(tRp3887
sS'_0'
p3888
g18
(tRp3889
S'a/and'
p3890
(lp3891
(tasS'op1'
p3892
(lp3893
(g3886
tp3894
asS'op2'
p3895
(lp3896
(g3884
tp3897
ass(dp3898
g41
I00
sg42
I3
sg43
(dp3899
sg45
I0
sg46
(dp3900
(S'_0'
p3901
g3892
g3894
tp3902
I0
s(g3901
g3895
g3897
tp3903
I0
s(g3901
g3890
(ttp3904
I0
ssg47
(dp3905
sg49
(dp3906
g3884
I1
sg3886
I0
ssg51
(lp3907
g3904
ag3902
ag3903
asg52
(dp3908
I0
g3886
sI1
g3884
ssg55
(lp3909
g3901
asg57
(dp3910
sbsS'f'
(lp3911
S'and'
p3912
asg63
I0
sg64
I0
sg65
S'[A3-100]'
p3913
sg67
(lp3914
sg69
Nsg70
(lp3915
F1
aF0
aF0
asbI-1
sg1
(g12
g3
NtRp3916
(dp3917
S'e'
g15
(tRp3918
S'_3'
p3919
g18
(tRp3920
S't3/tourism'
p3921
(lp3922
(tassS'_2'
p3923
g18
(tRp3924
S'ARG2'
p3925
(lp3926
(g3919
tp3927
asS'p/popular-02'
p3928
(lp3929
(tassS'_1'
p3930
g18
(tRp3931
g1
(g112
g3
NtRp3932
(dp3933
g115
I0
sg116
S'A1-1'
p3934
sb(lp3935
(tassS'_0'
p3936
g18
(tRp3937
S's/spot'
p3938
(lp3939
(tasS'ARG1-of'
p3940
(lp3941
(g3923
tp3942
asS'location'
p3943
(lp3944
(g3930
tp3945
ass(dp3946
g42
I7
sg51
Nsg47
(dp3947
sg57
(dp3948
sg41
I00
sg43
(dp3949
g3936
Nssg45
I0
sg46
Nsg55
(lp3950
g3936
asg49
(dp3951
sg52
(dp3952
sbsS'f'
(lp3953
g144
aS'tourism'
p3954
aS'popular'
p3955
aS'spot'
p3956
asg63
I0
sg64
I0
sg65
g144
sg67
(lp3957
sg69
Nsg70
(lp3958
sbI-1
sg1
(g12
g3
NtRp3959
(dp3960
S'e'
g15
(tRp3961
S'_2'
p3962
g18
(tRp3963
S't/then'
p3964
(lp3965
(tassS'_1'
p3966
g18
(tRp3967
g1
(g112
g3
NtRp3968
(dp3969
g115
I0
sg116
S'A1-1'
p3970
sb(lp3971
(tassS'_0'
p3972
g18
(tRp3973
S'ARG2'
p3974
(lp3975
(g3966
tp3976
asS'w/welcome-01'
p3977
(lp3978
(tasS'mod'
p3979
(lp3980
(g3962
tp3981
ass(dp3982
g42
I5
sg51
Nsg47
(dp3983
sg57
(dp3984
sg41
I00
sg43
(dp3985
g3972
Nssg45
I0
sg46
Nsg55
(lp3986
g3972
asg49
(dp3987
sg52
(dp3988
sbsS'f'
(lp3989
S'Then'
p3990
aS'welcome'
p3991
aS'to'
p3992
aS'the'
p3993
ag144
asg63
I0
sg64
I0
sg65
g144
sg67
(lp3994
sg69
Nsg70
(lp3995
sbI-1
sg1
(g12
g3
NtRp3996
(dp3997
S'e'
g15
(tRp3998
S'_3'
p3999
g18
(tRp4000
sS'_2'
p4001
g18
(tRp4002
S'h2/hardware'
p4003
(lp4004
(tassS'_1'
p4005
g18
(tRp4006
S'a/and'
p4007
(lp4008
(tasS'op1'
p4009
(lp4010
(g4001
tp4011
asS'op2'
p4012
(lp4013
(g3999
tp4014
assS'_0'
p4015
g18
(tRp4016
S'domain'
p4017
(lp4018
(g4005
tp4019
asS'v/variety'
p4020
(lp4021
(tass(dp4022
g41
I00
sg42
I6
sg43
(dp4023
g4015
Nssg45
I0
sg46
Nsg47
(dp4024
sg49
(dp4025
g3999
I0
ssg51
Nsg52
(dp4026
I0
S'_3'
p4027
ssg55
(lp4028
g4015
asg57
(dp4029
sbsS'f'
(lp4030
S'variety'
p4031
aS'of'
p4032
aS'hardware'
p4033
aS'and'
p4034
asg63
I0
sg64
I0
sg65
g66
sg67
(lp4035
sg69
Nsg70
(lp4036
sbI1
sg1
(g12
g3
NtRp4037
(dp4038
S'e'
g15
(tRp4039
S'_5'
p4040
g18
(tRp4041
sS'_4'
p4042
g18
(tRp4043
S'r/reflect-01'
p4044
(lp4045
(tasS'ARG1'
p4046
(lp4047
(S'_1'
tp4048
asS'ARG2'
p4049
(lp4050
(S'_1'
tp4051
assS'_3'
p4052
g18
(tRp4053
g1
(g112
g3
NtRp4054
(dp4055
g115
I1
sg116
S'A3-100'
p4056
sb(lp4057
(g4042
g4040
tp4058
assS'_2'
p4059
g18
(tRp4060
sS'_1'
p4061
g18
(tRp4062
sS'_0'
p4063
g18
(tRp4064
g1
(g112
g3
NtRp4065
(dp4066
g115
I0
sg116
S'A4-1100'
p4067
sb(lp4068
(g4061
g4059
g4052
tp4069
ass(dp4070
g41
I00
sg42
I5
sg43
(dp4071
g4063
Nssg45
I0
sg46
Nsg47
(dp4072
sg49
(dp4073
S'_5'
p4074
I2
sS'_2'
p4075
I1
sS'_1'
p4076
I0
ssg51
Nsg52
(dp4077
I0
S'_1'
p4078
sI1
g4075
sI2
g4074
ssg55
(lp4079
g4063
asg57
(dp4080
sbsS'f'
(lp4081
S'[A4-1100]'
p4082
aS'reflect'
p4083
aS'each'
p4084
aS'other'
p4085
ag2167
asg63
I0
sg64
I0
sg65
g4082
sg67
(lp4086
sg69
Nsg70
(lp4087
sbI1
sg1
(g12
g3
NtRp4088
(dp4089
S'e'
g15
(tRp4090
S'_5'
p4091
g18
(tRp4092
S't/tour-01'
p4093
(lp4094
(tassS'_4'
p4095
g18
(tRp4096
S'p/person'
p4097
(lp4098
(tasS'ARG0-of'
p4099
(lp4100
(g4091
tp4101
assS'_3'
p4102
g18
(tRp4103
S'ARG1'
p4104
(lp4105
(g4095
tp4106
assS'_2'
p4107
g18
(tRp4108
S'a4/add-02'
p4109
(lp4110
(tassS'_1'
p4111
g18
(tRp4112
S'ARG1-of'
p4113
(lp4114
(g4107
tp4115
assS'_0'
p4116
g18
(tRp4117
S'ARG1'
p4118
(lp4119
(S'_4'
tp4120
asg1
(g112
g3
NtRp4121
(dp4122
g115
I0
sg116
S'A3-111'
p4123
sb(lp4124
(g4111
g4102
tp4125
ass(dp4126
g42
I8
sg51
Nsg47
(dp4127
sg57
(dp4128
sg41
I00
sg43
(dp4129
g4116
Nssg45
I0
sg46
Nsg55
(lp4130
g4116
asg49
(dp4131
sg52
(dp4132
sbsS'f'
(lp4133
S'additional'
p4134
aS','
ag269
aS'for'
p4135
aS'tourists'
p4136
asg63
I0
sg64
I0
sg65
g144
sg67
(lp4137
sg69
Nsg70
(lp4138
sbI-1
sg1
(g12
g3
NtRp4139
(dp4140
S'e'
g15
(tRp4141
S'_5'
p4142
g18
(tRp4143
sS'_4'
p4144
g18
(tRp4145
S'op1'
p4146
(lp4147
(g4142
tp4148
asS'b/by'
p4149
(lp4150
(tassS'_3'
p4151
g18
(tRp4152
S'p/park'
p4153
(lp4154
(tassS'_2'
p4155
g18
(tRp4156
g1
(g112
g3
NtRp4157
(dp4158
g115
I0
sg116
S'A2-10'
p4159
sb(lp4160
(g4151
tp4161
assS'_1'
p4162
g18
(tRp4163
sS'_0'
p4164
g18
(tRp4165
S'c/complete-01'
p4166
(lp4167
(tasS'ARG0'
p4168
(lp4169
(g4162
tp4170
asS'time'
p4171
(lp4172
(g4144
tp4173
asS'ARG1'
p4174
(lp4175
(g4155
tp4176
ass(dp4177
g41
I00
sg42
I8
sg43
(dp4178
g4164
Nssg45
I0
sg46
Nsg47
(dp4179
sg49
(dp4180
g4142
I2
sS'_3'
p4181
I1
sg4162
I0
ssg51
Nsg52
(dp4182
I0
S'_1'
p4183
sI1
g4181
sI2
S'_5'
p4184
ssg55
(lp4185
g4164
asg57
(dp4186
sbsS'f'
(lp4187
S'complete'
p4188
aS'the'
p4189
aS'park'
p4190
ag66
aS'by'
p4191
asg63
I0
sg64
I0
sg65
S'[A4-1010]'
p4192
sg67
(lp4193
sg69
Nsg70
(lp4194
sbI1
sg1
(g12
g3
NtRp4195
(dp4196
S'e'
g15
(tRp4197
S'_6'
p4198
g18
(tRp4199
sS'_5'
p4200
g18
(tRp4201
S'm2/many'
p4202
(lp4203
(tassS'_4'
p4204
g18
(tRp4205
g1
(g112
g3
NtRp4206
(dp4207
g115
I1
sg116
S'A1-1'
p4208
sb(lp4209
(tasS'quant'
p4210
(lp4211
(g4200
tp4212
assS'_3'
p4213
g18
(tRp4214
S'-'
(lp4215
(tassS'_2'
p4216
g18
(tRp4217
S'polarity'
p4218
(lp4219
(g4213
tp4220
asS'e/ever'
p4221
(lp4222
(tassS'_1'
p4223
g18
(tRp4224
S's2/see-01'
p4225
(lp4226
(tasS'ARG0'
p4227
(lp4228
(g4204
tp4229
asS'time'
p4230
(lp4231
(g4216
tp4232
asS'ARG1'
p4233
(lp4234
(g4198
tp4235
assS'_0'
p4236
g18
(tRp4237
g1
(g112
g3
NtRp4238
(dp4239
g115
I0
sg116
S'A2-10'
p4240
sb(lp4241
(g4223
tp4242
ass(dp4243
g42
I11
sg51
Nsg47
(dp4244
sg57
(dp4245
sg41
I00
sg43
(dp4246
g4236
Nssg45
I0
sg46
Nsg55
(lp4247
g4236
asg49
(dp4248
g4198
I0
ssg52
(dp4249
I0
S'_6'
p4250
ssbsS'f'
(lp4251
g703
aS'%pw'
p4252
aS'many'
p4253
ag144
aS'have'
p4254
aS'never'
p4255
aS'seen'
p4256
asg63
I0
sg64
I0
sg65
g703
sg67
(lp4257
sg69
Nsg70
(lp4258
sbI-1
sg1
(g12
g3
NtRp4259
(dp4260
S'e'
g15
(tRp4261
S'_6'
p4262
g18
(tRp4263
S'w2/wildlife'
p4264
(lp4265
(tassS'_5'
p4266
g18
(tRp4267
g1
(g112
g3
NtRp4268
(dp4269
g115
I1
sg116
S'A1-1'
p4270
sb(lp4271
(tassS'_4'
p4272
g18
(tRp4273
S'b/border-01'
p4274
(lp4275
(tasS'ARG2'
p4276
(lp4277
(g4266
tp4278
assS'_3'
p4279
g18
(tRp4280
S'ARG1-of'
p4281
(lp4282
(g4272
tp4283
asg1
(g112
g3
NtRp4284
(dp4285
g115
I0
sg116
S'A1-1'
p4286
sb(lp4287
(tassS'_2'
p4288
g18
(tRp4289
S'm/major-02'
p4290
(lp4291
(tassS'_1'
p4292
g18
(tRp4293
g1
(g112
g3
NtRp4294
(dp4295
g115
I2
sg116
S'A1-1'
p4296
sb(lp4297
(tassS'_0'
p4298
g18
(tRp4299
S'h/habitat'
p4300
(lp4301
(tasS'ARG1-of'
p4302
(lp4303
(g4288
tp4304
asS'location'
p4305
(lp4306
(g4292
tp4307
asS'domain'
p4308
(lp4309
(g4279
tp4310
asS'mod'
p4311
(lp4312
(g4262
tp4313
ass(dp4314
g42
I13
sg51
Nsg47
(dp4315
sg57
(dp4316
sg41
I00
sg43
(dp4317
g4298
Nssg45
I0
sg46
Nsg55
(lp4318
g4298
asg49
(dp4319
sg52
(dp4320
sbsS'f'
(lp4321
g144
aS'adjacent'
p4322
aS'to'
p4323
ag144
aS'is'
p4324
aS'a'
aS'major'
p4325
aS'wildlife'
p4326
aS'habitat'
p4327
aS'within'
p4328
ag144
asg63
I0
sg64
I0
sg65
g144
sg67
(lp4329
sg69
Nsg70
(lp4330
sbI-1
sg1
(g12
g3
NtRp4331
(dp4332
S'e'
g15
(tRp4333
S'_6'
p4334
g18
(tRp4335
S'"Bridge"'
p4336
(lp4337
(tassS'_5'
p4338
g18
(tRp4339
S'"Macao"'
p4340
(lp4341
(tassS'_4'
p4342
g18
(tRp4343
S'"Hong-Kong"'
p4344
(lp4345
(tassS'_3'
p4346
g18
(tRp4347
S'"Zhuhai"'
p4348
(lp4349
(tassS'_2'
p4350
g18
(tRp4351
S'op4'
p4352
(lp4353
(g4334
tp4354
asS'n3/name'
p4355
(lp4356
(tasS'op1'
p4357
(lp4358
(g4346
tp4359
asS'op2'
p4360
(lp4361
(g4342
tp4362
asS'op3'
p4363
(lp4364
(g4338
tp4365
assS'_1'
p4366
g18
(tRp4367
S'"Hong_Kong\xe2\x80\x93Zhuhai\xe2\x80\x93Macau_Bridge"'
p4368
(lp4369
(tassS'_0'
p4370
g18
(tRp4371
S'wiki'
p4372
(lp4373
(g4366
tp4374
asS'name'
p4375
(lp4376
(g4350
tp4377
asS'b3/bridge'
p4378
(lp4379
(tass(dp4380
g42
I13
sg51
Nsg47
(dp4381
sg57
(dp4382
sg41
I00
sg43
(dp4383
sg45
I0
sg46
Nsg55
(lp4384
S'_0'
p4385
asg49
(dp4386
sg52
(dp4387
sbsS'f'
(lp4388
S'Zhuhai'
p4389
aS'-'
aS'Hong'
p4390
aS'Kong'
p4391
aS'-'
aS'Macao'
p4392
aS'bridge'
p4393
asg63
I0
sg64
I0
sg65
S'[A1-1]'
p4394
sg67
(lp4395
sg69
Nsg70
(lp4396
sbI-1
sg1
(g12
g3
NtRp4397
(dp4398
S'e'
g15
(tRp4399
S'_5'
p4400
g18
(tRp4401
S'e3/entire'
p4402
(lp4403
(tassS'_4'
p4404
g18
(tRp4405
S't/this'
p4406
(lp4407
(tassS'_3'
p4408
g18
(tRp4409
S'2006'
p4410
(lp4411
(tassS'_2'
p4412
g18
(tRp4413
S'd3/date-entity'
p4414
(lp4415
(tasS'year'
p4416
(lp4417
(g4408
tp4418
assS'_1'
p4419
g18
(tRp4420
g1
(g112
g3
NtRp4421
(dp4422
g115
I1
sg116
S'A1-1'
p4423
sb(lp4424
(tasS'mod'
p4425
(lp4426
(g4404
tp4427
a(g4400
tp4428
asS'time'
p4429
(lp4430
(g4412
tp4431
assS'_0'
p4432
g18
(tRp4433
g1
(g112
g3
NtRp4434
(dp4435
g115
I0
sg116
S'A2-10'
p4436
sb(lp4437
(g4419
tp4438
ass(dp4439
g41
I00
sg42
I10
sg43
(dp4440
g4432
Nssg45
I0
sg46
Nsg47
(dp4441
sg49
(dp4442
sg51
Nsg52
(dp4443
sg55
(lp4444
g4432
asg57
(dp4445
sbsS'f'
(lp4446
g66
aS'this'
p4447
aS'entire'
p4448
aS'2006'
p4449
ag575
asg63
I0
sg64
I0
sg65
g575
sg67
(lp4450
sg69
Nsg70
(lp4451
sbI1
sg1
(g12
g3
NtRp4452
(dp4453
S'e'
g15
(tRp4454
S'_4'
p4455
g18
(tRp4456
sS'_3'
p4457
g18
(tRp4458
S's3/several'
p4459
(lp4460
(tasS'op1'
p4461
(lp4462
(g4455
tp4463
assS'_2'
p4464
g18
(tRp4465
S'a3/after'
p4466
(lp4467
(tasS'op1'
p4468
(lp4469
(g4457
tp4470
assS'_1'
p4471
g18
(tRp4472
g1
(g112
g3
NtRp4473
(dp4474
g115
I0
sg116
S'A1-1'
p4475
sb(lp4476
(tasS'time'
p4477
(lp4478
(g4464
tp4479
assS'_0'
p4480
g18
(tRp4481
S'ARG1'
p4482
(lp4483
(g4471
tp4484
asS's/seem-01'
p4485
(lp4486
(tass(dp4487
g41
I00
sg42
I8
sg43
(dp4488
g4480
Nssg45
I0
sg46
Nsg47
(dp4489
sg49
(dp4490
g4455
I0
ssg51
Nsg52
(dp4491
I0
S'_4'
p4492
ssg55
(lp4493
g4480
asg57
(dp4494
sbsS'f'
(lp4495
S'seems'
p4496
aS'that'
p4497
aS'those'
p4498
ag575
aS'after'
p4499
aS'several'
p4500
asg63
I0
sg64
I0
sg65
g66
sg67
(lp4501
sg69
Nsg70
(lp4502
sbI1
sg1
(g12
g3
NtRp4503
(dp4504
S'e'
g15
(tRp4505
S'_6'
p4506
g18
(tRp4507
S'o2/only'
p4508
(lp4509
(tassS'_5'
p4510
g18
(tRp4511
S'm/month'
p4512
(lp4513
(tassS'_4'
p4514
g18
(tRp4515
S'1'
(lp4516
(tassS'_3'
p4517
g18
(tRp4518
S'quant'
p4519
(lp4520
(g4514
tp4521
asS'unit'
p4522
(lp4523
(g4510
tp4524
asS't/temporal-quantity'
p4525
(lp4526
(tasS'mod'
p4527
(lp4528
(g4506
tp4529
assS'_2'
p4530
g18
(tRp4531
sS'_1'
p4532
g18
(tRp4533
g1
(g112
g3
NtRp4534
(dp4535
g115
I0
sg116
S'A2-11'
p4536
sb(lp4537
(g4530
tp4538
assS'_0'
p4539
g18
(tRp4540
S'ARG1'
p4541
(lp4542
(g4517
tp4543
asS'l/leave-17'
p4544
(lp4545
(tasS'time'
p4546
(lp4547
(g4532
tp4548
ass(dp4549
g41
I00
sg42
I11
sg43
(dp4550
g4539
Nssg45
I0
sg46
Nsg47
(dp4551
sg49
(dp4552
S'_2'
p4553
I0
ssg51
Nsg52
(dp4554
I0
g4553
ssg55
(lp4555
g4539
asg57
(dp4556
sbsS'f'
(lp4557
S'only'
p4558
aS'one'
p4559
aS'month'
p4560
aS'left'
p4561
ag212
asg63
I0
sg64
I0
sg65
g212
sg67
(lp4562
sg69
Nsg70
(lp4563
sbI1
sg1
(g12
g3
NtRp4564
(dp4565
S'e'
g15
(tRp4566
S'_3'
p4567
g18
(tRp4568
S'h/here'
p4569
(lp4570
(tassS'_2'
p4571
g18
(tRp4572
S't/this'
p4573
(lp4574
(tassS'_1'
p4575
g18
(tRp4576
S'mod'
p4577
(lp4578
(g4571
tp4579
assS'_0'
p4580
g18
(tRp4581
S's/settle-03'
p4582
(lp4583
(tasS'ARG1'
p4584
(lp4585
(g4575
tp4586
asS'ARG4'
p4587
(lp4588
(g4567
tp4589
ass(dp4590
g42
I6
sg51
Nsg47
(dp4591
sg57
(dp4592
sg41
I00
sg43
(dp4593
g4580
Nssg45
I0
sg46
Nsg55
(lp4594
g4580
asg49
(dp4595
g4575
I0
ssg52
(dp4596
I0
S'_1'
p4597
ssbsS'f'
(lp4598
S'settle'
p4599
aS'here'
p4600
aS'was'
p4601
aS'this'
p4602
asg63
I0
sg64
I0
sg65
g2551
sg67
(lp4603
sg69
Nsg70
(lp4604
sbI-1
sg1
(g12
g3
NtRp4605
(dp4606
S'e'
g15
(tRp4607
S'_6'
p4608
g18
(tRp4609
S'a4/also'
p4610
(lp4611
(tassS'_5'
p4612
g18
(tRp4613
g1
(g112
g3
NtRp4614
(dp4615
g115
I0
sg116
S'A1-1'
p4616
sb(lp4617
(tassS'_4'
p4618
g18
(tRp4619
sS'_3'
p4620
g18
(tRp4621
S's3/several'
p4622
(lp4623
(tasS'op1'
p4624
(lp4625
(g4618
tp4626
assS'_2'
p4627
g18
(tRp4628
S'a3/after'
p4629
(lp4630
(tasS'op1'
p4631
(lp4632
(g4620
tp4633
assS'_1'
p4634
g18
(tRp4635
S'ARG1'
p4636
(lp4637
(g4612
tp4638
asS'time'
p4639
(lp4640
(g4627
tp4641
asS'r/renovate-01'
p4642
(lp4643
(tasS'mod'
p4644
(lp4645
(g4608
tp4646
assS'_0'
p4647
g18
(tRp4648
S'ARG1'
p4649
(lp4650
(g4634
tp4651
asS's/seem-01'
p4652
(lp4653
(tass(dp4654
g42
I12
sg51
Nsg47
(dp4655
sg57
(dp4656
sg41
I00
sg43
(dp4657
g4647
Nssg45
I0
sg46
Nsg55
(lp4658
g4647
asg49
(dp4659
g4618
I0
ssg52
(dp4660
I0
S'_4'
p4661
ssbsS'f'
(lp4662
S'seems'
p4663
aS'that'
p4664
aS'those'
p4665
ag144
aS'will'
p4666
aS'also'
p4667
aS'be'
p4668
aS'renovated'
p4669
aS'after'
p4670
aS'several'
p4671
asg63
I0
sg64
I0
sg65
g703
sg67
(lp4672
sg69
Nsg70
(lp4673
sbI-1
sg1
(g12
g3
NtRp4674
(dp4675
S'e'
g15
(tRp4676
S'_5'
p4677
g18
(tRp4678
g1
(g112
g3
NtRp4679
(dp4680
g115
I0
sg116
S'A1-1'
p4681
sb(lp4682
(tassS'_4'
p4683
g18
(tRp4684
S'l/land'
p4685
(lp4686
(tasS'mod'
p4687
(lp4688
(g4677
tp4689
assS'_3'
p4690
g18
(tRp4691
S'1'
(lp4692
(tassS'_2'
p4693
g18
(tRp4694
S'o/ordinal-entity'
p4695
(lp4696
(tasS'value'
p4697
(lp4698
(g4690
tp4699
assS'_1'
p4700
g18
(tRp4701
S's/settle-03'
p4702
(lp4703
(tasS'ord'
p4704
(lp4705
(g4693
tp4706
asS'ARG4'
p4707
(lp4708
(g4683
tp4709
assS'_0'
p4710
g18
(tRp4711
S'ARG1-of'
p4712
(lp4713
(g4700
tp4714
asS'h/home'
p4715
(lp4716
(tass(dp4717
g41
I00
sg42
I11
sg43
(dp4718
g4710
Nssg45
I0
sg46
Nsg47
(dp4719
sg49
(dp4720
sg51
Nsg52
(dp4721
sg55
(lp4722
g4710
asg57
(dp4723
sbsS'f'
(lp4724
S'home'
p4725
aS','
aS'settling'
p4726
aS'on'
p4727
ag575
aS'land'
p4728
aS'for'
p4729
aS'the'
p4730
aS'first'
p4731
asg63
I0
sg64
I0
sg65
g575
sg67
(lp4732
sg69
Nsg70
(lp4733
sbI1
sg1
(g12
g3
NtRp4734
(dp4735
S'e'
g15
(tRp4736
S'_4'
p4737
g18
(tRp4738
sS'_3'
p4739
g18
(tRp4740
S'ARG0'
p4741
(lp4742
(S'_2'
tp4743
asS'e/explore-01'
p4744
(lp4745
(tassS'_2'
p4746
g18
(tRp4747
sS'_1'
p4748
g18
(tRp4749
S'ARG0'
p4750
(lp4751
(g4746
tp4752
asS'ARG1'
p4753
(lp4754
(g4739
tp4755
asS'c/continue-01'
p4756
(lp4757
(tassS'_0'
p4758
g18
(tRp4759
S'snt2'
p4760
(lp4761
(g4737
tp4762
asS'snt1'
p4763
(lp4764
(g4748
tp4765
asS'm/multi-sentence'
p4766
(lp4767
(tass(dp4768
g42
I8
sg51
Nsg47
(dp4769
sg57
(dp4770
sg41
I00
sg43
(dp4771
g4758
Nssg45
I0
sg46
Nsg55
(lp4772
g4758
asg49
(dp4773
g4737
I1
sg4746
I0
ssg52
(dp4774
I0
S'_2'
p4775
sI1
S'_4'
p4776
ssbsS'f'
(lp4777
S'continues'
p4778
aS'to'
p4779
aS'explore'
p4780
asg63
I0
sg64
I0
sg65
S'[A3-100]'
p4781
sg67
(lp4782
sg69
Nsg70
(lp4783
sbI-1
sg1
(g12
g3
NtRp4784
(dp4785
S'e'
g15
(tRp4786
S'_4'
p4787
g18
(tRp4788
S'n3/new'
p4789
(lp4790
(tassS'_3'
p4791
g18
(tRp4792
S't3/tourism'
p4793
(lp4794
(tassS'_2'
p4795
g18
(tRp4796
S'ARG2'
p4797
(lp4798
(g4791
tp4799
asS'p/popular-02'
p4800
(lp4801
(tassS'_1'
p4802
g18
(tRp4803
g1
(g112
g3
NtRp4804
(dp4805
g115
I0
sg116
S'A1-1'
p4806
sb(lp4807
(tassS'_0'
p4808
g18
(tRp4809
S'ARG1-of'
p4810
(lp4811
(g4795
tp4812
asS'location'
p4813
(lp4814
(g4802
tp4815
asS'mod'
p4816
(lp4817
(g4787
tp4818
ass(dp4819
g41
I00
sg42
I8
sg43
(dp4820
g4808
Nssg45
I0
sg46
Nsg47
(dp4821
sg49
(dp4822
sg51
Nsg52
(dp4823
sg55
(lp4824
g4808
asg57
(dp4825
sbsS'f'
(lp4826
S'new'
p4827
ag575
aS'tourism'
p4828
aS'popular'
p4829
asg63
I0
sg64
I0
sg65
g1710
sg67
(lp4830
sg69
Nsg70
(lp4831
sbI1
sg1
(g12
g3
NtRp4832
(dp4833
S'e'
g15
(tRp4834
S'_4'
p4835
g18
(tRp4836
S'interrogative'
p4837
(lp4838
(tassS'_3'
p4839
g18
(tRp4840
S'e2/er'
p4841
(lp4842
(tasS'mode'
p4843
(lp4844
(g4835
tp4845
assS'_2'
p4846
g18
(tRp4847
S'e/each'
p4848
(lp4849
(tassS'_1'
p4850
g18
(tRp4851
S'mod'
p4852
(lp4853
(g4846
tp4854
assS'_0'
p4855
g18
(tRp4856
g1
(g112
g3
NtRp4857
(dp4858
g115
I0
sg116
S'A2-11'
p4859
sb(lp4860
(g4850
tp4861
asS'mod'
p4862
(lp4863
(g4839
tp4864
ass(dp4865
g41
I00
sg42
I7
sg43
(dp4866
g4855
Nssg45
I0
sg46
Nsg47
(dp4867
sg49
(dp4868
sg51
Nsg52
(dp4869
sg55
(lp4870
g4855
asg57
(dp4871
sbsS'f'
(lp4872
S'Er'
p4873
aS','
aS'each'
p4874
ag212
asg63
I0
sg64
I0
sg65
g575
sg67
(lp4875
sg69
Nsg70
(lp4876
sbI1
sg1
(g12
g3
NtRp4877
(dp4878
S'e'
g15
(tRp4879
S'_7'
p4880
g18
(tRp4881
S'm2/more'
p4882
(lp4883
(tassS'_6'
p4884
g18
(tRp4885
S'1'
(lp4886
(tassS'_5'
p4887
g18
(tRp4888
S'j/just'
p4889
(lp4890
(tassS'_4'
p4891
g18
(tRp4892
S'h2/hour'
p4893
(lp4894
(tassS'_3'
p4895
g18
(tRp4896
S't2/temporal-quantity'
p4897
(lp4898
(tasS'quant'
p4899
(lp4900
(g4884
tp4901
asS'unit'
p4902
(lp4903
(g4891
tp4904
asS'mod'
p4905
(lp4906
(g4887
tp4907
assS'_2'
p4908
g18
(tRp4909
S'l/late'
p4910
(lp4911
(tasS'op1'
p4912
(lp4913
(g4895
tp4914
asS'degree'
p4915
(lp4916
(g4880
tp4917
assS'_1'
p4918
g18
(tRp4919
S'time'
p4920
(lp4921
(g4908
tp4922
assS'_0'
p4923
g18
(tRp4924
g1
(g112
g3
NtRp4925
(dp4926
g115
I0
sg116
S'A2-11'
p4927
sb(lp4928
(g4918
tp4929
ass(dp4930
g42
I13
sg51
Nsg47
(dp4931
sg57
(dp4932
sg41
I00
sg43
(dp4933
g4923
Nssg45
I0
sg46
Nsg55
(lp4934
g4923
asg49
(dp4935
sg52
(dp4936
sbsS'f'
(lp4937
S'[A2-11]'
p4938
aS'just'
p4939
aS'an'
p4940
aS'hour'
p4941
aS'later'
p4942
asg63
I0
sg64
I0
sg65
S'[A1-1]'
p4943
sg67
(lp4944
sg69
Nsg70
(lp4945
sbI-1
sg1
(g12
g3
NtRp4946
(dp4947
S'e'
g15
(tRp4948
S'_2'
p4949
g18
(tRp4950
S'o4/old'
p4951
(lp4952
(tassS'_1'
p4953
g18
(tRp4954
S'm/modern-02'
p4955
(lp4956
(tassS'_0'
p4957
g18
(tRp4958
S'ARG1'
p4959
(lp4960
(g4949
tp4961
asg1
(g112
g3
NtRp4962
(dp4963
g115
I0
sg116
S'A2-10'
p4964
sb(lp4965
(g4953
tp4966
ass(dp4967
g41
I00
sg42
I4
sg43
(dp4968
g4957
Nssg45
I0
sg46
Nsg47
(dp4969
sg49
(dp4970
sg51
Nsg52
(dp4971
sg55
(lp4972
g4957
asg57
(dp4973
sbsS'f'
(lp4974
g66
aS'of'
p4975
aS'the'
p4976
aS'old'
p4977
aS'and'
p4978
aS'the'
p4979
aS'modern'
p4980
asg63
I0
sg64
I0
sg65
g575
sg67
(lp4981
sg69
Nsg70
(lp4982
sbI1
sg1
(g12
g3
NtRp4983
(dp4984
S'e'
g15
(tRp4985
S'_7'
p4986
g18
(tRp4987
sS'_6'
p4988
g18
(tRp4989
g1
(g112
g3
NtRp4990
(dp4991
g115
I0
sg116
S'A1-1'
p4992
sb(lp4993
(tassS'_5'
p4994
g18
(tRp4995
S'mod'
p4996
(lp4997
(g4988
tp4998
assS'_4'
p4999
g18
(tRp5000
S'f/film-01'
p5001
(lp5002
(tassS'_3'
p5003
g18
(tRp5004
S'n3/now'
p5005
(lp5006
(tassS'_2'
p5007
g18
(tRp5008
S'b/before'
p5009
(lp5010
(tasS'op1'
p5011
(lp5012
(g5003
tp5013
assS'_1'
p5014
g18
(tRp5015
S'time'
p5016
(lp5017
(g5007
tp5018
asS'h3/history'
p5019
(lp5020
(tasS'mod'
p5021
(lp5022
(g4999
tp5023
assS'_0'
p5024
g18
(tRp5025
S'subevent'
p5026
(lp5027
(g5014
tp5028
asg1
(g112
g3
NtRp5029
(dp5030
g115
I1
sg116
S'A3-110'
p5031
sb(lp5032
(g4994
g4986
tp5033
ass(dp5034
g42
I11
sg51
Nsg47
(dp5035
sg57
(dp5036
sg41
I00
sg43
(dp5037
g5024
Nssg45
I0
sg46
Nsg55
(lp5038
g5024
asg49
(dp5039
S'_7'
p5040
I0
sg5007
I1
ssg52
(dp5041
I0
g5040
sI1
S'_2'
p5042
ssbsS'f'
(lp5043
S'film'
p5044
aS'history'
p5045
aS','
aS'[A1-1]'
p5046
aS'[A3-110]'
p5047
asg63
I0
sg64
I0
sg65
S'[A3-101]'
p5048
sg67
(lp5049
sg69
Nsg70
(lp5050
sbI-1
sg1
(g12
g3
NtRp5051
(dp5052
S'e'
g15
(tRp5053
S'_5'
p5054
g18
(tRp5055
S'w2/wildlife'
p5056
(lp5057
(tassS'_4'
p5058
g18
(tRp5059
g1
(g112
g3
NtRp5060
(dp5061
g115
I0
sg116
S'A1-1'
p5062
sb(lp5063
(tassS'_3'
p5064
g18
(tRp5065
S'b/border-01'
p5066
(lp5067
(tasS'ARG2'
p5068
(lp5069
(g5058
tp5070
assS'_2'
p5071
g18
(tRp5072
S'ARG1-of'
p5073
(lp5074
(g5064
tp5075
assS'_1'
p5076
g18
(tRp5077
S'm/major-02'
p5078
(lp5079
(tassS'_0'
p5080
g18
(tRp5081
S'ARG1-of'
p5082
(lp5083
(g5076
tp5084
asS'domain'
p5085
(lp5086
(g5071
tp5087
asS'mod'
p5088
(lp5089
(g5054
tp5090
ass(dp5091
g41
I00
sg42
I9
sg43
(dp5092
g5080
Nssg45
I0
sg46
Nsg47
(dp5093
sg49
(dp5094
g5071
I0
ssg51
Nsg52
(dp5095
I0
S'_2'
p5096
ssg55
(lp5097
g5080
asg57
(dp5098
sbsS'f'
(lp5099
g575
aS'is'
p5100
aS'a'
aS'major'
p5101
aS'wildlife'
p5102
asg63
I0
sg64
I0
sg65
S'[A2-00]'
p5103
sg67
(lp5104
sg69
Nsg70
(lp5105
sbI1
sg1
(g12
g3
NtRp5106
(dp5107
S'e'
g15
(tRp5108
S'_5'
p5109
g18
(tRp5110
S'g/ground'
p5111
(lp5112
(tassS'_4'
p5113
g18
(tRp5114
S'b/break-01'
p5115
(lp5116
(tasS'ARG1'
p5117
(lp5118
(g5109
tp5119
assS'_3'
p5120
g18
(tRp5121
S'n/next'
p5122
(lp5123
(tassS'_2'
p5124
g18
(tRp5125
S'y/year'
p5126
(lp5127
(tasS'mod'
p5128
(lp5129
(g5120
tp5130
assS'_1'
p5131
g18
(tRp5132
S'ARG1'
p5133
(lp5134
(g5113
tp5135
asS's/start-01'
p5136
(lp5137
(tasS'time'
p5138
(lp5139
(g5124
tp5140
assS'_0'
p5141
g18
(tRp5142
S'ARG1'
p5143
(lp5144
(g5131
tp5145
asS'e/expect-01'
p5146
(lp5147
(tass(dp5148
g41
I00
sg42
I11
sg43
(dp5149
g5141
Nssg45
I0
sg46
Nsg47
(dp5150
sg49
(dp5151
sg51
Nsg52
(dp5152
sg55
(lp5153
g5141
asg57
(dp5154
sbsS'f'
(lp5155
S'expected'
p5156
aS'to'
p5157
aS'start'
p5158
aS'next'
p5159
aS'year'
p5160
asg63
I0
sg64
I0
sg65
g575
sg67
(lp5161
sg69
Nsg70
(lp5162
sbI1
sg1
(g12
g3
NtRp5163
(dp5164
S'e'
g15
(tRp5165
S'_4'
p5166
g18
(tRp5167
S'a4/also'
p5168
(lp5169
(tassS'_3'
p5170
g18
(tRp5171
S'a/attract-01'
p5172
(lp5173
(tassS'_2'
p5174
g18
(tRp5175
g1
(g112
g3
NtRp5176
(dp5177
g115
I0
sg116
S'A1-1'
p5178
sb(lp5179
(tassS'_1'
p5180
g18
(tRp5181
S'ARG0-of'
p5182
(lp5183
(g5170
tp5184
asS'example'
p5185
(lp5186
(g5174
tp5187
asS't2/thing'
p5188
(lp5189
(tassS'_0'
p5190
g18
(tRp5191
S'ARG1'
p5192
(lp5193
(g5180
tp5194
asS'r/renovate-01'
p5195
(lp5196
(tasS'mod'
p5197
(lp5198
(g5166
tp5199
ass(dp5200
g41
I00
sg42
I9
sg43
(dp5201
g5190
Nssg45
I0
sg46
Nsg47
(dp5202
sg49
(dp5203
sg51
Nsg52
(dp5204
sg55
(lp5205
g5190
asg57
(dp5206
sbsS'f'
(lp5207
S'attractions'
p5208
aS'like'
p5209
aS'the'
p5210
ag575
aS'will'
p5211
aS'also'
p5212
aS'be'
p5213
aS'renovated'
p5214
asg63
I0
sg64
I0
sg65
g575
sg67
(lp5215
sg69
Nsg70
(lp5216
sbI1
sg1
(g12
g3
NtRp5217
(dp5218
S'e'
g15
(tRp5219
S'_7'
p5220
g18
(tRp5221
S'a4/also'
p5222
(lp5223
(tassS'_6'
p5224
g18
(tRp5225
g1
(g112
g3
NtRp5226
(dp5227
g115
I1
sg116
S'A1-1'
p5228
sb(lp5229
(tassS'_5'
p5230
g18
(tRp5231
S'w/world'
p5232
(lp5233
(tassS'_4'
p5234
g18
(tRp5235
S'r/renown'
p5236
(lp5237
(tasS'location'
p5238
(lp5239
(g5230
tp5240
assS'_3'
p5241
g18
(tRp5242
S'mod'
p5243
(lp5244
(g5234
tp5245
assS'_2'
p5246
g18
(tRp5247
g1
(g112
g3
NtRp5248
(dp5249
g115
I0
sg116
S'A3-110'
p5250
sb(lp5251
(g5241
g5224
tp5252
assS'_1'
p5253
g18
(tRp5254
S'h2/here'
p5255
(lp5256
(tassS'_0'
p5257
g18
(tRp5258
S'c2/construct-01'
p5259
(lp5260
(tasS'ARG1'
p5261
(lp5262
(g5246
tp5263
asS'location'
p5264
(lp5265
(g5253
tp5266
asS'mod'
p5267
(lp5268
(g5220
tp5269
ass(dp5270
g41
I00
sg42
I12
sg43
(dp5271
g5257
Nssg45
I0
sg46
Nsg47
(dp5272
sg49
(dp5273
S'_6'
p5274
I1
sS'_3'
p5275
I0
ssg51
Nsg52
(dp5276
I0
g5275
sI1
g5274
ssg55
(lp5277
g5257
asg57
(dp5278
sbsS'f'
(lp5279
S'world'
p5280
aS'renowned'
p5281
ag756
ag575
aS'have'
p5282
aS'also'
p5283
aS'been'
p5284
aS'constructed'
p5285
aS'here'
p5286
asg63
I0
sg64
I0
sg65
g808
sg67
(lp5287
sg69
Nsg70
(lp5288
sbI1
sg1
(g12
g3
NtRp5289
(dp5290
S'e'
g15
(tRp5291
S'_8'
p5292
g18
(tRp5293
S't2/tour-01'
p5294
(lp5295
(tassS'_7'
p5296
g18
(tRp5297
S'p2/person'
p5298
(lp5299
(tasS'ARG0-of'
p5300
(lp5301
(g5292
tp5302
assS'_6'
p5303
g18
(tRp5304
S'm/more'
p5305
(lp5306
(tassS'_5'
p5307
g18
(tRp5308
sS'_4'
p5309
g18
(tRp5310
sS'_3'
p5311
g18
(tRp5312
S'quant'
p5313
(lp5314
(g5303
tp5315
asS'op1'
p5316
(lp5317
(g5309
tp5318
asS'op2'
p5319
(lp5320
(g5307
tp5321
assS'_2'
p5322
g18
(tRp5323
S't/this'
p5324
(lp5325
(tassS'_1'
p5326
g18
(tRp5327
S'mod'
p5328
(lp5329
(g5322
tp5330
assS'_0'
p5331
g18
(tRp5332
g1
(g112
g3
NtRp5333
(dp5334
g115
I0
sg116
S'A4-1100'
p5335
sb(lp5336
(g5326
g5311
g5296
tp5337
ass(dp5338
g42
I10
sg51
Nsg47
(dp5339
sg57
(dp5340
sg41
I00
sg43
(dp5341
g5331
Nssg45
I0
sg46
Nsg55
(lp5342
g5331
asg49
(dp5343
S'_7'
p5344
I3
sg5307
I2
sg5309
I1
sS'_3'
p5345
I0
ssg52
(dp5346
I0
g5345
sI1
S'_4'
p5347
sI2
S'_5'
p5348
sI3
g5344
ssbsS'f'
(lp5349
S'tourists'
p5350
aS','
aS'more'
p5351
aS'of'
p5352
aS'what'
p5353
aS'this'
p5354
aS'[A4-1100]'
p5355
asg63
I0
sg64
I0
sg65
g138
sg67
(lp5356
sg69
Nsg70
(lp5357
sbI-1
sg1
(g12
g3
NtRp5358
(dp5359
S'e'
g15
(tRp5360
S'_4'
p5361
g18
(tRp5362
S't/this'
p5363
(lp5364
(tassS'_3'
p5365
g18
(tRp5366
S'1999'
p5367
(lp5368
(tassS'_2'
p5369
g18
(tRp5370
S'd2/date-entity'
p5371
(lp5372
(tasS'year'
p5373
(lp5374
(g5365
tp5375
assS'_1'
p5376
g18
(tRp5377
S's2/since'
p5378
(lp5379
(tasS'op1'
p5380
(lp5381
(g5369
tp5382
assS'_0'
p5383
g18
(tRp5384
g1
(g112
g3
NtRp5385
(dp5386
g115
I0
sg116
S'A2-10'
p5387
sb(lp5388
(g5361
tp5389
asS'time'
p5390
(lp5391
(g5376
tp5392
ass(dp5393
g41
I00
sg42
I8
sg43
(dp5394
g5383
Nssg45
I0
sg46
Nsg47
(dp5395
sg49
(dp5396
sg51
Nsg52
(dp5397
sg55
(lp5398
g5383
asg57
(dp5399
sbsS'f'
(lp5400
S'This'
p5401
aS'is'
p5402
aS'what'
p5403
ag66
aS'since'
p5404
aS'1999'
p5405
asg63
I0
sg64
I0
sg65
g575
sg67
(lp5406
sg69
Nsg70
(lp5407
sbI1
sg1
(g12
g3
NtRp5408
(dp5409
S'e'
g15
(tRp5410
S'_6'
p5411
g18
(tRp5412
g1
(g112
g3
NtRp5413
(dp5414
g115
I0
sg116
S'A1-1'
p5415
sb(lp5416
(tassS'_5'
p5417
g18
(tRp5418
S'y/you'
p5419
(lp5420
(tassS'_4'
p5421
g18
(tRp5422
S'+'
(lp5423
(tassS'_3'
p5424
g18
(tRp5425
S'd/detail-01'
p5426
(lp5427
(tassS'_2'
p5428
g18
(tRp5429
S'r/report-01'
p5430
(lp5431
(tasS'ARG0-of'
p5432
(lp5433
(g5424
tp5434
assS'_1'
p5435
g18
(tRp5436
S'imperative'
p5437
(lp5438
(tassS'_0'
p5439
g18
(tRp5440
S'ARG0'
p5441
(lp5442
(g5417
tp5443
asS'ARG1'
p5444
(lp5445
(g5411
tp5446
asS'w/watch-01'
p5447
(lp5448
(tasS'polite'
p5449
(lp5450
(g5421
tp5451
asS'mode'
p5452
(lp5453
(g5435
tp5454
asS'purpose'
p5455
(lp5456
(g5428
tp5457
ass(dp5458
g41
I00
sg42
I13
sg43
(dp5459
g5439
Nssg45
I0
sg46
Nsg47
(dp5460
sg49
(dp5461
sg51
Nsg52
(dp5462
sg55
(lp5463
g5439
asg57
(dp5464
sbsS'f'
(lp5465
S'Please'
p5466
aS'watch'
p5467
ag575
aS'for'
p5468
aS'a'
aS'detailed'
p5469
aS'report'
p5470
asg63
I0
sg64
I0
sg65
g575
sg67
(lp5471
sg69
Nsg70
(lp5472
sbI1
sg1
(g12
g3
NtRp5473
(dp5474
S'e'
g15
(tRp5475
S'_3'
p5476
g18
(tRp5477
S'd/detail-01'
p5478
(lp5479
(tassS'_2'
p5480
g18
(tRp5481
S'r/report-01'
p5482
(lp5483
(tasS'ARG0-of'
p5484
(lp5485
(g5476
tp5486
assS'_1'
p5487
g18
(tRp5488
g1
(g112
g3
NtRp5489
(dp5490
g115
I1
sg116
S'A1-1'
p5491
sb(lp5492
(tassS'_0'
p5493
g18
(tRp5494
S'w/watch-01'
p5495
(lp5496
(tasg1
(g112
g3
NtRp5497
(dp5498
g115
I0
sg116
S'A2-00'
p5499
sb(lp5500
(g5487
tp5501
asS'purpose'
p5502
(lp5503
(g5480
tp5504
ass(dp5505
g42
I7
sg51
Nsg47
(dp5506
sg57
(dp5507
sg41
I00
sg43
(dp5508
g5493
Nssg45
I0
sg46
Nsg55
(lp5509
g5493
asg49
(dp5510
sg52
(dp5511
sbsS'f'
(lp5512
S'[A2-00]'
p5513
aS'watch'
p5514
ag4394
aS'for'
p5515
aS'a'
aS'detailed'
p5516
aS'report'
p5517
asg63
I0
sg64
I0
sg65
g4394
sg67
(lp5518
sg69
Nsg70
(lp5519
sbI-1
sg1
(g12
g3
NtRp5520
(dp5521
S'e'
g15
(tRp5522
S'_5'
p5523
g18
(tRp5524
g1
(g112
g3
NtRp5525
(dp5526
g115
I1
sg116
S'A1-1'
p5527
sb(lp5528
(tassS'_4'
p5529
g18
(tRp5530
S't/this'
p5531
(lp5532
(tassS'_3'
p5533
g18
(tRp5534
S'g2/giant'
p5535
(lp5536
(tassS'_2'
p5537
g18
(tRp5538
g1
(g112
g3
NtRp5539
(dp5540
g115
I0
sg116
S'A1-1'
p5541
sb(lp5542
(tasS'mod'
p5543
(lp5544
(g5533
tp5545
a(g5529
tp5546
assS'_1'
p5547
g18
(tRp5548
S'ARG1'
p5549
(lp5550
(g5537
tp5551
asS'ARG4'
p5552
(lp5553
(g5523
tp5554
asS's3/settle-03'
p5555
(lp5556
(tassS'_0'
p5557
g18
(tRp5558
S's2/since'
p5559
(lp5560
(tasS'op1'
p5561
(lp5562
(g5547
tp5563
ass(dp5564
g41
I00
sg42
I11
sg43
(dp5565
g5557
Nssg45
I0
sg46
Nsg47
(dp5566
sg49
(dp5567
sg51
Nsg52
(dp5568
sg55
(lp5569
g5557
asg57
(dp5570
sbsS'f'
(lp5571
S'Since'
p5572
aS'this'
p5573
aS'giant'
p5574
ag575
aS'settled'
p5575
aS'on'
p5576
ag575
asg63
I0
sg64
I0
sg65
g575
sg67
(lp5577
sg69
Nsg70
(lp5578
sbI1
sg1
(g12
g3
NtRp5579
(dp5580
S'e'
g15
(tRp5581
S'_3'
p5582
g18
(tRp5583
S's/slow-01'
p5584
(lp5585
(tassS'_2'
p5586
g18
(tRp5587
S'ARG1-of'
p5588
(lp5589
(g5582
tp5590
asS'm2/motion'
p5591
(lp5592
(tassS'_1'
p5593
g18
(tRp5594
S'manner'
p5595
(lp5596
(g5586
tp5597
assS'_0'
p5598
g18
(tRp5599
g1
(g112
g3
NtRp5600
(dp5601
g115
I0
sg116
S'A2-11'
p5602
sb(lp5603
(g5593
tp5604
ass(dp5605
g41
I00
sg42
I5
sg43
(dp5606
g5598
Nssg45
I0
sg46
Nsg47
(dp5607
sg49
(dp5608
sg51
Nsg52
(dp5609
sg55
(lp5610
g5598
asg57
(dp5611
sbsS'f'
(lp5612
g212
aS'in'
p5613
aS'slow'
p5614
aS'motion'
p5615
asg63
I0
sg64
I0
sg65
g575
sg67
(lp5616
sg69
Nsg70
(lp5617
sbI1
sg1
(g12
g3
NtRp5618
(dp5619
S'e'
g15
(tRp5620
S'_5'
p5621
g18
(tRp5622
S'"Stars"'
p5623
(lp5624
(tassS'_4'
p5625
g18
(tRp5626
S'"of"'
p5627
(lp5628
(tassS'_3'
p5629
g18
(tRp5630
S'"Avenue"'
p5631
(lp5632
(tassS'_2'
p5633
g18
(tRp5634
S'n/name'
p5635
(lp5636
(tasS'op1'
p5637
(lp5638
(g5629
tp5639
asS'op2'
p5640
(lp5641
(g5625
tp5642
asS'op3'
p5643
(lp5644
(g5621
tp5645
assS'_1'
p5646
g18
(tRp5647
S'"Avenue_of_Stars,_Hong_Kong"'
p5648
(lp5649
(tassS'_0'
p5650
g18
(tRp5651
S'wiki'
p5652
(lp5653
(g5646
tp5654
asS'f/facility'
p5655
(lp5656
(tasS'name'
p5657
(lp5658
(g5633
tp5659
ass(dp5660
g41
I00
sg42
I11
sg43
(dp5661
sg45
I0
sg46
Nsg47
(dp5662
sg49
(dp5663
sg51
Nsg52
(dp5664
sg55
(lp5665
S'_0'
p5666
asg57
(dp5667
sbsS'f'
(lp5668
S'Avenue'
p5669
aS'of'
p5670
aS'Stars'
p5671
asg63
I0
sg64
I0
sg65
g575
sg67
(lp5672
sg69
Nsg70
(lp5673
sbI1
sg1
(g12
g3
NtRp5674
(dp5675
S'e'
g15
(tRp5676
S'_3'
p5677
g18
(tRp5678
S'o/official'
p5679
(lp5680
(tassS'_2'
p5681
g18
(tRp5682
S'w2/write-01'
p5683
(lp5684
(tassS'_1'
p5685
g18
(tRp5686
g1
(g112
g3
NtRp5687
(dp5688
g115
I0
sg116
S'A1-1'
p5689
sb(lp5690
(tassS'_0'
p5691
g18
(tRp5692
S'beneficiary'
p5693
(lp5694
(g5685
tp5695
asS'c/ceremony'
p5696
(lp5697
(tasS'mod'
p5698
(lp5699
(g5681
tp5700
a(g5677
tp5701
ass(dp5702
g42
I7
sg51
Nsg47
(dp5703
sg57
(dp5704
sg41
I00
sg43
(dp5705
g5691
Nssg45
I0
sg46
Nsg55
(lp5706
g5691
asg49
(dp5707
sg52
(dp5708
sbsS'f'
(lp5709
S'official'
p5710
aS'writing'
p5711
aS'ceremony'
p5712
aS'of'
p5713
ag144
asg63
I0
sg64
I0
sg65
g144
sg67
(lp5714
sg69
Nsg70
(lp5715
sbI-1
sg1
(g12
g3
NtRp5716
(dp5717
S'e'
g15
(tRp5718
S'_4'
p5719
g18
(tRp5720
sS'_3'
p5721
g18
(tRp5722
g1
(g112
g3
NtRp5723
(dp5724
g115
I0
sg116
S'A1-1'
p5725
sb(lp5726
(tassS'_2'
p5727
g18
(tRp5728
S'ARG1'
p5729
(lp5730
(g5721
tp5731
asS'o/open-01'
p5732
(lp5733
(tassS'_1'
p5734
g18
(tRp5735
S'b4/before'
p5736
(lp5737
(tasS'op1'
p5738
(lp5739
(g5727
tp5740
assS'_0'
p5741
g18
(tRp5742
S'ARG1'
p5743
(lp5744
(g5719
tp5745
asS'l/leave-17'
p5746
(lp5747
(tasS'time'
p5748
(lp5749
(g5734
tp5750
ass(dp5751
g42
I8
sg51
Nsg47
(dp5752
sg57
(dp5753
sg41
I00
sg43
(dp5754
g5741
Nssg45
I0
sg46
Nsg55
(lp5755
g5741
asg49
(dp5756
g5719
I0
sg5727
I1
ssg52
(dp5757
I0
S'_4'
p5758
sI1
S'_2'
p5759
ssbsS'f'
(lp5760
S'left'
p5761
aS'before'
p5762
aS'the'
p5763
aS'opening'
p5764
aS'of'
p5765
ag144
asg63
I0
sg64
I0
sg65
g267
sg67
(lp5766
sg69
Nsg70
(lp5767
sbI-1
sg1
(g12
g3
NtRp5768
(dp5769
S'e'
g15
(tRp5770
S'_5'
p5771
g18
(tRp5772
sS'_4'
p5773
g18
(tRp5774
S'time'
p5775
(lp5776
(g5771
tp5777
assS'_3'
p5778
g18
(tRp5779
sS'_2'
p5780
g18
(tRp5781
S'e/everyone'
p5782
(lp5783
(tassS'_1'
p5784
g18
(tRp5785
S'k/know-01'
p5786
(lp5787
(tasS'ARG0'
p5788
(lp5789
(g5780
tp5790
assS'_0'
p5791
g18
(tRp5792
S'ARG1'
p5793
(lp5794
(g5778
tp5795
asS'ARG1-of'
p5796
(lp5797
(g5784
tp5798
asS'time'
p5799
(lp5800
(g5773
tp5801
ass(dp5802
g42
I7
sg51
Nsg47
(dp5803
sg57
(dp5804
sg41
I00
sg43
(dp5805
g5791
Nssg45
I0
sg46
Nsg55
(lp5806
g5791
asg49
(dp5807
g5771
I2
sg5773
I1
sg5778
I0
ssg52
(dp5808
I0
S'_3'
p5809
sI1
S'_4'
p5810
sI2
S'_5'
p5811
ssbsS'f'
(lp5812
S'as'
p5813
aS'everyone'
p5814
aS'knows'
p5815
asg63
I0
sg64
I0
sg65
g311
sg67
(lp5816
sg69
Nsg70
(lp5817
sbI-1
sg1
(g12
g3
NtRp5818
(dp5819
S'e'
g15
(tRp5820
S'_4'
p5821
g18
(tRp5822
S'e3/enchant-01'
p5823
(lp5824
(tassS'_3'
p5825
g18
(tRp5826
S'ARG0-of'
p5827
(lp5828
(g5821
tp5829
assS'_2'
p5830
g18
(tRp5831
S'y/you'
p5832
(lp5833
(tassS'_1'
p5834
g18
(tRp5835
S'ARG0'
p5836
(lp5837
(g5830
tp5838
asS'e/enjoy-01'
p5839
(lp5840
(tasS'ARG1'
p5841
(lp5842
(g5825
tp5843
assS'_0'
p5844
g18
(tRp5845
S'purpose'
p5846
(lp5847
(g5834
tp5848
asg1
(g112
g3
NtRp5849
(dp5850
g115
I0
sg116
S'A2-10'
p5851
sb(lp5852
(S'_2'
tp5853
ass(dp5854
g42
I8
sg51
Nsg47
(dp5855
sg57
(dp5856
sg41
I00
sg43
(dp5857
g5844
Nssg45
I0
sg46
Nsg55
(lp5858
g5844
asg49
(dp5859
g5825
I0
ssg52
(dp5860
I0
S'_3'
p5861
ssbsS'f'
(lp5862
g2551
aS'to'
p5863
aS'enjoy'
p5864
aS'the'
p5865
aS'enchanting'
p5866
asg63
I0
sg64
I0
sg65
g2551
sg67
(lp5867
sg69
Nsg70
(lp5868
sbI-1
sg1
(g12
g3
NtRp5869
(dp5870
S'e'
g15
(tRp5871
S'_1'
p5872
g18
(tRp5873
S'a/also'
p5874
(lp5875
(tassS'_0'
p5876
g18
(tRp5877
g1
(g112
g3
NtRp5878
(dp5879
g115
I0
sg116
S'A1-1'
p5880
sb(lp5881
(tasS'mod'
p5882
(lp5883
(g5872
tp5884
ass(dp5885
g42
I3
sg51
Nsg47
(dp5886
sg57
(dp5887
sg41
I00
sg43
(dp5888
g5876
Nssg45
I0
sg46
Nsg55
(lp5889
g5876
asg49
(dp5890
sg52
(dp5891
sbsS'f'
(lp5892
S'Also'
p5893
aS','
aS'the'
p5894
ag144
asg63
I0
sg64
I0
sg65
g144
sg67
(lp5895
sg69
Nsg70
(lp5896
sbI-1
sg1
(g12
g3
NtRp5897
(dp5898
S'e'
g15
(tRp5899
S'_5'
p5900
g18
(tRp5901
sS'_4'
p5902
g18
(tRp5903
S'ARG0'
p5904
(lp5905
(S'_1'
tp5906
asS'ARG1'
p5907
(lp5908
(g5900
tp5909
asS'p/package-01'
p5910
(lp5911
(tassS'_3'
p5912
g18
(tRp5913
S's/software'
p5914
(lp5915
(tassS'_2'
p5916
g18
(tRp5917
g1
(g112
g3
NtRp5918
(dp5919
g115
I1
sg116
S'A2-10'
p5920
sb(lp5921
(g5912
tp5922
assS'_1'
p5923
g18
(tRp5924
S'w/we'
p5925
(lp5926
(tassS'_0'
p5927
g18
(tRp5928
g1
(g112
g3
NtRp5929
(dp5930
g115
I0
sg116
S'A4-1000'
p5931
sb(lp5932
(g5923
g5916
g5902
tp5933
ass(dp5934
g41
I00
sg42
I7
sg43
(dp5935
g5927
Nssg45
I0
sg46
Nsg47
(dp5936
sg49
(dp5937
g5900
I0
ssg51
Nsg52
(dp5938
I0
S'_5'
p5939
ssg55
(lp5940
g5927
asg57
(dp5941
sbsS'f'
(lp5942
S'We'
p5943
aS'[A4-1000]'
p5944
aS','
aS'a'
ag66
aS'software'
p5945
aS'to'
p5946
aS'package'
p5947
asg63
I0
sg64
I0
sg65
g66
sg67
(lp5948
sg69
Nsg70
(lp5949
sbI1
sg1
(g12
g3
NtRp5950
(dp5951
S'e'
g15
(tRp5952
S'_6'
p5953
g18
(tRp5954
S'm/more'
p5955
(lp5956
(tassS'_5'
p5957
g18
(tRp5958
S'n2/new'
p5959
(lp5960
(tasS'degree'
p5961
(lp5962
(g5953
tp5963
assS'_4'
p5964
g18
(tRp5965
S'a/attract-01'
p5966
(lp5967
(tassS'_3'
p5968
g18
(tRp5969
S'expressive'
p5970
(lp5971
(tassS'_2'
p5972
g18
(tRp5973
S'mode'
p5974
(lp5975
(g5968
tp5976
asS'a5/ah'
p5977
(lp5978
(tassS'_1'
p5979
g18
(tRp5980
S'mod'
p5981
(lp5982
(g5972
tp5983
a(g5957
tp5984
asS'ARG0-of'
p5985
(lp5986
(g5964
tp5987
asS't2/thing'
p5988
(lp5989
(tassS'_0'
p5990
g18
(tRp5991
S'ARG2'
p5992
(lp5993
(g5979
tp5994
asS'a2/available-02'
p5995
(lp5996
(tass(dp5997
g42
I13
sg51
Nsg47
(dp5998
sg57
(dp5999
sg41
I00
sg43
(dp6000
g5990
Nssg45
I0
sg46
Nsg55
(lp6001
g5990
asg49
(dp6002
g5964
I1
sg5979
I0
ssg52
(dp6003
I0
S'_1'
p6004
sI1
S'_4'
p6005
ssbsS'f'
(lp6006
S'newer'
p6007
aS','
aS'ah'
p6008
aS','
aS'attractions'
p6009
aS'will'
p6010
aS'be'
p6011
aS'available'
p6012
asg63
I0
sg64
I0
sg65
g269
sg67
(lp6013
sg69
Nsg70
(lp6014
sbI-1
sg1
(g12
g3
NtRp6015
(dp6016
S'e'
g15
(tRp6017
S'_3'
p6018
g18
(tRp6019
S'n3/new'
p6020
(lp6021
(tassS'_2'
p6022
g18
(tRp6023
g1
(g112
g3
NtRp6024
(dp6025
g115
I0
sg116
S'A1-1'
p6026
sb(lp6027
(tasS'mod'
p6028
(lp6029
(g6018
tp6030
assS'_1'
p6031
g18
(tRp6032
sS'_0'
p6033
g18
(tRp6034
S'ARG1'
p6035
(lp6036
(g6031
tp6037
asS'ARG2'
p6038
(lp6039
(g6022
tp6040
asS'b/become-01'
p6041
(lp6042
(tass(dp6043
g42
I6
sg51
Nsg47
(dp6044
sg57
(dp6045
sg41
I00
sg43
(dp6046
g6033
Nssg45
I0
sg46
Nsg55
(lp6047
g6033
asg49
(dp6048
g6031
I0
ssg52
(dp6049
I0
S'_1'
p6050
ssbsS'f'
(lp6051
S'become'
p6052
aS'a'
aS'new'
p6053
ag144
asg63
I0
sg64
I0
sg65
g703
sg67
(lp6054
sg69
Nsg70
(lp6055
sbI-1
sg1
(g12
g3
NtRp6056
(dp6057
S'e'
g15
(tRp6058
S'_4'
p6059
g18
(tRp6060
S's2/seat-01'
p6061
(lp6062
(tassS'_3'
p6063
g18
(tRp6064
g1
(g112
g3
NtRp6065
(dp6066
g115
I1
sg116
S'A1-1'
p6067
sb(lp6068
(tassS'_2'
p6069
g18
(tRp6070
S'o/outdoor'
p6071
(lp6072
(tassS'_1'
p6073
g18
(tRp6074
g1
(g112
g3
NtRp6075
(dp6076
g115
I2
sg116
S'A1-1'
p6077
sb(lp6078
(tasS'ARG1-of'
p6079
(lp6080
(g6059
tp6081
asS'location'
p6082
(lp6083
(g6069
tp6084
asS'mod'
p6085
(lp6086
(g6063
tp6087
assS'_0'
p6088
g18
(tRp6089
g1
(g112
g3
NtRp6090
(dp6091
g115
I0
sg116
S'A2-10'
p6092
sb(lp6093
(g6073
tp6094
ass(dp6095
g41
I00
sg42
I8
sg43
(dp6096
g6088
Nssg45
I0
sg46
Nsg47
(dp6097
sg49
(dp6098
sg51
Nsg52
(dp6099
sg55
(lp6100
g6088
asg57
(dp6101
sbsS'f'
(lp6102
g66
ag575
aS'outdoor'
p6103
aS'seated'
p6104
ag575
asg63
I0
sg64
I0
sg65
g575
sg67
(lp6105
sg69
Nsg70
(lp6106
sbI1
sg1
(g12
g3
NtRp6107
(dp6108
S'e'
g15
(tRp6109
S'_6'
p6110
g18
(tRp6111
S'c2/common'
p6112
(lp6113
(tassS'_5'
p6114
g18
(tRp6115
S'mod'
p6116
(lp6117
(g6110
tp6118
assS'_4'
p6119
g18
(tRp6120
sS'_3'
p6121
g18
(tRp6122
sS'_2'
p6123
g18
(tRp6124
sS'_1'
p6125
g18
(tRp6126
g1
(g112
g3
NtRp6127
(dp6128
g115
I0
sg116
S'A5-10001'
p6129
sb(lp6130
(g6123
g6121
g6119
g6114
tp6131
assS'_0'
p6132
g18
(tRp6133
S'h/have-concession-91'
p6134
(lp6135
(tasS'ARG2'
p6136
(lp6137
(g6125
tp6138
ass(dp6139
g41
I00
sg42
I5
sg43
(dp6140
g6132
Nssg45
I0
sg46
Nsg47
(dp6141
sg49
(dp6142
S'_4'
p6143
I2
sS'_3'
p6144
I1
sS'_2'
p6145
I0
ssg51
Nsg52
(dp6146
I0
g6145
sI1
g6144
sI2
g6143
ssg55
(lp6147
g6132
asg57
(dp6148
sbsS'f'
(lp6149
S'However'
p6150
aS','
aS'to'
p6151
aS'common'
p6152
aS'[A5-10001]'
p6153
asg63
I0
sg64
I0
sg65
g5944
sg67
(lp6154
sg69
Nsg70
(lp6155
sbI1
sg1
(g12
g3
NtRp6156
(dp6157
S'e'
g15
(tRp6158
S'_1'
p6159
g18
(tRp6160
g1
(g112
g3
NtRp6161
(dp6162
g115
I0
sg116
S'A1-1'
p6163
sb(lp6164
(tassS'_0'
p6165
g18
(tRp6166
S'ARG1'
p6167
(lp6168
(g6159
tp6169
asS'h/hop-02'
p6170
(lp6171
(tass(dp6172
g42
I3
sg51
Nsg47
(dp6173
sg57
(dp6174
sg41
I00
sg43
(dp6175
g6165
Nssg45
I0
sg46
Nsg55
(lp6176
g6165
asg49
(dp6177
sg52
(dp6178
sbsS'f'
(lp6179
S'hop'
p6180
aS'onto'
p6181
aS'a'
ag144
asg63
I0
sg64
I0
sg65
g144
sg67
(lp6182
sg69
Nsg70
(lp6183
sbI-1
sg1
(g12
g3
NtRp6184
(dp6185
S'e'
g15
(tRp6186
S'_3'
p6187
g18
(tRp6188
S'w/we'
p6189
(lp6190
(tassS'_2'
p6191
g18
(tRp6192
g1
(g112
g3
NtRp6193
(dp6194
g115
I0
sg116
S'A1-1'
p6195
sb(lp6196
(tassS'_1'
p6197
g18
(tRp6198
S'imperative'
p6199
(lp6200
(tassS'_0'
p6201
g18
(tRp6202
S's/stay-01'
p6203
(lp6204
(tasS'medium'
p6205
(lp6206
(g6191
tp6207
asS'mode'
p6208
(lp6209
(g6197
tp6210
asS'accompanier'
p6211
(lp6212
(g6187
tp6213
ass(dp6214
g41
I00
sg42
I7
sg43
(dp6215
g6201
Nssg45
I0
sg46
Nsg47
(dp6216
sg49
(dp6217
sg51
Nsg52
(dp6218
sg55
(lp6219
g6201
asg57
(dp6220
sbsS'f'
(lp6221
S'stay'
p6222
aS'with'
p6223
aS'us'
p6224
aS'on'
p6225
ag575
asg63
I0
sg64
I0
sg65
g575
sg67
(lp6226
sg69
Nsg70
(lp6227
sbI1
sg1
(g12
g3
NtRp6228
(dp6229
S'e'
g15
(tRp6230
S'_4'
p6231
g18
(tRp6232
S'"Ningxia"'
p6233
(lp6234
(tassS'_3'
p6235
g18
(tRp6236
S'n2/name'
p6237
(lp6238
(tasS'op1'
p6239
(lp6240
(g6231
tp6241
assS'_2'
p6242
g18
(tRp6243
S'"Ningxia"'
p6244
(lp6245
(tassS'_1'
p6246
g18
(tRp6247
S'wiki'
p6248
(lp6249
(g6242
tp6250
asS'c3/city'
p6251
(lp6252
(tasS'name'
p6253
(lp6254
(g6235
tp6255
assS'_0'
p6256
g18
(tRp6257
S'location'
p6258
(lp6259
(g6246
tp6260
ass(dp6261
g42
I8
sg51
Nsg47
(dp6262
sg57
(dp6263
sg41
I00
sg43
(dp6264
g6256
Nssg45
I0
sg46
Nsg55
(lp6265
g6256
asg49
(dp6266
sg52
(dp6267
sbsS'f'
(lp6268
S'in'
p6269
aS'Ningxia'
p6270
asg63
I0
sg64
I0
sg65
S'[A1-0]'
p6271
sg67
(lp6272
sg69
Nsg70
(lp6273
sbI-1
sg1
(g12
g3
NtRp6274
(dp6275
S'e'
g15
(tRp6276
S'_3'
p6277
g18
(tRp6278
S'expressive'
p6279
(lp6280
(tassS'_2'
p6281
g18
(tRp6282
S'a/ah'
p6283
(lp6284
(tasS'mode'
p6285
(lp6286
(g6277
tp6287
assS'_1'
p6288
g18
(tRp6289
S's/she'
p6290
(lp6291
(tassS'_0'
p6292
g18
(tRp6293
S'domain'
p6294
(lp6295
(g6288
tp6296
asg1
(g112
g3
NtRp6297
(dp6298
g115
I0
sg116
S'A1-1'
p6299
sb(lp6300
(tasS'mod'
p6301
(lp6302
(g6281
tp6303
ass(dp6304
g42
I7
sg51
Nsg47
(dp6305
sg57
(dp6306
sg41
I00
sg43
(dp6307
g6292
Nssg45
I0
sg46
Nsg55
(lp6308
g6292
asg49
(dp6309
sg52
(dp6310
sbsS'f'
(lp6311
S'She'
p6312
aS'is'
p6313
ag144
aS','
aS'ah'
p6314
asg63
I0
sg64
I0
sg65
g144
sg67
(lp6315
sg69
Nsg70
(lp6316
sbI-1
sg1
(g12
g3
NtRp6317
(dp6318
S'e'
g15
(tRp6319
S'_3'
p6320
g18
(tRp6321
S'g3/gradual'
p6322
(lp6323
(tassS'_2'
p6324
g18
(tRp6325
g1
(g112
g3
NtRp6326
(dp6327
g115
I0
sg116
S'A1-1'
p6328
sb(lp6329
(tassS'_1'
p6330
g18
(tRp6331
S'source'
p6332
(lp6333
(g6324
tp6334
assS'_0'
p6335
g18
(tRp6336
S'm/move-01'
p6337
(lp6338
(tasS'ARG1'
p6339
(lp6340
(g6330
tp6341
asS'manner'
p6342
(lp6343
(g6320
tp6344
ass(dp6345
g41
I00
sg42
I6
sg43
(dp6346
g6335
Nssg45
I0
sg46
Nsg47
(dp6347
sg49
(dp6348
g6330
I0
ssg51
Nsg52
(dp6349
I0
S'_1'
p6350
ssg55
(lp6351
g6335
asg57
(dp6352
sbsS'f'
(lp6353
S'gradually'
p6354
aS'moved'
p6355
aS'from'
p6356
ag575
asg63
I0
sg64
I0
sg65
g66
sg67
(lp6357
sg69
Nsg70
(lp6358
sbI1
sg1
(g12
g3
NtRp6359
(dp6360
S'e'
g15
(tRp6361
S'_7'
p6362
g18
(tRp6363
S'l/low-04'
p6364
(lp6365
(tassS'_6'
p6366
g18
(tRp6367
S'ARG2'
p6368
(lp6369
(g6362
tp6370
asS'p/price-01'
p6371
(lp6372
(tassS'_5'
p6373
g18
(tRp6374
S'h/high-02'
p6375
(lp6376
(tassS'_4'
p6377
g18
(tRp6378
S'ARG1-of'
p6379
(lp6380
(g6373
tp6381
a(g6366
tp6382
asS'q/quality'
p6383
(lp6384
(tassS'_3'
p6385
g18
(tRp6386
S'a/abundance'
p6387
(lp6388
(tassS'_2'
p6389
g18
(tRp6390
S'm/merchandise'
p6391
(lp6392
(tasS'mod'
p6393
(lp6394
(g6385
tp6395
assS'_1'
p6396
g18
(tRp6397
S'o/or'
p6398
(lp6399
(tasS'op2'
p6400
(lp6401
(g6377
tp6402
asS'op1'
p6403
(lp6404
(g6389
tp6405
assS'_0'
p6406
g18
(tRp6407
S'ARG0'
p6408
(lp6409
(g6396
tp6410
asS'c/cause-01'
p6411
(lp6412
(tass(dp6413
g42
I15
sg51
Nsg47
(dp6414
sg57
(dp6415
sg41
I00
sg43
(dp6416
g6406
Nssg45
I0
sg46
Nsg55
(lp6417
g6406
asg49
(dp6418
sg52
(dp6419
sbsS'f'
(lp6420
S'because'
p6421
aS'of'
p6422
aS'abundant'
p6423
aS'merchandise'
p6424
aS'or'
p6425
aS'high'
p6426
aS'quality'
p6427
aS'at'
p6428
aS'low'
p6429
aS'prices'
p6430
asg63
I0
sg64
I0
sg65
g144
sg67
(lp6431
sg69
Nsg70
(lp6432
sbI-1
sg1
(g12
g3
NtRp6433
(dp6434
S'e'
g15
(tRp6435
S'_6'
p6436
g18
(tRp6437
S's/slow-01'
p6438
(lp6439
(tassS'_5'
p6440
g18
(tRp6441
S'ARG1-of'
p6442
(lp6443
(g6436
tp6444
asS'm2/motion'
p6445
(lp6446
(tassS'_4'
p6447
g18
(tRp6448
g1
(g112
g3
NtRp6449
(dp6450
g115
I2
sg116
S'A1-1'
p6451
sb(lp6452
(tassS'_3'
p6453
g18
(tRp6454
S'ARG1'
p6455
(lp6456
(g6447
tp6457
asS'manner'
p6458
(lp6459
(g6440
tp6460
asS'f/feel-01'
p6461
(lp6462
(tassS'_2'
p6463
g18
(tRp6464
g1
(g112
g3
NtRp6465
(dp6466
g115
I0
sg116
S'A1-1'
p6467
sb(lp6468
(tassS'_1'
p6469
g18
(tRp6470
g1
(g112
g3
NtRp6471
(dp6472
g115
I1
sg116
S'A3-100'
p6473
sb(lp6474
(g6463
g6453
tp6475
assS'_0'
p6476
g18
(tRp6477
S'o2/or'
p6478
(lp6479
(tasS'op2'
p6480
(lp6481
(g6469
tp6482
ass(dp6483
g42
I11
sg51
Nsg47
(dp6484
sg57
(dp6485
sg41
I00
sg43
(dp6486
g6476
Nssg45
I0
sg46
Nsg55
(lp6487
g6476
asg49
(dp6488
sg52
(dp6489
sbsS'f'
(lp6490
S'Or'
p6491
aS'[A1-1]'
p6492
aS','
aS'[A3-100]'
p6493
aS'feel'
p6494
aS'the'
p6495
ag6492
aS'in'
p6496
aS'slow'
p6497
aS'motion'
p6498
asg63
I0
sg64
I0
sg65
g6492
sg67
(lp6499
sg69
Nsg70
(lp6500
sbI-1
sg1
(g12
g3
NtRp6501
(dp6502
S'e'
g15
(tRp6503
S'_3'
p6504
g18
(tRp6505
sS'_2'
p6506
g18
(tRp6507
S'y/you'
p6508
(lp6509
(tassS'_1'
p6510
g18
(tRp6511
S'+'
(lp6512
(tassS'_0'
p6513
g18
(tRp6514
S'ARG0'
p6515
(lp6516
(g6506
tp6517
asS'ARG1'
p6518
(lp6519
(g6504
tp6520
asS'polite'
p6521
(lp6522
(g6510
tp6523
ass(dp6524
g41
I00
sg42
I5
sg43
(dp6525
g6513
Nssg45
I0
sg46
Nsg47
(dp6526
sg49
(dp6527
g6504
I0
ssg51
Nsg52
(dp6528
I0
S'_3'
p6529
ssg55
(lp6530
g6513
asg57
(dp6531
sbsS'f'
(lp6532
S'Please'
p6533
asg63
I0
sg64
I0
sg65
S'[A2-00]'
p6534
sg67
(lp6535
sg69
Nsg70
(lp6536
sbI-1
sg1
(g12
g3
NtRp6537
(dp6538
S'e'
g15
(tRp6539
S'_3'
p6540
g18
(tRp6541
S'r/renovate-01'
p6542
(lp6543
(tassS'_2'
p6544
g18
(tRp6545
S'm/major-02'
p6546
(lp6547
(tassS'_1'
p6548
g18
(tRp6549
S'ARG1'
p6550
(lp6551
(g6540
tp6552
asS'ARG1-of'
p6553
(lp6554
(g6544
tp6555
asS'p/plan-01'
p6556
(lp6557
(tassS'_0'
p6558
g18
(tRp6559
S's/scheme'
p6560
(lp6561
(tasS'mod'
p6562
(lp6563
(g6548
tp6564
ass(dp6565
g41
I00
sg42
I7
sg43
(dp6566
g6558
Nssg45
I0
sg46
Nsg47
(dp6567
sg49
(dp6568
sg51
Nsg52
(dp6569
sg55
(lp6570
g6558
asg57
(dp6571
sbsS'f'
(lp6572
S'scheme'
p6573
aS','
aS'a'
aS'major'
p6574
aS'renovation'
p6575
aS'plan'
p6576
asg63
I0
sg64
I0
sg65
g575
sg67
(lp6577
sg69
Nsg70
(lp6578
sbI1
sg1
(g12
g3
NtRp6579
(dp6580
S'e'
g15
(tRp6581
S'_4'
p6582
g18
(tRp6583
S'a/also'
p6584
(lp6585
(tassS'_3'
p6586
g18
(tRp6587
S'34'
p6588
(lp6589
(tassS'_2'
p6590
g18
(tRp6591
S'c2/current'
p6592
(lp6593
(tassS'_1'
p6594
g18
(tRp6595
S'n/number'
p6596
(lp6597
(tasS'time'
p6598
(lp6599
(g6590
tp6600
assS'_0'
p6601
g18
(tRp6602
g1
(g112
g3
NtRp6603
(dp6604
g115
I0
sg116
S'A3-100'
p6605
sb(lp6606
(g6594
g6586
tp6607
asS'mod'
p6608
(lp6609
(g6582
tp6610
ass(dp6611
g41
I00
sg42
I7
sg43
(dp6612
g6601
Nssg45
I0
sg46
Nsg47
(dp6613
sg49
(dp6614
sg51
Nsg52
(dp6615
sg55
(lp6616
g6601
asg57
(dp6617
sbsS'f'
(lp6618
S'Also'
p6619
aS','
aS'the'
p6620
aS'current'
p6621
aS'number'
p6622
aS'of'
p6623
aS'34'
p6624
ag2167
asg63
I0
sg64
I0
sg65
g575
sg67
(lp6625
sg69
Nsg70
(lp6626
sbI1
sg1
(g12
g3
NtRp6627
(dp6628
S'e'
g15
(tRp6629
S'_5'
p6630
g18
(tRp6631
S'y/year'
p6632
(lp6633
(tassS'_4'
p6634
g18
(tRp6635
S'100'
p6636
(lp6637
(tassS'_3'
p6638
g18
(tRp6639
S'quant'
p6640
(lp6641
(g6634
tp6642
asS'unit'
p6643
(lp6644
(g6630
tp6645
asS't/temporal-quantity'
p6646
(lp6647
(tassS'_2'
p6648
g18
(tRp6649
S'duration'
p6650
(lp6651
(g6638
tp6652
assS'_1'
p6653
g18
(tRp6654
S's/screen-03'
p6655
(lp6656
(tassS'_0'
p6657
g18
(tRp6658
g1
(g112
g3
NtRp6659
(dp6660
g115
I0
sg116
S'A3-101'
p6661
sb(lp6662
(g6653
g6648
tp6663
ass(dp6664
g42
I8
sg51
Nsg47
(dp6665
sg57
(dp6666
sg41
I00
sg43
(dp6667
g6657
Nssg45
I0
sg46
Nsg55
(lp6668
g6657
asg49
(dp6669
sg52
(dp6670
sbsS'f'
(lp6671
S'100'
p6672
aS'years'
p6673
aS'of'
p6674
ag5048
aS'screenwriters'
p6675
asg63
I0
sg64
I0
sg65
g5046
sg67
(lp6676
sg69
Nsg70
(lp6677
sbI-1
sg1
(g12
g3
NtRp6678
(dp6679
S'e'
g15
(tRp6680
S'_3'
p6681
g18
(tRp6682
S'1'
(lp6683
(tassS'_2'
p6684
g18
(tRp6685
S'o/ordinal-entity'
p6686
(lp6687
(tasS'value'
p6688
(lp6689
(g6681
tp6690
assS'_1'
p6691
g18
(tRp6692
S's/settle-03'
p6693
(lp6694
(tasg1
(g112
g3
NtRp6695
(dp6696
g115
I0
sg116
S'A2-00'
p6697
sb(lp6698
(g6684
tp6699
assS'_0'
p6700
g18
(tRp6701
S'ARG1-of'
p6702
(lp6703
(g6691
tp6704
asS'h/home'
p6705
(lp6706
(tass(dp6707
g42
I7
sg51
Nsg47
(dp6708
sg57
(dp6709
sg41
I00
sg43
(dp6710
g6700
Nssg45
I0
sg46
Nsg55
(lp6711
g6700
asg49
(dp6712
sg52
(dp6713
sbsS'f'
(lp6714
S'home'
p6715
aS','
aS'settling'
p6716
aS'[A2-00]'
p6717
aS'the'
p6718
aS'first'
p6719
asg63
I0
sg64
I0
sg65
g144
sg67
(lp6720
sg69
Nsg70
(lp6721
sbI-1
sg1
(g12
g3
NtRp6722
(dp6723
S'e'
g15
(tRp6724
S'_8'
p6725
g18
(tRp6726
sS'_7'
p6727
g18
(tRp6728
g1
(g112
g3
NtRp6729
(dp6730
g115
I1
sg116
S'A1-1'
p6731
sb(lp6732
(tassS'_6'
p6733
g18
(tRp6734
S'm2/many'
p6735
(lp6736
(tassS'_5'
p6737
g18
(tRp6738
S'n2/nowadays'
p6739
(lp6740
(tassS'_4'
p6741
g18
(tRp6742
S'c4/child'
p6743
(lp6744
(tasS'quant'
p6745
(lp6746
(g6733
tp6747
asS'location'
p6748
(lp6749
(g6727
tp6750
asS'time'
p6751
(lp6752
(g6737
tp6753
assS'_3'
p6754
g18
(tRp6755
S'-'
(lp6756
(tassS'_2'
p6757
g18
(tRp6758
S'polarity'
p6759
(lp6760
(g6754
tp6761
asS'e/ever'
p6762
(lp6763
(tassS'_1'
p6764
g18
(tRp6765
S's2/see-01'
p6766
(lp6767
(tasS'ARG0'
p6768
(lp6769
(g6741
tp6770
asS'ARG1'
p6771
(lp6772
(g6725
tp6773
asS'time'
p6774
(lp6775
(g6757
tp6776
assS'_0'
p6777
g18
(tRp6778
g1
(g112
g3
NtRp6779
(dp6780
g115
I0
sg116
S'A2-10'
p6781
sb(lp6782
(g6764
tp6783
ass(dp6784
g41
I00
sg42
I15
sg43
(dp6785
g6777
Nssg45
I0
sg46
Nsg47
(dp6786
sg49
(dp6787
g6725
I0
ssg51
Nsg52
(dp6788
I0
S'_8'
p6789
ssg55
(lp6790
g6777
asg57
(dp6791
sbsS'f'
(lp6792
g66
aS'%pw'
p6793
aS'many'
p6794
ag575
aS'children'
p6795
aS'nowadays'
p6796
aS'have'
p6797
aS'never'
p6798
aS'seen'
p6799
asg63
I0
sg64
I0
sg65
g66
sg67
(lp6800
sg69
Nsg70
(lp6801
sbI1
sg1
(g12
g3
NtRp6802
(dp6803
S'e'
g15
(tRp6804
S'_2'
p6805
g18
(tRp6806
S'w/world'
p6807
(lp6808
(tassS'_1'
p6809
g18
(tRp6810
S'poss'
p6811
(lp6812
(g6805
tp6813
asg1
(g112
g3
NtRp6814
(dp6815
g115
I0
sg116
S'A1-1'
p6816
sb(lp6817
(tassS'_0'
p6818
g18
(tRp6819
g1
(g112
g3
NtRp6820
(dp6821
g115
I1
sg116
S'A2-10'
p6822
sb(lp6823
(g6809
tp6824
ass(dp6825
g42
I4
sg51
Nsg47
(dp6826
sg57
(dp6827
sg41
I00
sg43
(dp6828
g6818
Nssg45
I0
sg46
Nsg55
(lp6829
g6818
asg49
(dp6830
sg52
(dp6831
sbsS'f'
(lp6832
S'world'
p6833
aS"'s"
p6834
ag144
aS'will'
p6835
ag703
asg63
I0
sg64
I0
sg65
g144
sg67
(lp6836
sg69
Nsg70
(lp6837
sbI-1
sg1
(g12
g3
NtRp6838
(dp6839
S'e'
g15
(tRp6840
S'_6'
p6841
g18
(tRp6842
sS'_5'
p6843
g18
(tRp6844
S'time'
p6845
(lp6846
(g6841
tp6847
assS'_4'
p6848
g18
(tRp6849
S'w/we'
p6850
(lp6851
(tassS'_3'
p6852
g18
(tRp6853
S'poss'
p6854
(lp6855
(g6848
tp6856
asg1
(g112
g3
NtRp6857
(dp6858
g115
I0
sg116
S'A1-1'
p6859
sb(lp6860
(tassS'_2'
p6861
g18
(tRp6862
S'e/everyone'
p6863
(lp6864
(tassS'_1'
p6865
g18
(tRp6866
S'k/know-01'
p6867
(lp6868
(tasS'ARG0'
p6869
(lp6870
(g6861
tp6871
assS'_0'
p6872
g18
(tRp6873
S'ARG1'
p6874
(lp6875
(g6852
tp6876
asS'ARG1-of'
p6877
(lp6878
(g6865
tp6879
asS'o/open-01'
p6880
(lp6881
(tasS'time'
p6882
(lp6883
(g6843
tp6884
ass(dp6885
g41
I00
sg42
I11
sg43
(dp6886
g6872
Nssg45
I0
sg46
Nsg47
(dp6887
sg49
(dp6888
g6841
I1
sg6843
I0
ssg51
Nsg52
(dp6889
I0
S'_5'
p6890
sI1
S'_6'
p6891
ssg55
(lp6892
g6872
asg57
(dp6893
sbsS'f'
(lp6894
S'as'
p6895
aS'everyone'
p6896
aS'knows'
p6897
aS','
aS'our'
p6898
ag575
aS'will'
p6899
aS'open'
p6900
asg63
I0
sg64
I0
sg65
g2167
sg67
(lp6901
sg69
Nsg70
(lp6902
sbI1
sg1
(g12
g3
NtRp6903
(dp6904
S'e'
g15
(tRp6905
S'_4'
p6906
g18
(tRp6907
S'm2/more'
p6908
(lp6909
(tassS'_3'
p6910
g18
(tRp6911
g1
(g112
g3
NtRp6912
(dp6913
g115
I1
sg116
S'A1-1'
p6914
sb(lp6915
(tassS'_2'
p6916
g18
(tRp6917
S'l/late'
p6918
(lp6919
(tasS'op1'
p6920
(lp6921
(g6910
tp6922
asS'degree'
p6923
(lp6924
(g6906
tp6925
assS'_1'
p6926
g18
(tRp6927
S'time'
p6928
(lp6929
(g6916
tp6930
assS'_0'
p6931
g18
(tRp6932
g1
(g112
g3
NtRp6933
(dp6934
g115
I0
sg116
S'A2-11'
p6935
sb(lp6936
(g6926
tp6937
ass(dp6938
g41
I00
sg42
I7
sg43
(dp6939
g6931
Nssg45
I0
sg46
Nsg47
(dp6940
sg49
(dp6941
sg51
Nsg52
(dp6942
sg55
(lp6943
g6931
asg57
(dp6944
sbsS'f'
(lp6945
g212
ag575
aS'later'
p6946
asg63
I0
sg64
I0
sg65
g575
sg67
(lp6947
sg69
Nsg70
(lp6948
sbI1
sg1
(g12
g3
NtRp6949
(dp6950
S'e'
g15
(tRp6951
S'_7'
p6952
g18
(tRp6953
g1
(g112
g3
NtRp6954
(dp6955
g115
I1
sg116
S'A1-1'
p6956
sb(lp6957
(tassS'_6'
p6958
g18
(tRp6959
S'"Marshes"'
p6960
(lp6961
(tassS'_5'
p6962
g18
(tRp6963
S'"Po"'
p6964
(lp6965
(tassS'_4'
p6966
g18
(tRp6967
S'"Mai"'
p6968
(lp6969
(tassS'_3'
p6970
g18
(tRp6971
S'n/name'
p6972
(lp6973
(tasS'op1'
p6974
(lp6975
(g6966
tp6976
asS'op2'
p6977
(lp6978
(g6962
tp6979
asS'op3'
p6980
(lp6981
(g6958
tp6982
assS'_2'
p6983
g18
(tRp6984
S'"Mai_Po_Marshes"'
p6985
(lp6986
(tassS'_1'
p6987
g18
(tRp6988
S'wiki'
p6989
(lp6990
(g6983
tp6991
asS'l3/location'
p6992
(lp6993
(tasS'name'
p6994
(lp6995
(g6970
tp6996
assS'_0'
p6997
g18
(tRp6998
S'h/habitat'
p6999
(lp7000
(tasg1
(g112
g3
NtRp7001
(dp7002
g115
I0
sg116
S'A2-00'
p7003
sb(lp7004
(g6987
tp7005
asS'location'
p7006
(lp7007
(g6952
tp7008
ass(dp7009
g41
I00
sg42
I15
sg43
(dp7010
g6997
Nssg45
I0
sg46
Nsg47
(dp7011
sg49
(dp7012
sg51
Nsg52
(dp7013
sg55
(lp7014
g6997
asg57
(dp7015
sbsS'f'
(lp7016
S'Mai'
p7017
aS'Po'
p7018
aS'Marshes'
p7019
aS'adjacent'
p7020
aS'to'
p7021
ag5103
aS'habitat'
p7022
aS'within'
p7023
ag575
asg63
I0
sg64
I0
sg65
g575
sg67
(lp7024
sg69
Nsg70
(lp7025
sbI1
sg1
(g12
g3
NtRp7026
(dp7027
S'e'
g15
(tRp7028
S'_4'
p7029
g18
(tRp7030
g1
(g112
g3
NtRp7031
(dp7032
g115
I0
sg116
S'A1-1'
p7033
sb(lp7034
(tassS'_3'
p7035
g18
(tRp7036
S'y/you'
p7037
(lp7038
(tassS'_2'
p7039
g18
(tRp7040
g1
(g112
g3
NtRp7041
(dp7042
g115
I1
sg116
S'A2-10'
p7043
sb(lp7044
(g7035
tp7045
assS'_1'
p7046
g18
(tRp7047
S'ARG0'
p7048
(lp7049
(S'_3'
tp7050
asS'ARG1'
p7051
(lp7052
(g7029
tp7053
asS'purpose'
p7054
(lp7055
(g7039
tp7056
asS'a/ascend-01'
p7057
(lp7058
(tassS'_0'
p7059
g18
(tRp7060
S'ARG1'
p7061
(lp7062
(g7046
tp7063
asS'p/possible-01'
p7064
(lp7065
(tass(dp7066
g42
I9
sg51
Nsg47
(dp7067
sg57
(dp7068
sg41
I00
sg43
(dp7069
g7059
Nssg45
I0
sg46
Nsg55
(lp7070
g7059
asg49
(dp7071
sg52
(dp7072
sbsS'f'
(lp7073
S'You'
p7074
aS'can'
p7075
aS'ascend'
p7076
ag2267
aS'to'
p7077
ag2551
asg63
I0
sg64
I0
sg65
g2267
sg67
(lp7078
sg69
Nsg70
(lp7079
sbI-1
sg1
(g12
g3
NtRp7080
(dp7081
S'e'
g15
(tRp7082
S'_8'
p7083
g18
(tRp7084
sS'_7'
p7085
g18
(tRp7086
S'"Kok"'
p7087
(lp7088
(tassS'_6'
p7089
g18
(tRp7090
S'"Lap"'
p7091
(lp7092
(tassS'_5'
p7093
g18
(tRp7094
S'"Chek"'
p7095
(lp7096
(tassS'_4'
p7097
g18
(tRp7098
S'op1'
p7099
(lp7100
(g7093
tp7101
asS'n2/name'
p7102
(lp7103
(tasS'op2'
p7104
(lp7105
(g7089
tp7106
asS'op3'
p7107
(lp7108
(g7085
tp7109
assS'_3'
p7110
g18
(tRp7111
S'"Chek_Lap_Kok"'
p7112
(lp7113
(tassS'_2'
p7114
g18
(tRp7115
S'wiki'
p7116
(lp7117
(g7110
tp7118
asS'i/island'
p7119
(lp7120
(tasS'name'
p7121
(lp7122
(g7097
tp7123
assS'_1'
p7124
g18
(tRp7125
S'location'
p7126
(lp7127
(g7114
tp7128
assS'_0'
p7129
g18
(tRp7130
g1
(g112
g3
NtRp7131
(dp7132
g115
I0
sg116
S'A3-101'
p7133
sb(lp7134
(g7124
g7083
tp7135
ass(dp7136
g42
I13
sg51
Nsg47
(dp7137
sg57
(dp7138
sg41
I00
sg43
(dp7139
g7129
Nssg45
I0
sg46
Nsg55
(lp7140
g7129
asg49
(dp7141
S'_1'
p7142
I0
sS'_8'
p7143
I1
ssg52
(dp7144
I0
g7142
sI1
g7143
ssbsS'f'
(lp7145
S'Chek'
p7146
aS'Lap'
p7147
aS'Kok'
p7148
aS'[A3-101]'
p7149
asg63
I0
sg64
I0
sg65
g7149
sg67
(lp7150
sg69
Nsg70
(lp7151
sbI-1
sg1
(g12
g3
NtRp7152
(dp7153
S'e'
g15
(tRp7154
S'_6'
p7155
g18
(tRp7156
S'"Putian"'
p7157
(lp7158
(tassS'_5'
p7159
g18
(tRp7160
S'n/name'
p7161
(lp7162
(tasS'op1'
p7163
(lp7164
(g7155
tp7165
assS'_4'
p7166
g18
(tRp7167
S'"Putian"'
p7168
(lp7169
(tassS'_3'
p7170
g18
(tRp7171
S'c2/city'
p7172
(lp7173
(tasS'wiki'
p7174
(lp7175
(g7166
tp7176
asS'name'
p7177
(lp7178
(g7159
tp7179
assS'_2'
p7180
g18
(tRp7181
sS'_1'
p7182
g18
(tRp7183
S's2/see-01'
p7184
(lp7185
(tasS'ARG0'
p7186
(lp7187
(g7180
tp7188
asS'ARG1'
p7189
(lp7190
(g7170
tp7191
assS'_0'
p7192
g18
(tRp7193
S'ARG1'
p7194
(lp7195
(g7182
tp7196
asS'p2/possible-01'
p7197
(lp7198
(tass(dp7199
g42
I12
sg51
Nsg47
(dp7200
sg57
(dp7201
sg41
I00
sg43
(dp7202
g7192
Nssg45
I0
sg46
Nsg55
(lp7203
g7192
asg49
(dp7204
g7170
I2
sg7180
I1
sg7182
I0
ssg52
(dp7205
I0
S'_1'
p7206
sI1
S'_2'
p7207
sI2
S'_3'
p7208
ssbsS'f'
(lp7209
S'can'
p7210
aS'see'
p7211
aS'Putian'
p7212
asg63
I0
sg64
I0
sg65
g1535
sg67
(lp7213
sg69
Nsg70
(lp7214
sbI-1
sg1
(g12
g3
NtRp7215
(dp7216
S'e'
g15
(tRp7217
S'_6'
p7218
g18
(tRp7219
sS'_5'
p7220
g18
(tRp7221
S'r/reflect-01'
p7222
(lp7223
(tasS'ARG1'
p7224
(lp7225
(S'_1'
tp7226
asS'ARG2'
p7227
(lp7228
(S'_1'
tp7229
assS'_4'
p7230
g18
(tRp7231
S'a3/and'
p7232
(lp7233
(tasS'op1'
p7234
(lp7235
(g7220
tp7236
asS'op2'
p7237
(lp7238
(g7218
tp7239
assS'_3'
p7240
g18
(tRp7241
S'l/light'
p7242
(lp7243
(tassS'_2'
p7244
g18
(tRp7245
sS'_1'
p7246
g18
(tRp7247
g1
(g112
g3
NtRp7248
(dp7249
g115
I0
sg116
S'A3-100'
p7250
sb(lp7251
(g7244
g7240
tp7252
assS'_0'
p7253
g18
(tRp7254
S'ARG1'
p7255
(lp7256
(g7246
tp7257
asS'a/arrange-01'
p7258
(lp7259
(tasS'ARG4'
p7260
(lp7261
(g7230
tp7262
ass(dp7263
g42
I11
sg51
Nsg47
(dp7264
sg57
(dp7265
sg41
I00
sg43
(dp7266
g7253
Nssg45
I0
sg46
Nsg55
(lp7267
g7253
asg49
(dp7268
g7218
I2
sS'_2'
p7269
I1
sg7246
I0
ssg52
(dp7270
I0
S'_1'
p7271
sI1
g7269
sI2
S'_6'
p7272
ssbsS'f'
(lp7273
g315
aS'lights'
p7274
aS'are'
p7275
aS'arranged'
p7276
aS'to'
p7277
aS'reflect'
p7278
aS'each'
p7279
aS'other'
p7280
aS'and'
p7281
asg63
I0
sg64
I0
sg65
g5355
sg67
(lp7282
sg69
Nsg70
(lp7283
sbI-1
sg1
(g12
g3
NtRp7284
(dp7285
S'e'
g15
(tRp7286
S'_5'
p7287
g18
(tRp7288
S'"Marshes"'
p7289
(lp7290
(tassS'_4'
p7291
g18
(tRp7292
S'"Po"'
p7293
(lp7294
(tassS'_3'
p7295
g18
(tRp7296
S'"Mai"'
p7297
(lp7298
(tassS'_2'
p7299
g18
(tRp7300
S'n/name'
p7301
(lp7302
(tasS'op1'
p7303
(lp7304
(g7295
tp7305
asS'op2'
p7306
(lp7307
(g7291
tp7308
asS'op3'
p7309
(lp7310
(g7287
tp7311
assS'_1'
p7312
g18
(tRp7313
S'"Mai_Po_Marshes"'
p7314
(lp7315
(tassS'_0'
p7316
g18
(tRp7317
S'wiki'
p7318
(lp7319
(g7312
tp7320
asS'l3/location'
p7321
(lp7322
(tasS'name'
p7323
(lp7324
(g7299
tp7325
ass(dp7326
g42
I11
sg51
Nsg47
(dp7327
sg57
(dp7328
sg41
I00
sg43
(dp7329
sg45
I0
sg46
Nsg55
(lp7330
S'_0'
p7331
asg49
(dp7332
sg52
(dp7333
sbsS'f'
(lp7334
S'Mai'
p7335
aS'Po'
p7336
aS'Marshes'
p7337
asg63
I0
sg64
I0
sg65
S'[A1-1]'
p7338
sg67
(lp7339
sg69
Nsg70
(lp7340
sbI-1
sg1
(g12
g3
NtRp7341
(dp7342
S'e'
g15
(tRp7343
S'_2'
p7344
g18
(tRp7345
g1
(g112
g3
NtRp7346
(dp7347
g115
I0
sg116
S'A1-1'
p7348
sb(lp7349
(tassS'_1'
p7350
g18
(tRp7351
S'ARG1'
p7352
(lp7353
(g7344
tp7354
asS'o/open-01'
p7355
(lp7356
(tassS'_0'
p7357
g18
(tRp7358
S'b4/before'
p7359
(lp7360
(tasS'op1'
p7361
(lp7362
(g7350
tp7363
ass(dp7364
g41
I00
sg42
I5
sg43
(dp7365
g7357
Nssg45
I0
sg46
Nsg47
(dp7366
sg49
(dp7367
g7350
I0
ssg51
Nsg52
(dp7368
I0
S'_1'
p7369
ssg55
(lp7370
g7357
asg57
(dp7371
sbsS'f'
(lp7372
S'before'
p7373
aS'the'
p7374
aS'opening'
p7375
aS'of'
p7376
ag575
asg63
I0
sg64
I0
sg65
g212
sg67
(lp7377
sg69
Nsg70
(lp7378
sbI1
sg1
(g12
g3
NtRp7379
(dp7380
S'e'
g15
(tRp7381
S'_7'
p7382
g18
(tRp7383
S'r/respect-01'
p7384
(lp7385
(tassS'_6'
p7386
g18
(tRp7387
S't/this'
p7388
(lp7389
(tassS'_5'
p7390
g18
(tRp7391
g1
(g112
g3
NtRp7392
(dp7393
g115
I1
sg116
S'A1-1'
p7394
sb(lp7395
(tasS'mod'
p7396
(lp7397
(g7386
tp7398
assS'_4'
p7399
g18
(tRp7400
g1
(g112
g3
NtRp7401
(dp7402
g115
I0
sg116
S'A1-1'
p7403
sb(lp7404
(tassS'_3'
p7405
g18
(tRp7406
S'ARG0'
p7407
(lp7408
(S'_2'
tp7409
asS'ARG1'
p7410
(lp7411
(g7399
tp7412
asS'w2/watch-01'
p7413
(lp7414
(tasS'part-of'
p7415
(lp7416
(g7390
tp7417
assS'_2'
p7418
g18
(tRp7419
S'y/you'
p7420
(lp7421
(tassS'_1'
p7422
g18
(tRp7423
S'w/we'
p7424
(lp7425
(tassS'_0'
p7426
g18
(tRp7427
S'ARG0'
p7428
(lp7429
(g7422
tp7430
asS'ARG1'
p7431
(lp7432
(g7418
tp7433
asS'i/invite-01'
p7434
(lp7435
(tasS'ARG2'
p7436
(lp7437
(g7405
tp7438
asS'manner'
p7439
(lp7440
(g7382
tp7441
ass(dp7442
g42
I16
sg51
Nsg47
(dp7443
sg57
(dp7444
sg41
I00
sg43
(dp7445
g7426
Nssg45
I0
sg46
Nsg55
(lp7446
g7426
asg49
(dp7447
sg52
(dp7448
sbsS'f'
(lp7449
S'We'
p7450
aS'respectfully'
p7451
aS'invite'
p7452
aS'you'
p7453
aS'to'
p7454
aS'watch'
p7455
ag144
aS'in'
p7456
aS'this'
p7457
ag144
asg63
I0
sg64
I0
sg65
g144
sg67
(lp7458
sg69
Nsg70
(lp7459
sbI-1
sg1
(g12
g3
NtRp7460
(dp7461
S'e'
g15
(tRp7462
S'_8'
p7463
g18
(tRp7464
S'2006'
p7465
(lp7466
(tassS'_7'
p7467
g18
(tRp7468
S'year'
p7469
(lp7470
(g7463
tp7471
assS'_6'
p7472
g18
(tRp7473
S'ARG1'
p7474
(lp7475
(g7467
tp7476
asS'b3/begin-01'
p7477
(lp7478
(tassS'_5'
p7479
g18
(tRp7480
S'op1'
p7481
(lp7482
(g7472
tp7483
asS'b/by'
p7484
(lp7485
(tassS'_4'
p7486
g18
(tRp7487
S'e2/entire'
p7488
(lp7489
(tassS'_3'
p7490
g18
(tRp7491
S'p/park'
p7492
(lp7493
(tassS'_2'
p7494
g18
(tRp7495
S'c2/construct-01'
p7496
(lp7497
(tasS'ARG1'
p7498
(lp7499
(g7490
tp7500
asS'extent'
p7501
(lp7502
(g7486
tp7503
assS'_1'
p7504
g18
(tRp7505
sS'_0'
p7506
g18
(tRp7507
S'c/complete-01'
p7508
(lp7509
(tasS'ARG0'
p7510
(lp7511
(g7504
tp7512
asS'ARG1'
p7513
(lp7514
(g7494
tp7515
asS'time'
p7516
(lp7517
(g7479
tp7518
ass(dp7519
g42
I15
sg51
Nsg47
(dp7520
sg57
(dp7521
sg41
I00
sg43
(dp7522
g7506
Nssg45
I0
sg46
Nsg55
(lp7523
g7506
asg49
(dp7524
g7467
I2
sg7490
I1
sg7504
I0
ssg52
(dp7525
I0
S'_1'
p7526
sI1
S'_3'
p7527
sI2
S'_7'
p7528
ssbsS'f'
(lp7529
S'complete'
p7530
aS'the'
p7531
aS'park'
p7532
aS"'s"
p7533
aS'entire'
p7534
aS'construction'
p7535
aS'by'
p7536
aS'the'
p7537
aS'beginning'
p7538
aS'of'
p7539
aS'2006'
p7540
asg63
I0
sg64
I0
sg65
S'[A4-1010]'
p7541
sg67
(lp7542
sg69
Nsg70
(lp7543
sbI-1
sg1
(g12
g3
NtRp7544
(dp7545
S'e'
g15
(tRp7546
S'_4'
p7547
g18
(tRp7548
sS'_3'
p7549
g18
(tRp7550
S'ARG1'
p7551
(lp7552
(g7547
tp7553
asS'a/attract-01'
p7554
(lp7555
(tassS'_2'
p7556
g18
(tRp7557
S'w/west'
p7558
(lp7559
(tassS'_1'
p7560
g18
(tRp7561
S'r/region'
p7562
(lp7563
(tasS'ARG0-of'
p7564
(lp7565
(g7549
tp7566
asS'mod'
p7567
(lp7568
(g7556
tp7569
assS'_0'
p7570
g18
(tRp7571
g1
(g112
g3
NtRp7572
(dp7573
g115
I0
sg116
S'A2-10'
p7574
sb(lp7575
(g7560
tp7576
ass(dp7577
g41
I00
sg42
I7
sg43
(dp7578
g7570
Nssg45
I0
sg46
Nsg47
(dp7579
sg49
(dp7580
g7547
I0
ssg51
Nsg52
(dp7581
I0
S'_4'
p7582
ssg55
(lp7583
g7570
asg57
(dp7584
sbsS'f'
(lp7585
g66
aS'the'
p7586
aS'western'
p7587
aS'region'
p7588
aS'that'
p7589
aS'has'
p7590
aS'attracted'
p7591
asg63
I0
sg64
I0
sg65
g66
sg67
(lp7592
sg69
Nsg70
(lp7593
sbI1
sg1
(g12
g3
NtRp7594
(dp7595
S'e'
g15
(tRp7596
S'_8'
p7597
g18
(tRp7598
S't2/tour-01'
p7599
(lp7600
(tassS'_7'
p7601
g18
(tRp7602
S'p2/person'
p7603
(lp7604
(tasS'ARG0-of'
p7605
(lp7606
(g7597
tp7607
assS'_6'
p7608
g18
(tRp7609
S'm/more'
p7610
(lp7611
(tassS'_5'
p7612
g18
(tRp7613
sS'_4'
p7614
g18
(tRp7615
sS'_3'
p7616
g18
(tRp7617
S'quant'
p7618
(lp7619
(g7608
tp7620
asS'op1'
p7621
(lp7622
(g7614
tp7623
asS'op2'
p7624
(lp7625
(g7612
tp7626
assS'_2'
p7627
g18
(tRp7628
S't/this'
p7629
(lp7630
(tassS'_1'
p7631
g18
(tRp7632
S'p/place'
p7633
(lp7634
(tasS'mod'
p7635
(lp7636
(g7627
tp7637
assS'_0'
p7638
g18
(tRp7639
S'ARG0'
p7640
(lp7641
(g7631
tp7642
asS'ARG1'
p7643
(lp7644
(g7616
tp7645
asS'ARG2'
p7646
(lp7647
(g7601
tp7648
asS'b/bring-01'
p7649
(lp7650
(tass(dp7651
g41
I00
sg42
I14
sg43
(dp7652
g7638
Nssg45
I0
sg46
Nsg47
(dp7653
sg49
(dp7654
g7601
I3
sg7612
I2
sg7614
I1
sg7616
I0
ssg51
Nsg52
(dp7655
I0
S'_3'
p7656
sI1
S'_4'
p7657
sI2
S'_5'
p7658
sI3
S'_7'
p7659
ssg55
(lp7660
g7638
asg57
(dp7661
sbsS'f'
(lp7662
S'tourists'
p7663
aS','
aS'more'
p7664
aS'of'
p7665
aS'what'
p7666
aS'this'
p7667
aS'place'
p7668
aS'brings'
p7669
asg63
I0
sg64
I0
sg65
g6153
sg67
(lp7670
sg69
Nsg70
(lp7671
sbI1
sg1
(g12
g3
NtRp7672
(dp7673
S'e'
g15
(tRp7674
S'_8'
p7675
g18
(tRp7676
S'w/we'
p7677
(lp7678
(tassS'_7'
p7679
g18
(tRp7680
S'"Travel"'
p7681
(lp7682
(tassS'_6'
p7683
g18
(tRp7684
S'"World"'
p7685
(lp7686
(tassS'_5'
p7687
g18
(tRp7688
S'"New"'
p7689
(lp7690
(tassS'_4'
p7691
g18
(tRp7692
S'n2/name'
p7693
(lp7694
(tasS'op1'
p7695
(lp7696
(g7687
tp7697
asS'op2'
p7698
(lp7699
(g7683
tp7700
asS'op3'
p7701
(lp7702
(g7679
tp7703
assS'_3'
p7704
g18
(tRp7705
S'-'
(lp7706
(tassS'_2'
p7707
g18
(tRp7708
S'wiki'
p7709
(lp7710
(g7704
tp7711
asS'b/broadcast-program'
p7712
(lp7713
(tasS'name'
p7714
(lp7715
(g7691
tp7716
assS'_1'
p7717
g18
(tRp7718
S'imperative'
p7719
(lp7720
(tassS'_0'
p7721
g18
(tRp7722
S's/stay-01'
p7723
(lp7724
(tasS'medium'
p7725
(lp7726
(g7707
tp7727
asS'mode'
p7728
(lp7729
(g7717
tp7730
asS'accompanier'
p7731
(lp7732
(g7675
tp7733
ass(dp7734
g42
I17
sg51
Nsg47
(dp7735
sg57
(dp7736
sg41
I00
sg43
(dp7737
g7721
Nssg45
I0
sg46
Nsg55
(lp7738
g7721
asg49
(dp7739
sg52
(dp7740
sbsS'f'
(lp7741
S'stay'
p7742
aS'with'
p7743
aS'us'
p7744
aS'on'
p7745
aS'New'
p7746
aS'World'
p7747
aS'Travel'
p7748
asg63
I0
sg64
I0
sg65
g144
sg67
(lp7749
sg69
Nsg70
(lp7750
sbI-1
sg1
(g12
g3
NtRp7751
(dp7752
S'e'
g15
(tRp7753
S'_6'
p7754
g18
(tRp7755
g1
(g112
g3
NtRp7756
(dp7757
g115
I1
sg116
S'A1-1'
p7758
sb(lp7759
(tassS'_5'
p7760
g18
(tRp7761
S't2/tour-01'
p7762
(lp7763
(tassS'_4'
p7764
g18
(tRp7765
S'p/person'
p7766
(lp7767
(tasS'ARG0-of'
p7768
(lp7769
(g7760
tp7770
assS'_3'
p7771
g18
(tRp7772
S'ARG1'
p7773
(lp7774
(g7764
tp7775
asS'a/attract-01'
p7776
(lp7777
(tassS'_2'
p7778
g18
(tRp7779
sS'_1'
p7780
g18
(tRp7781
S'poss'
p7782
(lp7783
(g7778
tp7784
asS't/thing'
p7785
(lp7786
(tasS'ARG0-of'
p7787
(lp7788
(g7771
tp7789
assS'_0'
p7790
g18
(tRp7791
S'ARG2'
p7792
(lp7793
(g7754
tp7794
asg1
(g112
g3
NtRp7795
(dp7796
g115
I0
sg116
S'A2-10'
p7797
sb(lp7798
(g7780
tp7799
ass(dp7800
g41
I00
sg42
I11
sg43
(dp7801
g7790
Nssg45
I0
sg46
Nsg47
(dp7802
sg49
(dp7803
g7778
I0
ssg51
Nsg52
(dp7804
I0
S'_2'
p7805
ssg55
(lp7806
g7790
asg57
(dp7807
sbsS'f'
(lp7808
S"'s"
p7809
aS'tourist'
p7810
aS'attractions'
p7811
aS'have'
p7812
ag66
aS'to'
p7813
ag575
asg63
I0
sg64
I0
sg65
g66
sg67
(lp7814
sg69
Nsg70
(lp7815
sbI1
sg1
(g12
g3
NtRp7816
(dp7817
S'e'
g15
(tRp7818
S'_5'
p7819
g18
(tRp7820
S't/this'
p7821
(lp7822
(tassS'_4'
p7823
g18
(tRp7824
S'c/city'
p7825
(lp7826
(tasS'mod'
p7827
(lp7828
(g7819
tp7829
assS'_3'
p7830
g18
(tRp7831
S'ARG0'
p7832
(lp7833
(S'_2'
tp7834
asS'e/experience-01'
p7835
(lp7836
(tassS'_2'
p7837
g18
(tRp7838
S'p/person'
p7839
(lp7840
(tassS'_1'
p7841
g18
(tRp7842
S'l/love-01'
p7843
(lp7844
(tasS'ARG0'
p7845
(lp7846
(g7837
tp7847
assS'_0'
p7848
g18
(tRp7849
S'topic'
p7850
(lp7851
(g7823
tp7852
asS'ARG1-of'
p7853
(lp7854
(g7841
tp7855
a(g7830
tp7856
asg1
(g112
g3
NtRp7857
(dp7858
g115
I0
sg116
S'A1-1'
p7859
sb(lp7860
(tass(dp7861
g42
I12
sg51
Nsg47
(dp7862
sg57
(dp7863
sg41
I00
sg43
(dp7864
g7848
Nssg45
I0
sg46
Nsg55
(lp7865
g7848
asg49
(dp7866
sg52
(dp7867
sbsS'f'
(lp7868
g6492
aS'for'
p7869
aS'people'
p7870
aS'to'
p7871
aS'experience'
p7872
aS'and'
p7873
aS'to'
p7874
aS'love'
p7875
aS'about'
p7876
aS'this'
p7877
aS'city'
p7878
asg63
I0
sg64
I0
sg65
g6492
sg67
(lp7879
sg69
Nsg70
(lp7880
sbI-1
sg1
(g12
g3
NtRp7881
(dp7882
S'e'
g15
(tRp7883
S'_4'
p7884
g18
(tRp7885
S'w/world'
p7886
(lp7887
(tassS'_3'
p7888
g18
(tRp7889
S'c/class'
p7890
(lp7891
(tasS'mod'
p7892
(lp7893
(g7884
tp7894
assS'_2'
p7895
g18
(tRp7896
g1
(g112
g3
NtRp7897
(dp7898
g115
I0
sg116
S'A1-1'
p7899
sb(lp7900
(tassS'_1'
p7901
g18
(tRp7902
S'l2/light'
p7903
(lp7904
(tassS'_0'
p7905
g18
(tRp7906
S'ARG1'
p7907
(lp7908
(g7901
tp7909
asS'mod'
p7910
(lp7911
(g7888
tp7912
asS'ARG3'
p7913
(lp7914
(g7895
tp7915
asS's/show-04'
p7916
(lp7917
(tass(dp7918
g41
I00
sg42
I9
sg43
(dp7919
g7905
Nssg45
I0
sg46
Nsg47
(dp7920
sg49
(dp7921
sg51
Nsg52
(dp7922
sg55
(lp7923
g7905
asg57
(dp7924
sbsS'f'
(lp7925
g575
aS'world'
p7926
aS'-'
aS'class'
p7927
aS'light'
p7928
aS'show'
p7929
asg63
I0
sg64
I0
sg65
g575
sg67
(lp7930
sg69
Nsg70
(lp7931
sbI1
sg1
(g12
g3
NtRp7932
(dp7933
S'e'
g15
(tRp7934
S'_3'
p7935
g18
(tRp7936
S'n/now'
p7937
(lp7938
(tassS'_2'
p7939
g18
(tRp7940
S't2/they'
p7941
(lp7942
(tasS'time'
p7943
(lp7944
(g7935
tp7945
assS'_1'
p7946
g18
(tRp7947
S't/they'
p7948
(lp7949
(tassS'_0'
p7950
g18
(tRp7951
S'ARG1'
p7952
(lp7953
(g7946
tp7954
asS'ARG2'
p7955
(lp7956
(g7939
tp7957
asS'd/differ-02'
p7958
(lp7959
(tass(dp7960
g42
I7
sg51
Nsg47
(dp7961
sg57
(dp7962
sg41
I00
sg43
(dp7963
g7950
Nssg45
I0
sg46
Nsg55
(lp7964
g7950
asg49
(dp7965
sg52
(dp7966
sbsS'f'
(lp7967
S'they'
p7968
aS'going'
p7969
aS'to'
p7970
aS'be'
p7971
aS'different'
p7972
aS'from'
p7973
aS'what'
p7974
aS'they'
p7975
aS'are'
p7976
aS'now'
p7977
asg63
I0
sg64
I0
sg65
g6492
sg67
(lp7978
sg69
Nsg70
(lp7979
sbI-1
sg1
(g12
g3
NtRp7980
(dp7981
S'e'
g15
(tRp7982
S'_3'
p7983
g18
(tRp7984
S'l/low-04'
p7985
(lp7986
(tassS'_2'
p7987
g18
(tRp7988
S'ARG2'
p7989
(lp7990
(g7983
tp7991
asS'p/price-01'
p7992
(lp7993
(tassS'_1'
p7994
g18
(tRp7995
S'h/high-02'
p7996
(lp7997
(tassS'_0'
p7998
g18
(tRp7999
S'ARG1-of'
p8000
(lp8001
(g7994
tp8002
a(g7987
tp8003
asS'q/quality'
p8004
(lp8005
(tass(dp8006
g41
I00
sg42
I7
sg43
(dp8007
g7998
Nssg45
I0
sg46
Nsg47
(dp8008
sg49
(dp8009
sg51
Nsg52
(dp8010
sg55
(lp8011
g7998
asg57
(dp8012
sbsS'f'
(lp8013
S'high'
p8014
aS'quality'
p8015
aS'at'
p8016
aS'low'
p8017
aS'prices'
p8018
asg63
I0
sg64
I0
sg65
g575
sg67
(lp8019
sg69
Nsg70
(lp8020
sbI1
sg1
(g12
g3
NtRp8021
(dp8022
S'e'
g15
(tRp8023
S'_3'
p8024
g18
(tRp8025
S'p/perform-01'
p8026
(lp8027
(tassS'_2'
p8028
g18
(tRp8029
S's/stage'
p8030
(lp8031
(tasS'purpose'
p8032
(lp8033
(g8024
tp8034
assS'_1'
p8035
g18
(tRp8036
g1
(g112
g3
NtRp8037
(dp8038
g115
I0
sg116
S'A1-1'
p8039
sb(lp8040
(tassS'_0'
p8041
g18
(tRp8042
S'ARG1'
p8043
(lp8044
(g8035
tp8045
asS'ARG2'
p8046
(lp8047
(g8028
tp8048
asS't/transform-01'
p8049
(lp8050
(tass(dp8051
g42
I7
sg51
Nsg47
(dp8052
sg57
(dp8053
sg41
I00
sg43
(dp8054
g8041
Nssg45
I0
sg46
Nsg55
(lp8055
g8041
asg49
(dp8056
sg52
(dp8057
sbsS'f'
(lp8058
S'transform'
p8059
ag144
aS'into'
p8060
aS'a'
aS'performance'
p8061
aS'stage'
p8062
asg63
I0
sg64
I0
sg65
g144
sg67
(lp8063
sg69
Nsg70
(lp8064
sbI-1
sg1
(g12
g3
NtRp8065
(dp8066
S'e'
g15
(tRp8067
S'_2'
p8068
g18
(tRp8069
S'n/now'
p8070
(lp8071
(tassS'_1'
p8072
g18
(tRp8073
S't/they'
p8074
(lp8075
(tasS'time'
p8076
(lp8077
(g8068
tp8078
assS'_0'
p8079
g18
(tRp8080
S'ARG0'
p8081
(lp8082
(g8072
tp8083
asS'r/rehearse-01'
p8084
(lp8085
(tass(dp8086
g41
I00
sg42
I5
sg43
(dp8087
g8079
Nssg45
I0
sg46
Nsg47
(dp8088
sg49
(dp8089
sg51
Nsg52
(dp8090
sg55
(lp8091
g8079
asg57
(dp8092
sbsS'f'
(lp8093
S'they'
p8094
aS'are'
p8095
aS'now'
p8096
aS'rehearsing'
p8097
asg63
I0
sg64
I0
sg65
g575
sg67
(lp8098
sg69
Nsg70
(lp8099
sbI1
sg1
(g12
g3
NtRp8100
(dp8101
S'e'
g15
(tRp8102
S'_4'
p8103
g18
(tRp8104
S'ARG1'
p8105
(lp8106
(S'_2'
tp8107
asS'r/renovate-01'
p8108
(lp8109
(tassS'_3'
p8110
g18
(tRp8111
S'e/entire'
p8112
(lp8113
(tassS'_2'
p8114
g18
(tRp8115
S'p/park'
p8116
(lp8117
(tasS'mod'
p8118
(lp8119
(g8110
tp8120
assS'_1'
p8121
g18
(tRp8122
S'd/divide-02'
p8123
(lp8124
(tasS'ARG1'
p8125
(lp8126
(g8114
tp8127
assS'_0'
p8128
g18
(tRp8129
g1
(g112
g3
NtRp8130
(dp8131
g115
I0
sg116
S'A3-100'
p8132
sb(lp8133
(g8121
g8103
tp8134
ass(dp8135
g42
I8
sg51
Nsg47
(dp8136
sg57
(dp8137
sg41
I00
sg43
(dp8138
g8128
Nssg45
I0
sg46
Nsg55
(lp8139
g8128
asg49
(dp8140
sg52
(dp8141
sbsS'f'
(lp8142
S'entire'
p8143
aS'park'
p8144
aS'will'
p8145
aS'be'
p8146
aS'divided'
p8147
ag315
aS'renovation'
p8148
asg63
I0
sg64
I0
sg65
g144
sg67
(lp8149
sg69
Nsg70
(lp8150
sbI-1
sg1
(g12
g3
NtRp8151
(dp8152
S'e'
g15
(tRp8153
S'_6'
p8154
g18
(tRp8155
S'g/general-02'
p8156
(lp8157
(tassS'_5'
p8158
g18
(tRp8159
S'p2/public'
p8160
(lp8161
(tasS'mod'
p8162
(lp8163
(g8154
tp8164
assS'_4'
p8165
g18
(tRp8166
S'r/rich'
p8167
(lp8168
(tassS'_3'
p8169
g18
(tRp8170
S'o/or'
p8171
(lp8172
(tasS'op2'
p8173
(lp8174
(g8158
tp8175
asS'op1'
p8176
(lp8177
(g8165
tp8178
assS'_2'
p8179
g18
(tRp8180
S'i/it'
p8181
(lp8182
(tassS'_1'
p8183
g18
(tRp8184
S'interrogative'
p8185
(lp8186
(tassS'_0'
p8187
g18
(tRp8188
S'beneficiary'
p8189
(lp8190
(g8169
tp8191
asS'p/paradise'
p8192
(lp8193
(tasS'mode'
p8194
(lp8195
(g8183
tp8196
asS'domain'
p8197
(lp8198
(g8179
tp8199
ass(dp8200
g42
I13
sg51
Nsg47
(dp8201
sg57
(dp8202
sg41
I00
sg43
(dp8203
g8187
Nssg45
I0
sg46
Nsg55
(lp8204
g8187
asg49
(dp8205
sg52
(dp8206
sbsS'f'
(lp8207
S'Is'
p8208
aS'it'
p8209
aS'a'
aS'paradise'
p8210
aS'for'
p8211
aS'the'
p8212
aS'rich'
p8213
aS'or'
p8214
aS'the'
p8215
aS'general'
p8216
aS'public'
p8217
aS'?'
asg63
I0
sg64
I0
sg65
g144
sg67
(lp8218
sg69
Nsg70
(lp8219
sbI-1
sg1
(g12
g3
NtRp8220
(dp8221
S'e'
g15
(tRp8222
S'_3'
p8223
g18
(tRp8224
S'o4/old'
p8225
(lp8226
(tassS'_2'
p8227
g18
(tRp8228
S'c3/city'
p8229
(lp8230
(tassS'_1'
p8231
g18
(tRp8232
S'm/modern-02'
p8233
(lp8234
(tassS'_0'
p8235
g18
(tRp8236
S'ARG1'
p8237
(lp8238
(g8223
tp8239
asS'ARG2'
p8240
(lp8241
(g8231
tp8242
asS'b/blend-01'
p8243
(lp8244
(tasS'location'
p8245
(lp8246
(g8227
tp8247
ass(dp8248
g42
I7
sg51
Nsg47
(dp8249
sg57
(dp8250
sg41
I00
sg43
(dp8251
g8235
Nssg45
I0
sg46
Nsg55
(lp8252
g8235
asg49
(dp8253
sg52
(dp8254
sbsS'f'
(lp8255
S'city'
p8256
aS"'s"
p8257
aS'blend'
p8258
aS'of'
p8259
aS'the'
p8260
aS'old'
p8261
aS'and'
p8262
aS'the'
p8263
aS'modern'
p8264
asg63
I0
sg64
I0
sg65
S'[A1-1]'
p8265
sg67
(lp8266
sg69
Nsg70
(lp8267
sbI-1
sg1
(g12
g3
NtRp8268
(dp8269
S'e'
g15
(tRp8270
S'_3'
p8271
g18
(tRp8272
g1
(g112
g3
NtRp8273
(dp8274
g115
I0
sg116
S'A1-1'
p8275
sb(lp8276
(tassS'_2'
p8277
g18
(tRp8278
g1
(g112
g3
NtRp8279
(dp8280
g115
I1
sg116
S'A2-10'
p8281
sb(lp8282
(g8271
tp8283
assS'_1'
p8284
g18
(tRp8285
S't2/this'
p8286
(lp8287
(tassS'_0'
p8288
g18
(tRp8289
S'ARG0'
p8290
(lp8291
(g8284
tp8292
asS'ARG1'
p8293
(lp8294
(g8277
tp8295
asS'c4/cause-01'
p8296
(lp8297
(tass(dp8298
g42
I6
sg51
Nsg47
(dp8299
sg57
(dp8300
sg41
I00
sg43
(dp8301
g8288
Nssg45
I0
sg46
Nsg55
(lp8302
g8288
asg49
(dp8303
sg52
(dp8304
sbsS'f'
(lp8305
S'this'
p8306
aS'reason'
p8307
aS','
ag2402
aS'has'
p8308
aS'[A2-10]'
p8309
asg63
I0
sg64
I0
sg65
g2402
sg67
(lp8310
sg69
Nsg70
(lp8311
sbI-1
sg1
(g12
g3
NtRp8312
(dp8313
S'e'
g15
(tRp8314
S'_6'
p8315
g18
(tRp8316
S'm/most'
p8317
(lp8318
(tassS'_5'
p8319
g18
(tRp8320
S'f/far'
p8321
(lp8322
(tasS'degree'
p8323
(lp8324
(g8315
tp8325
assS'_4'
p8326
g18
(tRp8327
S'a/away'
p8328
(lp8329
(tasS'extent'
p8330
(lp8331
(g8319
tp8332
assS'_3'
p8333
g18
(tRp8334
sS'_2'
p8335
g18
(tRp8336
S'y/you'
p8337
(lp8338
(tassS'_1'
p8339
g18
(tRp8340
S's2/see-01'
p8341
(lp8342
(tasS'ARG0'
p8343
(lp8344
(g8335
tp8345
asS'direction'
p8346
(lp8347
(g8326
tp8348
asS'ARG1'
p8349
(lp8350
(g8333
tp8351
assS'_0'
p8352
g18
(tRp8353
S'ARG1'
p8354
(lp8355
(g8339
tp8356
asS'p2/possible-01'
p8357
(lp8358
(tass(dp8359
g41
I00
sg42
I12
sg43
(dp8360
g8352
Nssg45
I0
sg46
Nsg47
(dp8361
sg49
(dp8362
g8333
I0
ssg51
Nsg52
(dp8363
I0
S'_3'
p8364
ssg55
(lp8365
g8352
asg57
(dp8366
sbsS'f'
(lp8367
S'farthest'
p8368
aS'away'
p8369
aS'you'
p8370
aS'can'
p8371
aS'see'
p8372
asg63
I0
sg64
I0
sg65
g66
sg67
(lp8373
sg69
Nsg70
(lp8374
sbI1
sg1
(g12
g3
NtRp8375
(dp8376
S'e'
g15
(tRp8377
S'_4'
p8378
g18
(tRp8379
sS'_3'
p8380
g18
(tRp8381
sS'_2'
p8382
g18
(tRp8383
S'ARG1'
p8384
(lp8385
(g8380
tp8386
asS'ARG2'
p8387
(lp8388
(g8378
tp8389
asS's/succeed-03'
p8390
(lp8391
(tassS'_1'
p8392
g18
(tRp8393
g1
(g112
g3
NtRp8394
(dp8395
g115
I0
sg116
S'A1-1'
p8396
sb(lp8397
(tassS'_0'
p8398
g18
(tRp8399
g1
(g112
g3
NtRp8400
(dp8401
g115
I1
sg116
S'A3-111'
p8402
sb(lp8403
(S'_3'
S'_4'
tp8404
asS'manner'
p8405
(lp8406
(g8382
tp8407
asS'time'
p8408
(lp8409
(g8392
tp8410
ass(dp8411
g41
I00
sg42
I7
sg43
(dp8412
g8398
Nssg45
I0
sg46
Nsg47
(dp8413
sg49
(dp8414
sg51
Nsg52
(dp8415
sg55
(lp8416
g8398
asg57
(dp8417
sbsS'f'
(lp8418
g575
aS','
aS'the'
p8419
ag808
aS'in'
p8420
aS'succession'
p8421
asg63
I0
sg64
I0
sg65
g575
sg67
(lp8422
sg69
Nsg70
(lp8423
sbI1
sg1
(g12
g3
NtRp8424
(dp8425
S'e'
g15
(tRp8426
S'_5'
p8427
g18
(tRp8428
S'"Travel"'
p8429
(lp8430
(tassS'_4'
p8431
g18
(tRp8432
S'"World"'
p8433
(lp8434
(tassS'_3'
p8435
g18
(tRp8436
S'"New"'
p8437
(lp8438
(tassS'_2'
p8439
g18
(tRp8440
S'op3'
p8441
(lp8442
(g8427
tp8443
asS'n2/name'
p8444
(lp8445
(tasS'op2'
p8446
(lp8447
(g8431
tp8448
asS'op1'
p8449
(lp8450
(g8435
tp8451
assS'_1'
p8452
g18
(tRp8453
S'-'
(lp8454
(tassS'_0'
p8455
g18
(tRp8456
S'wiki'
p8457
(lp8458
(g8452
tp8459
asS'b/broadcast-program'
p8460
(lp8461
(tasS'name'
p8462
(lp8463
(g8439
tp8464
ass(dp8465
g41
I00
sg42
I11
sg43
(dp8466
sg45
I0
sg46
Nsg47
(dp8467
sg49
(dp8468
sg51
Nsg52
(dp8469
sg55
(lp8470
S'_0'
p8471
asg57
(dp8472
sbsS'f'
(lp8473
S'New'
p8474
aS'World'
p8475
aS'Travel'
p8476
asg63
I0
sg64
I0
sg65
g575
sg67
(lp8477
sg69
Nsg70
(lp8478
sbI1
sg1
(g12
g3
NtRp8479
(dp8480
S'e'
g15
(tRp8481
S'_5'
p8482
g18
(tRp8483
S'w/worldwide'
p8484
(lp8485
(tassS'_4'
p8486
g18
(tRp8487
S'a/attend-02'
p8488
(lp8489
(tasS'ARG1'
p8490
(lp8491
(S'_1'
tp8492
asS'mod'
p8493
(lp8494
(g8482
tp8495
assS'_3'
p8496
g18
(tRp8497
S'n/new'
p8498
(lp8499
(tassS'_2'
p8500
g18
(tRp8501
g1
(g112
g3
NtRp8502
(dp8503
g115
I0
sg116
S'A1-1'
p8504
sb(lp8505
(tassS'_1'
p8506
g18
(tRp8507
g1
(g112
g3
NtRp8508
(dp8509
g115
I1
sg116
S'A1-1'
p8510
sb(lp8511
(tasS'poss'
p8512
(lp8513
(g8500
tp8514
asS'mod'
p8515
(lp8516
(g8496
tp8517
assS'_0'
p8518
g18
(tRp8519
S'ARG0'
p8520
(lp8521
(g8506
tp8522
asS'ARG1'
p8523
(lp8524
(g8486
tp8525
asS'c3/capture-01'
p8526
(lp8527
(tass(dp8528
g42
I12
sg51
Nsg47
(dp8529
sg57
(dp8530
sg41
I00
sg43
(dp8531
g8518
Nssg45
I0
sg46
Nsg55
(lp8532
g8518
asg49
(dp8533
sg52
(dp8534
sbsS'f'
(lp8535
g144
aS"'s"
p8536
aS'new'
p8537
ag144
aS'time'
p8538
aS','
aS'has'
p8539
aS'captured'
p8540
aS'worldwide'
p8541
aS'attention'
p8542
asg63
I0
sg64
I0
sg65
g144
sg67
(lp8543
sg69
Nsg70
(lp8544
sbI-1
sg1
(g12
g3
NtRp8545
(dp8546
S'e'
g15
(tRp8547
S'_5'
p8548
g18
(tRp8549
g1
(g112
g3
NtRp8550
(dp8551
g115
I1
sg116
S'A1-1'
p8552
sb(lp8553
(tassS'_4'
p8554
g18
(tRp8555
S'ARG1'
p8556
(lp8557
(g8548
tp8558
asS'f/feel-01'
p8559
(lp8560
(tassS'_3'
p8561
g18
(tRp8562
g1
(g112
g3
NtRp8563
(dp8564
g115
I0
sg116
S'A1-1'
p8565
sb(lp8566
(tassS'_2'
p8567
g18
(tRp8568
S'ARG1'
p8569
(lp8570
(g8561
tp8571
asS'h/hop-02'
p8572
(lp8573
(tassS'_1'
p8574
g18
(tRp8575
S'a/and'
p8576
(lp8577
(tasS'op1'
p8578
(lp8579
(g8567
tp8580
asS'op2'
p8581
(lp8582
(g8554
tp8583
assS'_0'
p8584
g18
(tRp8585
S'o2/or'
p8586
(lp8587
(tasS'op2'
p8588
(lp8589
(g8574
tp8590
ass(dp8591
g41
I00
sg42
I11
sg43
(dp8592
g8584
Nssg45
I0
sg46
Nsg47
(dp8593
sg49
(dp8594
g8554
I0
ssg51
Nsg52
(dp8595
I0
S'_4'
p8596
ssg55
(lp8597
g8584
asg57
(dp8598
sbsS'f'
(lp8599
S'Or'
p8600
aS'hop'
p8601
aS'onto'
p8602
aS'a'
ag575
aS','
aS'and'
p8603
aS'feel'
p8604
aS'the'
p8605
ag575
asg63
I0
sg64
I0
sg65
g212
sg67
(lp8606
sg69
Nsg70
(lp8607
sbI1
sg1
(g12
g3
NtRp8608
(dp8609
S'e'
g15
(tRp8610
S'_5'
p8611
g18
(tRp8612
S'p/private-03'
p8613
(lp8614
(tassS'_4'
p8615
g18
(tRp8616
S'c/community'
p8617
(lp8618
(tassS'_3'
p8619
g18
(tRp8620
S'expressive'
p8621
(lp8622
(tassS'_2'
p8623
g18
(tRp8624
S'e/er'
p8625
(lp8626
(tasS'mode'
p8627
(lp8628
(g8619
tp8629
assS'_1'
p8630
g18
(tRp8631
S'mod'
p8632
(lp8633
(g8623
tp8634
assS'_0'
p8635
g18
(tRp8636
g1
(g112
g3
NtRp8637
(dp8638
g115
I0
sg116
S'A3-110'
p8639
sb(lp8640
(g8630
g8615
tp8641
asS'ARG1-of'
p8642
(lp8643
(g8611
tp8644
ass(dp8645
g41
I00
sg42
I8
sg43
(dp8646
g8635
Nssg45
I0
sg46
Nsg47
(dp8647
sg49
(dp8648
sg51
Nsg52
(dp8649
sg55
(lp8650
g8635
asg57
(dp8651
sbsS'f'
(lp8652
S'private'
p8653
aS','
aS'er'
p8654
aS','
ag756
aS'community'
p8655
asg63
I0
sg64
I0
sg65
g575
sg67
(lp8656
sg69
Nsg70
(lp8657
sbI1
sg1
(g12
g3
NtRp8658
(dp8659
S'e'
g15
(tRp8660
S'_4'
p8661
g18
(tRp8662
sS'_3'
p8663
g18
(tRp8664
S'a/abundance'
p8665
(lp8666
(tassS'_2'
p8667
g18
(tRp8668
S'mod'
p8669
(lp8670
(g8663
tp8671
assS'_1'
p8672
g18
(tRp8673
g1
(g112
g3
NtRp8674
(dp8675
g115
I0
sg116
S'A3-110'
p8676
sb(lp8677
(g8667
g8661
tp8678
assS'_0'
p8679
g18
(tRp8680
S'ARG0'
p8681
(lp8682
(g8672
tp8683
asS'c/cause-01'
p8684
(lp8685
(tass(dp8686
g41
I00
sg42
I5
sg43
(dp8687
g8679
Nssg45
I0
sg46
Nsg47
(dp8688
sg49
(dp8689
S'_4'
p8690
I0
ssg51
Nsg52
(dp8691
I0
g8690
ssg55
(lp8692
g8679
asg57
(dp8693
sbsS'f'
(lp8694
S'because'
p8695
aS'of'
p8696
aS'abundant'
p8697
ag756
asg63
I0
sg64
I0
sg65
g66
sg67
(lp8698
sg69
Nsg70
(lp8699
sbI1
sg1
(g12
g3
NtRp8700
(dp8701
S'e'
g15
(tRp8702
S'_7'
p8703
g18
(tRp8704
S'u/unique'
p8705
(lp8706
(tassS'_6'
p8707
g18
(tRp8708
S'"Ningxia"'
p8709
(lp8710
(tassS'_5'
p8711
g18
(tRp8712
S'n2/name'
p8713
(lp8714
(tasS'op1'
p8715
(lp8716
(g8707
tp8717
assS'_4'
p8718
g18
(tRp8719
S'"Ningxia"'
p8720
(lp8721
(tassS'_3'
p8722
g18
(tRp8723
S'wiki'
p8724
(lp8725
(g8718
tp8726
asS'c3/city'
p8727
(lp8728
(tasS'name'
p8729
(lp8730
(g8711
tp8731
assS'_2'
p8732
g18
(tRp8733
sS'_1'
p8734
g18
(tRp8735
S'a3/amr-unknown'
p8736
(lp8737
(tassS'_0'
p8738
g18
(tRp8739
S'ARG0'
p8740
(lp8741
(g8732
tp8742
asS'mod'
p8743
(lp8744
(g8703
tp8745
asS'manner'
p8746
(lp8747
(g8734
tp8748
asS'c2/charm-01'
p8749
(lp8750
(tasS'location'
p8751
(lp8752
(g8722
tp8753
ass(dp8754
g41
I00
sg42
I14
sg43
(dp8755
g8738
Nssg45
I0
sg46
Nsg47
(dp8756
sg49
(dp8757
g8732
I0
ssg51
Nsg52
(dp8758
I0
S'_2'
p8759
ssg55
(lp8760
g8738
asg57
(dp8761
sbsS'f'
(lp8762
S'what'
p8763
aS'is'
p8764
aS'the'
p8765
aS'unique'
p8766
aS'charm'
p8767
aS'in'
p8768
aS'Ningxia'
p8769
aS'of'
p8770
asg63
I0
sg64
I0
sg65
g66
sg67
(lp8771
sg69
Nsg70
(lp8772
sbI1
sg1
(g12
g3
NtRp8773
(dp8774
S'e'
g15
(tRp8775
S'_2'
p8776
g18
(tRp8777
S'p/person'
p8778
(lp8779
(tassS'_1'
p8780
g18
(tRp8781
S'ARG0'
p8782
(lp8783
(g8776
tp8784
asS'e/experience-01'
p8785
(lp8786
(tassS'_0'
p8787
g18
(tRp8788
S'ARG1-of'
p8789
(lp8790
(g8780
tp8791
ass(dp8792
g41
I00
sg42
I4
sg43
(dp8793
g8787
Nssg45
I0
sg46
Nsg47
(dp8794
sg49
(dp8795
g8776
I0
ssg51
Nsg52
(dp8796
I0
S'_2'
p8797
ssg55
(lp8798
g8787
asg57
(dp8799
sbsS'f'
(lp8800
S'for'
p8801
aS'people'
p8802
aS'to'
p8803
aS'experience'
p8804
asg63
I0
sg64
I0
sg65
S'[A2-01]'
p8805
sg67
(lp8806
sg69
Nsg70
(lp8807
sbI1
sg1
(g12
g3
NtRp8808
(dp8809
S'e'
g15
(tRp8810
S'_5'
p8811
g18
(tRp8812
S'm/most'
p8813
(lp8814
(tassS'_4'
p8815
g18
(tRp8816
S'f/far'
p8817
(lp8818
(tasS'degree'
p8819
(lp8820
(g8811
tp8821
assS'_3'
p8822
g18
(tRp8823
S'a/away'
p8824
(lp8825
(tasS'extent'
p8826
(lp8827
(g8815
tp8828
assS'_2'
p8829
g18
(tRp8830
S'direction'
p8831
(lp8832
(g8822
tp8833
assS'_1'
p8834
g18
(tRp8835
S'l2/last'
p8836
(lp8837
(tassS'_0'
p8838
g18
(tRp8839
g1
(g112
g3
NtRp8840
(dp8841
g115
I0
sg116
S'A2-11'
p8842
sb(lp8843
(g8829
tp8844
asS'li'
p8845
(lp8846
(g8834
tp8847
ass(dp8848
g42
I9
sg51
Nsg47
(dp8849
sg57
(dp8850
sg41
I00
sg43
(dp8851
g8838
Nssg45
I0
sg46
Nsg55
(lp8852
g8838
asg49
(dp8853
sg52
(dp8854
sbsS'f'
(lp8855
S'Lastly'
p8856
aS','
aS'farthest'
p8857
aS'away'
p8858
aS'[A2-11]'
p8859
asg63
I0
sg64
I0
sg65
g6492
sg67
(lp8860
sg69
Nsg70
(lp8861
sbI-1
sg1
(g12
g3
NtRp8862
(dp8863
S'e'
g15
(tRp8864
S'_5'
p8865
g18
(tRp8866
S't/this'
p8867
(lp8868
(tassS'_4'
p8869
g18
(tRp8870
S'w/we'
p8871
(lp8872
(tassS'_3'
p8873
g18
(tRp8874
S'1999'
p8875
(lp8876
(tassS'_2'
p8877
g18
(tRp8878
S'd2/date-entity'
p8879
(lp8880
(tasS'year'
p8881
(lp8882
(g8873
tp8883
assS'_1'
p8884
g18
(tRp8885
S's2/since'
p8886
(lp8887
(tasS'op1'
p8888
(lp8889
(g8877
tp8890
assS'_0'
p8891
g18
(tRp8892
S'ARG0'
p8893
(lp8894
(g8869
tp8895
asS's/see-01'
p8896
(lp8897
(tasS'ARG1'
p8898
(lp8899
(g8865
tp8900
asS'time'
p8901
(lp8902
(g8884
tp8903
ass(dp8904
g42
I11
sg51
Nsg47
(dp8905
sg57
(dp8906
sg41
I00
sg43
(dp8907
g8891
Nssg45
I0
sg46
Nsg55
(lp8908
g8891
asg49
(dp8909
sg52
(dp8910
sbsS'f'
(lp8911
S'This'
p8912
aS'is'
p8913
aS'what'
p8914
aS'we'
p8915
aS'have'
p8916
aS'seen'
p8917
aS'since'
p8918
aS'1999'
p8919
asg63
I0
sg64
I0
sg65
S'[A1-1]'
p8920
sg67
(lp8921
sg69
Nsg70
(lp8922
sbI-1
sg1
(g12
g3
NtRp8923
(dp8924
S'e'
g15
(tRp8925
S'_4'
p8926
g18
(tRp8927
sS'_3'
p8928
g18
(tRp8929
S'l/light'
p8930
(lp8931
(tassS'_2'
p8932
g18
(tRp8933
sS'_1'
p8934
g18
(tRp8935
S'a2/and'
p8936
(lp8937
(tasS'op1'
p8938
(lp8939
(g8932
tp8940
asS'op2'
p8941
(lp8942
(g8928
tp8943
assS'_0'
p8944
g18
(tRp8945
S'ARG1'
p8946
(lp8947
(g8934
tp8948
asS'a/arrange-01'
p8949
(lp8950
(tasS'ARG4'
p8951
(lp8952
(g8926
tp8953
ass(dp8954
g41
I00
sg42
I7
sg43
(dp8955
g8944
Nssg45
I0
sg46
Nsg47
(dp8956
sg49
(dp8957
g8926
I2
sg8932
I1
sg8934
I0
ssg51
Nsg52
(dp8958
I0
S'_1'
p8959
sI1
S'_2'
p8960
sI2
S'_4'
p8961
ssg55
(lp8962
g8944
asg57
(dp8963
sbsS'f'
(lp8964
S'and'
p8965
aS'lights'
p8966
aS'are'
p8967
aS'arranged'
p8968
aS'to'
p8969
asg63
I0
sg64
I0
sg65
g4082
sg67
(lp8970
sg69
Nsg70
(lp8971
sbI1
sg1
(g12
g3
NtRp8972
(dp8973
S'e'
g15
(tRp8974
S'_3'
p8975
g18
(tRp8976
S'g/ground'
p8977
(lp8978
(tassS'_2'
p8979
g18
(tRp8980
S'b/break-01'
p8981
(lp8982
(tasS'ARG1'
p8983
(lp8984
(g8975
tp8985
assS'_1'
p8986
g18
(tRp8987
S'ARG1'
p8988
(lp8989
(g8979
tp8990
asS's/start-01'
p8991
(lp8992
(tassS'_0'
p8993
g18
(tRp8994
S'ARG1'
p8995
(lp8996
(g8986
tp8997
asS'e/expect-01'
p8998
(lp8999
(tass(dp9000
g42
I7
sg51
Nsg47
(dp9001
sg57
(dp9002
sg41
I00
sg43
(dp9003
g8993
Nssg45
I0
sg46
Nsg55
(lp9004
g8993
asg49
(dp9005
g8986
I0
ssg52
(dp9006
I0
S'_1'
p9007
ssbsS'f'
(lp9008
S'expected'
p9009
aS'to'
p9010
aS'start'
p9011
asg63
I0
sg64
I0
sg65
g546
sg67
(lp9012
sg69
Nsg70
(lp9013
sbI-1
sg1
(g12
g3
NtRp9014
(dp9015
S'e'
g15
(tRp9016
S'_4'
p9017
g18
(tRp9018
S't/this'
p9019
(lp9020
(tassS'_3'
p9021
g18
(tRp9022
S'c/city'
p9023
(lp9024
(tasS'mod'
p9025
(lp9026
(g9017
tp9027
assS'_2'
p9028
g18
(tRp9029
S'l/love-01'
p9030
(lp9031
(tasS'ARG0'
p9032
(lp9033
(S'_1'
tp9034
assS'_1'
p9035
g18
(tRp9036
sS'_0'
p9037
g18
(tRp9038
S'topic'
p9039
(lp9040
(g9021
tp9041
asg1
(g112
g3
NtRp9042
(dp9043
g115
I1
sg116
S'A2-01'
p9044
sb(lp9045
(g9035
tp9046
asS'ARG1-of'
p9047
(lp9048
(g9028
tp9049
asg1
(g112
g3
NtRp9050
(dp9051
g115
I0
sg116
S'A1-1'
p9052
sb(lp9053
(tass(dp9054
g41
I00
sg42
I9
sg43
(dp9055
g9037
Nssg45
I0
sg46
Nsg47
(dp9056
sg49
(dp9057
sg51
Nsg52
(dp9058
sg55
(lp9059
g9037
asg57
(dp9060
sbsS'f'
(lp9061
g575
ag8805
aS'and'
p9062
aS'to'
p9063
aS'love'
p9064
aS'about'
p9065
aS'this'
p9066
aS'city'
p9067
asg63
I0
sg64
I0
sg65
g575
sg67
(lp9068
sg69
Nsg70
(lp9069
sbI1
sg1
(g12
g3
NtRp9070
(dp9071
S'e'
g15
(tRp9072
S'_5'
p9073
g18
(tRp9074
g1
(g112
g3
NtRp9075
(dp9076
g115
I0
sg116
S'A1-1'
p9077
sb(lp9078
(tassS'_4'
p9079
g18
(tRp9080
g1
(g112
g3
NtRp9081
(dp9082
g115
I1
sg116
S'A1-1'
p9083
sb(lp9084
(tasS'poss'
p9085
(lp9086
(g9073
tp9087
assS'_3'
p9088
g18
(tRp9089
S'p2/panoramic'
p9090
(lp9091
(tassS'_2'
p9092
g18
(tRp9093
S'ARG1'
p9094
(lp9095
(g9079
tp9096
asS'v3/view-01'
p9097
(lp9098
(tasS'mod'
p9099
(lp9100
(g9088
tp9101
assS'_1'
p9102
g18
(tRp9103
sS'_0'
p9104
g18
(tRp9105
S'ARG0'
p9106
(lp9107
(g9102
tp9108
asS'ARG1'
p9109
(lp9110
(g9092
tp9111
asS'g/get-01'
p9112
(lp9113
(tass(dp9114
g41
I00
sg42
I10
sg43
(dp9115
g9104
Nssg45
I0
sg46
Nsg47
(dp9116
sg49
(dp9117
g9102
I0
ssg51
Nsg52
(dp9118
I0
S'_1'
p9119
ssg55
(lp9120
g9104
asg57
(dp9121
sbsS'f'
(lp9122
S'get'
p9123
aS'a'
aS'panoramic'
p9124
aS'view'
p9125
aS'of'
p9126
ag575
aS"'s"
p9127
ag575
asg63
I0
sg64
I0
sg65
g66
sg67
(lp9128
sg69
Nsg70
(lp9129
sbI1
sg1
(g12
g3
NtRp9130
(dp9131
S'e'
g15
(tRp9132
S'_7'
p9133
g18
(tRp9134
S'interrogative'
p9135
(lp9136
(tassS'_6'
p9137
g18
(tRp9138
S'e2/er'
p9139
(lp9140
(tasS'mode'
p9141
(lp9142
(g9133
tp9143
assS'_5'
p9144
g18
(tRp9145
S'p2/perform-01'
p9146
(lp9147
(tassS'_4'
p9148
g18
(tRp9149
S'p/person'
p9150
(lp9151
(tasS'ARG0-of'
p9152
(lp9153
(g9144
tp9154
assS'_3'
p9155
g18
(tRp9156
S'e/each'
p9157
(lp9158
(tassS'_2'
p9159
g18
(tRp9160
S'k/key-02'
p9161
(lp9162
(tasS'mod'
p9163
(lp9164
(g9155
tp9165
assS'_1'
p9166
g18
(tRp9167
S'ARG1-of'
p9168
(lp9169
(g9159
tp9170
asS'b/building'
p9171
(lp9172
(tassS'_0'
p9173
g18
(tRp9174
S'ARG1'
p9175
(lp9176
(g9166
tp9177
asS'ARG2'
p9178
(lp9179
(g9148
tp9180
asS'r/resemble-01'
p9181
(lp9182
(tasS'mod'
p9183
(lp9184
(g9137
tp9185
ass(dp9186
g42
I15
sg51
Nsg47
(dp9187
sg57
(dp9188
sg41
I00
sg43
(dp9189
g9173
Nssg45
I0
sg46
Nsg55
(lp9190
g9173
asg49
(dp9191
sg52
(dp9192
sbsS'f'
(lp9193
S'Er'
p9194
aS','
aS'each'
p9195
aS'key'
p9196
aS'building'
p9197
aS'is'
p9198
aS'like'
p9199
aS'a'
aS'performer'
p9200
asg63
I0
sg64
I0
sg65
g144
sg67
(lp9201
sg69
Nsg70
(lp9202
sbI-1
sg1
(g12
g3
NtRp9203
(dp9204
S'e'
g15
(tRp9205
S'_5'
p9206
g18
(tRp9207
S'p/picture'
p9208
(lp9209
(tassS'_4'
p9210
g18
(tRp9211
g1
(g112
g3
NtRp9212
(dp9213
g115
I0
sg116
S'A2-01'
p9214
sb(lp9215
(S'_1'
tp9216
asS'ARG1'
p9217
(lp9218
(g9206
tp9219
asS't/take-01'
p9220
(lp9221
(tassS'_3'
p9222
g18
(tRp9223
S'b/big'
p9224
(lp9225
(tassS'_2'
p9226
g18
(tRp9227
S'mod'
p9228
(lp9229
(g9222
tp9230
asS'h/hassle-02'
p9231
(lp9232
(tassS'_1'
p9233
g18
(tRp9234
S'ARG0-of'
p9235
(lp9236
(g9226
tp9237
assS'_0'
p9238
g18
(tRp9239
S'ARG1'
p9240
(lp9241
(g9233
tp9242
asS'ARG2'
p9243
(lp9244
(g9210
tp9245
asS'h2/have-condition-91'
p9246
(lp9247
(tass(dp9248
g41
I00
sg42
I11
sg43
(dp9249
g9238
Nssg45
I0
sg46
Nsg47
(dp9250
sg49
(dp9251
sg51
Nsg52
(dp9252
sg55
(lp9253
g9238
asg57
(dp9254
sbsS'f'
(lp9255
S'If'
p9256
aS'pictures'
p9257
aS'are'
p9258
aS'taken'
p9259
ag8805
aS','
aS'a'
aS'big'
p9260
aS'hassle'
p9261
asg63
I0
sg64
I0
sg65
g575
sg67
(lp9262
sg69
Nsg70
(lp9263
sbI1
sg1
(g12
g3
NtRp9264
(dp9265
S'e'
g15
(tRp9266
S'_3'
p9267
g18
(tRp9268
S'2'
(lp9269
(tassS'_2'
p9270
g18
(tRp9271
S't3/temporal-quantity'
p9272
(lp9273
(tasS'quant'
p9274
(lp9275
(g9267
tp9276
assS'_1'
p9277
g18
(tRp9278
S'a/about'
p9279
(lp9280
(tasS'op1'
p9281
(lp9282
(g9270
tp9283
assS'_0'
p9284
g18
(tRp9285
S'p2/point'
p9286
(lp9287
(tasS'quant'
p9288
(lp9289
(g9277
tp9290
ass(dp9291
g42
I7
sg51
Nsg47
(dp9292
sg57
(dp9293
sg41
I00
sg43
(dp9294
g9284
Nssg45
I0
sg46
Nsg55
(lp9295
g9284
asg49
(dp9296
g9270
I0
ssg52
(dp9297
I0
S'_2'
p9298
ssbsS'f'
(lp9299
S'point'
p9300
aS','
aS'it'
p9301
aS'has'
p9302
aS'been'
p9303
aS'about'
p9304
aS'two'
p9305
asg63
I0
sg64
I0
sg65
g546
sg67
(lp9306
sg69
Nsg70
(lp9307
sbI-1
sg1
(g12
g3
NtRp9308
(dp9309
S'e'
g15
(tRp9310
S'_3'
p9311
g18
(tRp9312
S'w/we'
p9313
(lp9314
(tassS'_2'
p9315
g18
(tRp9316
S't/tourism'
p9317
(lp9318
(tassS'_1'
p9319
g18
(tRp9320
S'z/zone'
p9321
(lp9322
(tasS'mod'
p9323
(lp9324
(g9315
tp9325
assS'_0'
p9326
g18
(tRp9327
S'poss'
p9328
(lp9329
(g9311
tp9330
asS'c4/concept'
p9331
(lp9332
(tasS'mod'
p9333
(lp9334
(g9319
tp9335
ass(dp9336
g41
I00
sg42
I7
sg43
(dp9337
g9326
Nssg45
I0
sg46
Nsg47
(dp9338
sg49
(dp9339
sg51
Nsg52
(dp9340
sg55
(lp9341
g9326
asg57
(dp9342
sbsS'f'
(lp9343
S'our'
p9344
aS'concept'
p9345
aS'is'
p9346
aS'a'
aS'tourism'
p9347
aS'zone'
p9348
asg63
I0
sg64
I0
sg65
g575
sg67
(lp9349
sg69
Nsg70
(lp9350
sbI1
sg1
(g12
g3
NtRp9351
(dp9352
S'e'
g15
(tRp9353
S'_2'
p9354
g18
(tRp9355
g1
(g112
g3
NtRp9356
(dp9357
g115
I0
sg116
S'A1-1'
p9358
sb(lp9359
(tassS'_1'
p9360
g18
(tRp9361
sS'_0'
p9362
g18
(tRp9363
S'ARG1'
p9364
(lp9365
(g9354
tp9366
asS'ARG2'
p9367
(lp9368
(g9360
tp9369
asS'p/position-01'
p9370
(lp9371
(tass(dp9372
g41
I00
sg42
I4
sg43
(dp9373
g9362
Nssg45
I0
sg46
Nsg47
(dp9374
sg49
(dp9375
g9360
I0
ssg51
Nsg52
(dp9376
I0
S'_1'
p9377
ssg55
(lp9378
g9362
asg57
(dp9379
sbsS'f'
(lp9380
S'position'
p9381
aS'of'
p9382
ag575
aS'as'
p9383
asg63
I0
sg64
I0
sg65
g66
sg67
(lp9384
sg69
Nsg70
(lp9385
sbI1
sg1
(g12
g3
NtRp9386
(dp9387
S'e'
g15
(tRp9388
S'_4'
p9389
g18
(tRp9390
S'r/renovate-01'
p9391
(lp9392
(tassS'_3'
p9393
g18
(tRp9394
S'm/major-02'
p9395
(lp9396
(tassS'_2'
p9397
g18
(tRp9398
S'ARG1'
p9399
(lp9400
(g9389
tp9401
asS'ARG1-of'
p9402
(lp9403
(g9393
tp9404
asS'p/plan-01'
p9405
(lp9406
(tassS'_1'
p9407
g18
(tRp9408
S'mod'
p9409
(lp9410
(g9397
tp9411
assS'_0'
p9412
g18
(tRp9413
g1
(g112
g3
NtRp9414
(dp9415
g115
I0
sg116
S'A2-01'
p9416
sb(lp9417
(g9407
tp9418
asS's2/seem-01'
p9419
(lp9420
(tass(dp9421
g42
I8
sg51
Nsg47
(dp9422
sg57
(dp9423
sg41
I00
sg43
(dp9424
g9412
Nssg45
I0
sg46
Nsg55
(lp9425
g9412
asg49
(dp9426
sg52
(dp9427
sbsS'f'
(lp9428
S'seems'
p9429
aS'that'
p9430
aS'[A2-01]'
p9431
aS','
aS'a'
aS'major'
p9432
aS'renovation'
p9433
aS'plan'
p9434
asg63
I0
sg64
I0
sg65
g6492
sg67
(lp9435
sg69
Nsg70
(lp9436
sbI-1
sg1
(g12
g3
NtRp9437
(dp9438
S'e'
g15
(tRp9439
S'_4'
p9440
g18
(tRp9441
g1
(g112
g3
NtRp9442
(dp9443
g115
I1
sg116
S'A1-1'
p9444
sb(lp9445
(tassS'_3'
p9446
g18
(tRp9447
S'part-of'
p9448
(lp9449
(g9440
tp9450
asS'z/zone'
p9451
(lp9452
(tassS'_2'
p9453
g18
(tRp9454
S't2/then'
p9455
(lp9456
(tassS'_1'
p9457
g18
(tRp9458
S's/since'
p9459
(lp9460
(tasS'op1'
p9461
(lp9462
(g9453
tp9463
assS'_0'
p9464
g18
(tRp9465
g1
(g112
g3
NtRp9466
(dp9467
g115
I0
sg116
S'A2-10'
p9468
sb(lp9469
(g9446
tp9470
asS'time'
p9471
(lp9472
(g9457
tp9473
ass(dp9474
g41
I00
sg42
I8
sg43
(dp9475
g9464
Nssg45
I0
sg46
Nsg47
(dp9476
sg49
(dp9477
sg51
Nsg52
(dp9478
sg55
(lp9479
g9464
asg57
(dp9480
sbsS'f'
(lp9481
S'Since'
p9482
aS'then'
p9483
aS','
ag66
aS'zone'
p9484
aS'in'
p9485
ag575
asg63
I0
sg64
I0
sg65
g575
sg67
(lp9486
sg69
Nsg70
(lp9487
sbI1
sg1
(g12
g3
NtRp9488
(dp9489
S'e'
g15
(tRp9490
S'_4'
p9491
g18
(tRp9492
S'h/here'
p9493
(lp9494
(tassS'_3'
p9495
g18
(tRp9496
S'p2/public'
p9497
(lp9498
(tasS'location'
p9499
(lp9500
(g9491
tp9501
assS'_2'
p9502
g18
(tRp9503
sS'_1'
p9504
g18
(tRp9505
S's/soon'
p9506
(lp9507
(tassS'_0'
p9508
g18
(tRp9509
S'o2/open-01'
p9510
(lp9511
(tasS'ARG1'
p9512
(lp9513
(g9502
tp9514
asS'ARG3'
p9515
(lp9516
(g9495
tp9517
asS'time'
p9518
(lp9519
(g9504
tp9520
ass(dp9521
g42
I8
sg51
Nsg47
(dp9522
sg57
(dp9523
sg41
I00
sg43
(dp9524
g9508
Nssg45
I0
sg46
Nsg55
(lp9525
g9508
asg49
(dp9526
g9502
I0
ssg52
(dp9527
I0
S'_2'
p9528
ssbsS'f'
(lp9529
S'soon'
p9530
aS'open'
p9531
aS'to'
p9532
aS'the'
p9533
aS'public'
p9534
aS'here'
p9535
asg63
I0
sg64
I0
sg65
S'[A2-10]'
p9536
sg67
(lp9537
sg69
Nsg70
(lp9538
sbI-1
sg1
(g12
g3
NtRp9539
(dp9540
S'e'
g15
(tRp9541
S'_9'
p9542
g18
(tRp9543
S'"Shenzhen"'
p9544
(lp9545
(tassS'_8'
p9546
g18
(tRp9547
S'n2/name'
p9548
(lp9549
(tasS'op1'
p9550
(lp9551
(g9542
tp9552
assS'_7'
p9553
g18
(tRp9554
S'"Shenzhen"'
p9555
(lp9556
(tassS'_6'
p9557
g18
(tRp9558
S'wiki'
p9559
(lp9560
(g9553
tp9561
asS'c/city'
p9562
(lp9563
(tasS'name'
p9564
(lp9565
(g9546
tp9566
assS'_5'
p9567
g18
(tRp9568
S'"Putian"'
p9569
(lp9570
(tassS'_4'
p9571
g18
(tRp9572
S'n/name'
p9573
(lp9574
(tasS'op1'
p9575
(lp9576
(g9567
tp9577
assS'_3'
p9578
g18
(tRp9579
S'"Putian"'
p9580
(lp9581
(tassS'_2'
p9582
g18
(tRp9583
S'c2/city'
p9584
(lp9585
(tasS'wiki'
p9586
(lp9587
(g9578
tp9588
asS'name'
p9589
(lp9590
(g9571
tp9591
asS'mod'
p9592
(lp9593
(g9557
tp9594
assS'_1'
p9595
g18
(tRp9596
S'l2/last'
p9597
(lp9598
(tassS'_0'
p9599
g18
(tRp9600
g1
(g112
g3
NtRp9601
(dp9602
g115
I0
sg116
S'A2-10'
p9603
sb(lp9604
(g9582
tp9605
asS'li'
p9606
(lp9607
(g9595
tp9608
ass(dp9609
g41
I00
sg42
I18
sg43
(dp9610
g9599
Nssg45
I0
sg46
Nsg47
(dp9611
sg49
(dp9612
sg51
Nsg52
(dp9613
sg55
(lp9614
g9599
asg57
(dp9615
sbsS'f'
(lp9616
S'Lastly'
p9617
aS','
ag66
aS'Putian'
p9618
aS'of'
p9619
aS'Shenzhen'
p9620
asg63
I0
sg64
I0
sg65
g575
sg67
(lp9621
sg69
Nsg70
(lp9622
sbI1
sg1
(g12
g3
NtRp9623
(dp9624
S'e'
g15
(tRp9625
S'_5'
p9626
g18
(tRp9627
S't/they'
p9628
(lp9629
(tassS'_4'
p9630
g18
(tRp9631
S'poss'
p9632
(lp9633
(g9626
tp9634
assS'_3'
p9635
g18
(tRp9636
S'o/overall'
p9637
(lp9638
(tassS'_2'
p9639
g18
(tRp9640
S'w2/we'
p9641
(lp9642
(tassS'_1'
p9643
g18
(tRp9644
S'p2/project'
p9645
(lp9646
(tasS'poss'
p9647
(lp9648
(g9639
tp9649
asS'mod'
p9650
(lp9651
(g9635
tp9652
assS'_0'
p9653
g18
(tRp9654
g1
(g112
g3
NtRp9655
(dp9656
g115
I0
sg116
S'A3-101'
p9657
sb(lp9658
(g9643
g9630
tp9659
ass(dp9660
g41
I00
sg42
I8
sg43
(dp9661
g9653
Nssg45
I0
sg46
Nsg47
(dp9662
sg49
(dp9663
sg51
Nsg52
(dp9664
sg55
(lp9665
g9653
asg57
(dp9666
sbsS'f'
(lp9667
S'Their'
p9668
ag2444
aS'our'
p9669
aS'overall'
p9670
aS'project'
p9671
asg63
I0
sg64
I0
sg65
g575
sg67
(lp9672
sg69
Nsg70
(lp9673
sbI1
sg1
(g12
g3
NtRp9674
(dp9675
S'e'
g15
(tRp9676
S'_2'
p9677
g18
(tRp9678
sS'_1'
p9679
g18
(tRp9680
S'e2/entire'
p9681
(lp9682
(tassS'_0'
p9683
g18
(tRp9684
S'c2/construct-01'
p9685
(lp9686
(tasS'ARG1'
p9687
(lp9688
(g9677
tp9689
asS'extent'
p9690
(lp9691
(g9679
tp9692
ass(dp9693
g41
I00
sg42
I4
sg43
(dp9694
g9683
Nssg45
I0
sg46
Nsg47
(dp9695
sg49
(dp9696
g9677
I0
ssg51
Nsg52
(dp9697
I0
S'_2'
p9698
ssg55
(lp9699
g9683
asg57
(dp9700
sbsS'f'
(lp9701
S"'s"
p9702
aS'entire'
p9703
aS'construction'
p9704
asg63
I0
sg64
I0
sg65
g66
sg67
(lp9705
sg69
Nsg70
(lp9706
sbI1
sg1
(g12
g3
NtRp9707
(dp9708
S'e'
g15
(tRp9709
S'_4'
p9710
g18
(tRp9711
S'expressive'
p9712
(lp9713
(tassS'_3'
p9714
g18
(tRp9715
S'e/er'
p9716
(lp9717
(tasS'mode'
p9718
(lp9719
(g9710
tp9720
assS'_2'
p9721
g18
(tRp9722
S'f/fascinate-01'
p9723
(lp9724
(tasS'mod'
p9725
(lp9726
(g9714
tp9727
assS'_1'
p9728
g18
(tRp9729
g1
(g112
g3
NtRp9730
(dp9731
g115
I1
sg116
S'A1-1'
p9732
sb(lp9733
(tasS'ARG0-of'
p9734
(lp9735
(g9721
tp9736
assS'_0'
p9737
g18
(tRp9738
g1
(g112
g3
NtRp9739
(dp9740
g115
I0
sg116
S'A2-10'
p9741
sb(lp9742
(g9728
tp9743
ass(dp9744
g41
I00
sg42
I8
sg43
(dp9745
g9737
Nssg45
I0
sg46
Nsg47
(dp9746
sg49
(dp9747
sg51
Nsg52
(dp9748
sg55
(lp9749
g9737
asg57
(dp9750
sbsS'f'
(lp9751
g66
aS','
aS'er'
p9752
aS','
aS'and'
p9753
aS'fascinating'
p9754
ag575
asg63
I0
sg64
I0
sg65
g575
sg67
(lp9755
sg69
Nsg70
(lp9756
sbI1
sg1
(g12
g3
NtRp9757
(dp9758
S'e'
g15
(tRp9759
S'_4'
p9760
g18
(tRp9761
S'f/future'
p9762
(lp9763
(tassS'_3'
p9764
g18
(tRp9765
S's/scheme'
p9766
(lp9767
(tasS'purpose'
p9768
(lp9769
(g9760
tp9770
assS'_2'
p9771
g18
(tRp9772
S'w/we'
p9773
(lp9774
(tassS'_1'
p9775
g18
(tRp9776
S'ARG0'
p9777
(lp9778
(g9771
tp9779
asS'ARG1'
p9780
(lp9781
(g9764
tp9782
asS'h/have-03'
p9783
(lp9784
(tassS'_0'
p9785
g18
(tRp9786
S'ARG1'
p9787
(lp9788
(g9775
tp9789
ass(dp9790
g42
I8
sg51
Nsg47
(dp9791
sg57
(dp9792
sg41
I00
sg43
(dp9793
g9785
Nssg45
I0
sg46
Nsg55
(lp9794
g9785
asg49
(dp9795
g9764
I0
ssg52
(dp9796
I0
S'_3'
p9797
ssbsS'f'
(lp9798
S'for'
p9799
aS'the'
p9800
aS'future'
p9801
aS','
aS'we'
p9802
aS'have'
p9803
aS'a'
aS'scheme'
p9804
asg63
I0
sg64
I0
sg65
S'[A2-01]'
p9805
sg67
(lp9806
sg69
Nsg70
(lp9807
sbI-1
sg1
(g12
g3
NtRp9808
(dp9809
S'e'
g15
(tRp9810
S'_2'
p9811
g18
(tRp9812
sS'_1'
p9813
g18
(tRp9814
S'w/we'
p9815
(lp9816
(tassS'_0'
p9817
g18
(tRp9818
S'ARG0'
p9819
(lp9820
(g9813
tp9821
asS's/see-01'
p9822
(lp9823
(tasS'ARG1'
p9824
(lp9825
(g9811
tp9826
ass(dp9827
g41
I00
sg42
I4
sg43
(dp9828
g9817
Nssg45
I0
sg46
Nsg47
(dp9829
sg49
(dp9830
g9811
I0
ssg51
Nsg52
(dp9831
I0
S'_2'
p9832
ssg55
(lp9833
g9817
asg57
(dp9834
sbsS'f'
(lp9835
S'we'
p9836
aS'have'
p9837
aS'seen'
p9838
asg63
I0
sg64
I0
sg65
g66
sg67
(lp9839
sg69
Nsg70
(lp9840
sbI1
sg1
(g12
g3
NtRp9841
(dp9842
S'e'
g15
(tRp9843
S'_3'
p9844
g18
(tRp9845
S'c/city'
p9846
(lp9847
(tassS'_2'
p9848
g18
(tRp9849
S'quant-of'
p9850
(lp9851
(g9844
tp9852
assS'_1'
p9853
g18
(tRp9854
sS'_0'
p9855
g18
(tRp9856
S'ARG1'
p9857
(lp9858
(g9848
tp9859
asS'ARG3'
p9860
(lp9861
(g9853
tp9862
asS'i/increase-01'
p9863
(lp9864
(tass(dp9865
g41
I00
sg42
I5
sg43
(dp9866
g9855
Nssg45
I0
sg46
Nsg47
(dp9867
sg49
(dp9868
g9848
I0
sg9853
I1
ssg51
Nsg52
(dp9869
I0
S'_2'
p9870
sI1
S'_1'
p9871
ssg55
(lp9872
g9855
asg57
(dp9873
sbsS'f'
(lp9874
S'cities'
p9875
aS'will'
p9876
aS'be'
p9877
aS'increased'
p9878
asg63
I0
sg64
I0
sg65
g2167
sg67
(lp9879
sg69
Nsg70
(lp9880
sbI1
sg1
(g12
g3
NtRp9881
(dp9882
S'e'
g15
(tRp9883
S'_3'
p9884
g18
(tRp9885
g1
(g112
g3
NtRp9886
(dp9887
g115
I0
sg116
S'A1-1'
p9888
sb(lp9889
(tassS'_2'
p9890
g18
(tRp9891
S'expressive'
p9892
(lp9893
(tassS'_1'
p9894
g18
(tRp9895
S'a/Ah'
p9896
(lp9897
(tasS'mode'
p9898
(lp9899
(g9890
tp9900
assS'_0'
p9901
g18
(tRp9902
S'snt2'
p9903
(lp9904
(g9884
tp9905
asS'snt1'
p9906
(lp9907
(g9894
tp9908
asS'm/multi-sentence'
p9909
(lp9910
(tass(dp9911
g41
I00
sg42
I7
sg43
(dp9912
g9901
Nssg45
I0
sg46
Nsg47
(dp9913
sg49
(dp9914
sg51
Nsg52
(dp9915
sg55
(lp9916
g9901
asg57
(dp9917
sbsS'f'
(lp9918
S'Ah'
p9919
aS','
aS'[A1-1]'
p9920
asg63
I0
sg64
I0
sg65
g9920
sg67
(lp9921
sg69
Nsg70
(lp9922
sbI1
sg1
(g12
g3
NtRp9923
(dp9924
S'e'
g15
(tRp9925
S'_5'
p9926
g18
(tRp9927
sS'_4'
p9928
g18
(tRp9929
S'ARG1'
p9930
(lp9931
(g9926
tp9932
assS'_3'
p9933
g18
(tRp9934
S'm/more'
p9935
(lp9936
(tassS'_2'
p9937
g18
(tRp9938
S'n2/new'
p9939
(lp9940
(tasS'degree'
p9941
(lp9942
(g9933
tp9943
assS'_1'
p9944
g18
(tRp9945
S'mod'
p9946
(lp9947
(g9937
tp9948
assS'_0'
p9949
g18
(tRp9950
S'ARG1'
p9951
(lp9952
(S'_5'
tp9953
asg1
(g112
g3
NtRp9954
(dp9955
g115
I0
sg116
S'A3-111'
p9956
sb(lp9957
(g9944
g9928
tp9958
ass(dp9959
g41
I00
sg42
I7
sg43
(dp9960
g9949
Nssg45
I0
sg46
Nsg47
(dp9961
sg49
(dp9962
g9926
I0
sS'_1'
p9963
I1
ssg51
Nsg52
(dp9964
I0
S'_5'
p9965
sI1
g9963
ssg55
(lp9966
g9949
asg57
(dp9967
sbsS'f'
(lp9968
S'newer'
p9969
aS','
ag808
aS'for'
p9970
asg63
I0
sg64
I0
sg65
g2444
sg67
(lp9971
sg69
Nsg70
(lp9972
sbI1
sg1
(g12
g3
NtRp9973
(dp9974
S'e'
g15
(tRp9975
S'_5'
p9976
g18
(tRp9977
S'w/we'
p9978
(lp9979
(tassS'_4'
p9980
g18
(tRp9981
S't/tourism'
p9982
(lp9983
(tassS'_3'
p9984
g18
(tRp9985
S'z/zone'
p9986
(lp9987
(tasS'mod'
p9988
(lp9989
(g9980
tp9990
assS'_2'
p9991
g18
(tRp9992
g1
(g112
g3
NtRp9993
(dp9994
g115
I0
sg116
S'A1-1'
p9995
sb(lp9996
(tassS'_1'
p9997
g18
(tRp9998
S'p/perspective'
p9999
(lp10000
(tasS'poss'
p10001
(lp10002
(g9991
tp10003
assS'_0'
p10004
g18
(tRp10005
S'poss'
p10006
(lp10007
(g9976
tp10008
asS'manner'
p10009
(lp10010
(g9997
tp10011
asS'c4/concept'
p10012
(lp10013
(tasS'mod'
p10014
(lp10015
(g9984
tp10016
ass(dp10017
g42
I11
sg51
Nsg47
(dp10018
sg57
(dp10019
sg41
I00
sg43
(dp10020
g10004
Nssg45
I0
sg46
Nsg55
(lp10021
g10004
asg49
(dp10022
sg52
(dp10023
sbsS'f'
(lp10024
S'perspective'
p10025
aS'of'
p10026
aS'either'
p10027
ag2267
aS','
aS'our'
p10028
aS'concept'
p10029
aS'is'
p10030
aS'a'
aS'tourism'
p10031
aS'zone'
p10032
asg63
I0
sg64
I0
sg65
g2267
sg67
(lp10033
sg69
Nsg70
(lp10034
sbI-1
sg1
(g12
g3
NtRp10035
(dp10036
S'e'
g15
(tRp10037
S'_2'
p10038
g18
(tRp10039
g1
(g112
g3
NtRp10040
(dp10041
g115
I0
sg116
S'A1-1'
p10042
sb(lp10043
(tassS'_1'
p10044
g18
(tRp10045
S'n2/nowadays'
p10046
(lp10047
(tassS'_0'
p10048
g18
(tRp10049
S'c4/child'
p10050
(lp10051
(tasS'location'
p10052
(lp10053
(g10038
tp10054
asS'time'
p10055
(lp10056
(g10044
tp10057
ass(dp10058
g42
I5
sg51
Nsg47
(dp10059
sg57
(dp10060
sg41
I00
sg43
(dp10061
g10048
Nssg45
I0
sg46
Nsg55
(lp10062
g10048
asg49
(dp10063
sg52
(dp10064
sbsS'f'
(lp10065
g144
aS'children'
p10066
aS'nowadays'
p10067
asg63
I0
sg64
I0
sg65
g144
sg67
(lp10068
sg69
Nsg70
(lp10069
sbI-1
sg1
(g12
g3
NtRp10070
(dp10071
S'e'
g15
(tRp10072
S'_5'
p10073
g18
(tRp10074
S'2006'
p10075
(lp10076
(tassS'_4'
p10077
g18
(tRp10078
S'year'
p10079
(lp10080
(g10073
tp10081
assS'_3'
p10082
g18
(tRp10083
S'ARG1'
p10084
(lp10085
(g10077
tp10086
asS'b3/begin-01'
p10087
(lp10088
(tassS'_2'
p10089
g18
(tRp10090
sS'_1'
p10091
g18
(tRp10092
sS'_0'
p10093
g18
(tRp10094
g1
(g112
g3
NtRp10095
(dp10096
g115
I0
sg116
S'A4-1010'
p10097
sb(lp10098
(g10091
g10089
g10082
tp10099
ass(dp10100
g41
I00
sg42
I5
sg43
(dp10101
g10093
Nssg45
I0
sg46
Nsg47
(dp10102
sg49
(dp10103
g10077
I2
sS'_2'
p10104
I1
sS'_1'
p10105
I0
ssg51
Nsg52
(dp10106
I0
g10105
sI1
g10104
sI2
S'_4'
p10107
ssg55
(lp10108
g10093
asg57
(dp10109
sbsS'f'
(lp10110
g4192
aS'the'
p10111
aS'beginning'
p10112
aS'of'
p10113
aS'2006'
p10114
asg63
I0
sg64
I0
sg65
g4192
sg67
(lp10115
sg69
Nsg70
(lp10116
sbI1
sg1
(g12
g3
NtRp10117
(dp10118
S'e'
g15
(tRp10119
S'_5'
p10120
g18
(tRp10121
S'p2'
p10122
(lp10123
(tassS'_4'
p10124
g18
(tRp10125
S'ARG1'
p10126
(lp10127
(g10120
tp10128
asS'a2/awe-01'
p10129
(lp10130
(tassS'_3'
p10131
g18
(tRp10132
S'p2'
p10133
(lp10134
(tassS'_2'
p10135
g18
(tRp10136
S'ARG0'
p10137
(lp10138
(g10131
tp10139
asS'w/wonder-02'
p10140
(lp10141
(tassS'_1'
p10142
g18
(tRp10143
S'a/and'
p10144
(lp10145
(tassS'_0'
p10146
g18
(tRp10147
g1
(g112
g3
NtRp10148
(dp10149
g115
I0
sg116
S'A4-1000'
p10150
sb(lp10151
(g10142
g10135
g10124
tp10152
ass(dp10153
g41
I00
sg42
I8
sg43
(dp10154
g10146
Nssg45
I0
sg46
Nsg47
(dp10155
sg49
(dp10156
sg51
Nsg52
(dp10157
sg55
(lp10158
g10146
asg57
(dp10159
sbsS'f'
(lp10160
g5944
aS'them'
p10161
aS'is'
p10162
aS'wonder'
p10163
aS'and'
p10164
aS'awe'
p10165
asg63
I0
sg64
I0
sg65
g575
sg67
(lp10166
sg69
Nsg70
(lp10167
sbI1
sg1
(g12
g3
NtRp10168
(dp10169
S'e'
g15
(tRp10170
S'_1'
p10171
g18
(tRp10172
S'm3/multi'
p10173
(lp10174
(tassS'_0'
p10175
g18
(tRp10176
S'm2/media'
p10177
(lp10178
(tasS'mod'
p10179
(lp10180
(g10171
tp10181
ass(dp10182
g41
I00
sg42
I3
sg43
(dp10183
g10175
Nssg45
I0
sg46
Nsg47
(dp10184
sg49
(dp10185
sg51
Nsg52
(dp10186
sg55
(lp10187
g10175
asg57
(dp10188
sbsS'f'
(lp10189
S'multi'
p10190
aS'@-@'
p10191
aS'media'
p10192
asg63
I0
sg64
I0
sg65
g575
sg67
(lp10193
sg69
Nsg70
(lp10194
sbI1
sg1
(g12
g3
NtRp10195
(dp10196
S'e'
g15
(tRp10197
S'_5'
p10198
g18
(tRp10199
S'a/area'
p10200
(lp10201
(tassS'_4'
p10202
g18
(tRp10203
sS'_3'
p10204
g18
(tRp10205
S'ARG2'
p10206
(lp10207
(g10202
tp10208
assS'_2'
p10209
g18
(tRp10210
g1
(g112
g3
NtRp10211
(dp10212
g115
I0
sg116
S'A1-1'
p10213
sb(lp10214
(tassS'_1'
p10215
g18
(tRp10216
g1
(g112
g3
NtRp10217
(dp10218
g115
I1
sg116
S'A3-101'
p10219
sb(lp10220
(g10209
g10204
tp10221
assS'_0'
p10222
g18
(tRp10223
S'ARG0'
p10224
(lp10225
(g10215
tp10226
asS's/surprise-01'
p10227
(lp10228
(tasS'mod'
p10229
(lp10230
(g10198
tp10231
ass(dp10232
g41
I00
sg42
I7
sg43
(dp10233
g10222
Nssg45
I0
sg46
Nsg47
(dp10234
sg49
(dp10235
g10198
I1
sg10202
I0
ssg51
Nsg52
(dp10236
I0
S'_4'
p10237
sI1
S'_5'
p10238
ssg55
(lp10239
g10222
asg57
(dp10240
sbsS'f'
(lp10241
S'area'
p10242
aS'of'
p10243
aS'surprise'
p10244
aS'was'
p10245
aS'that'
p10246
aS'those'
p10247
ag575
aS','
ag2444
aS'in'
p10248
asg63
I0
sg64
I0
sg65
g2444
sg67
(lp10249
sg69
Nsg70
(lp10250
sbI1
sg1
(g12
g3
NtRp10251
(dp10252
S'e'
g15
(tRp10253
S'_8'
p10254
g18
(tRp10255
sS'_7'
p10256
g18
(tRp10257
S'ARG2'
p10258
(lp10259
(g10254
tp10260
assS'_6'
p10261
g18
(tRp10262
S'p/private-03'
p10263
(lp10264
(tassS'_5'
p10265
g18
(tRp10266
S'c/community'
p10267
(lp10268
(tassS'_4'
p10269
g18
(tRp10270
S'expressive'
p10271
(lp10272
(tassS'_3'
p10273
g18
(tRp10274
S'e/er'
p10275
(lp10276
(tasS'mode'
p10277
(lp10278
(g10269
tp10279
assS'_2'
p10280
g18
(tRp10281
S'mod'
p10282
(lp10283
(g10273
tp10284
assS'_1'
p10285
g18
(tRp10286
g1
(g112
g3
NtRp10287
(dp10288
g115
I0
sg116
S'A3-110'
p10289
sb(lp10290
(g10280
g10265
tp10291
asS'ARG1-of'
p10292
(lp10293
(g10261
tp10294
assS'_0'
p10295
g18
(tRp10296
g1
(g112
g3
NtRp10297
(dp10298
g115
I1
sg116
S'A3-101'
p10299
sb(lp10300
(g10285
g10256
tp10301
ass(dp10302
g42
I10
sg51
Nsg47
(dp10303
sg57
(dp10304
sg41
I00
sg43
(dp10305
g10295
Nssg45
I0
sg46
Nsg55
(lp10306
g10295
asg49
(dp10307
g10254
I0
ssg52
(dp10308
I0
S'_8'
p10309
ssbsS'f'
(lp10310
S'private'
p10311
aS','
aS'er'
p10312
aS','
aS'[A3-110]'
p10313
aS'community'
p10314
aS','
ag267
aS'in'
p10315
asg63
I0
sg64
I0
sg65
g703
sg67
(lp10316
sg69
Nsg70
(lp10317
sbI-1
sg1
(g12
g3
NtRp10318
(dp10319
S'e'
g15
(tRp10320
S'_6'
p10321
g18
(tRp10322
S'p/perform-01'
p10323
(lp10324
(tassS'_5'
p10325
g18
(tRp10326
S's/stage'
p10327
(lp10328
(tasS'purpose'
p10329
(lp10330
(g10321
tp10331
assS'_4'
p10332
g18
(tRp10333
g1
(g112
g3
NtRp10334
(dp10335
g115
I0
sg116
S'A1-1'
p10336
sb(lp10337
(tassS'_3'
p10338
g18
(tRp10339
S'ARG1'
p10340
(lp10341
(g10332
tp10342
asS'ARG2'
p10343
(lp10344
(g10325
tp10345
asS't/transform-01'
p10346
(lp10347
(tassS'_2'
p10348
g18
(tRp10349
S'1'
(lp10350
(tassS'_1'
p10351
g18
(tRp10352
S'domain'
p10353
(lp10354
(g10338
tp10355
asS'i/idea'
p10356
(lp10357
(tasS'quant'
p10358
(lp10359
(g10348
tp10360
assS'_0'
p10361
g18
(tRp10362
S'ARG1'
p10363
(lp10364
(g10351
tp10365
asS'i2/infer-01'
p10366
(lp10367
(tass(dp10368
g41
I00
sg42
I13
sg43
(dp10369
g10361
Nssg45
I0
sg46
Nsg47
(dp10370
sg49
(dp10371
sg51
Nsg52
(dp10372
sg55
(lp10373
g10361
asg57
(dp10374
sbsS'f'
(lp10375
S'one'
p10376
aS'idea'
p10377
aS'was'
p10378
aS'to'
p10379
aS'transform'
p10380
ag575
aS'into'
p10381
aS'a'
aS'performance'
p10382
aS'stage'
p10383
asg63
I0
sg64
I0
sg65
g575
sg67
(lp10384
sg69
Nsg70
(lp10385
sbI1
sg1
(g12
g3
NtRp10386
(dp10387
S'e'
g15
(tRp10388
S'_4'
p10389
g18
(tRp10390
S'ARG1'
p10391
(lp10392
(S'_2'
tp10393
asS'r/renovate-01'
p10394
(lp10395
(tassS'_3'
p10396
g18
(tRp10397
S'e/entire'
p10398
(lp10399
(tassS'_2'
p10400
g18
(tRp10401
S'p/park'
p10402
(lp10403
(tasS'mod'
p10404
(lp10405
(g10396
tp10406
assS'_1'
p10407
g18
(tRp10408
S'd/divide-02'
p10409
(lp10410
(tasS'ARG1'
p10411
(lp10412
(g10400
tp10413
asS'purpose'
p10414
(lp10415
(g10389
tp10416
assS'_0'
p10417
g18
(tRp10418
g1
(g112
g3
NtRp10419
(dp10420
g115
I0
sg116
S'A2-10'
p10421
sb(lp10422
(g10407
tp10423
ass(dp10424
g41
I00
sg42
I9
sg43
(dp10425
g10417
Nssg45
I0
sg46
Nsg47
(dp10426
sg49
(dp10427
sg51
Nsg52
(dp10428
sg55
(lp10429
g10417
asg57
(dp10430
sbsS'f'
(lp10431
S'entire'
p10432
aS'park'
p10433
aS'will'
p10434
aS'be'
p10435
aS'divided'
p10436
ag66
aS'for'
p10437
aS'renovation'
p10438
asg63
I0
sg64
I0
sg65
g575
sg67
(lp10439
sg69
Nsg70
(lp10440
sbI1
sg1
(g12
g3
NtRp10441
(dp10442
S'e'
g15
(tRp10443
S'_2'
p10444
g18
(tRp10445
sS'_1'
p10446
g18
(tRp10447
S'e/especially'
p10448
(lp10449
(tassS'_0'
p10450
g18
(tRp10451
S'ARG1'
p10452
(lp10453
(g10444
tp10454
asS'f/forbid-01'
p10455
(lp10456
(tasS'mod'
p10457
(lp10458
(g10446
tp10459
ass(dp10460
g41
I00
sg42
I4
sg43
(dp10461
g10450
Nssg45
I0
sg46
Nsg47
(dp10462
sg49
(dp10463
g10444
I0
ssg51
Nsg52
(dp10464
I0
S'_2'
p10465
ssg55
(lp10466
g10450
asg57
(dp10467
sbsS'f'
(lp10468
S'especially'
p10469
aS'forbidden'
p10470
asg63
I0
sg64
I0
sg65
g66
sg67
(lp10471
sg69
Nsg70
(lp10472
sbI1
sg1
(g12
g3
NtRp10473
(dp10474
S'e'
g15
(tRp10475
S'_4'
p10476
g18
(tRp10477
S'7'
(lp10478
(tassS'_3'
p10479
g18
(tRp10480
S'quant'
p10481
(lp10482
(g10476
tp10483
asS's/section'
p10484
(lp10485
(tassS'_2'
p10486
g18
(tRp10487
sS'_1'
p10488
g18
(tRp10489
S'ARG2'
p10490
(lp10491
(g10479
tp10492
asS'purpose'
p10493
(lp10494
(g10486
tp10495
assS'_0'
p10496
g18
(tRp10497
S'ARG2'
p10498
(lp10499
(g10488
tp10500
asS'm/mean-01'
p10501
(lp10502
(tass(dp10503
g42
I7
sg51
Nsg47
(dp10504
sg57
(dp10505
sg41
I00
sg43
(dp10506
g10496
Nssg45
I0
sg46
Nsg55
(lp10507
g10496
asg49
(dp10508
g10486
I1
sg10488
I0
ssg52
(dp10509
I0
S'_1'
p10510
sI1
S'_2'
p10511
ssbsS'f'
(lp10512
S'into'
p10513
aS'seven'
p10514
aS'sections'
p10515
aS'for'
p10516
asg63
I0
sg64
I0
sg65
g315
sg67
(lp10517
sg69
Nsg70
(lp10518
sbI-1
sg1
(g12
g3
NtRp10519
(dp10520
S'e'
g15
(tRp10521
S'_3'
p10522
g18
(tRp10523
g1
(g112
g3
NtRp10524
(dp10525
g115
I0
sg116
S'A1-1'
p10526
sb(lp10527
(tassS'_2'
p10528
g18
(tRp10529
S'a/aviary'
p10530
(lp10531
(tasS'mod'
p10532
(lp10533
(g10522
tp10534
assS'_1'
p10535
g18
(tRp10536
S'r2/result-01'
p10537
(lp10538
(tassS'_0'
p10539
g18
(tRp10540
S'ARG1'
p10541
(lp10542
(g10528
tp10543
asS'ARG2-of'
p10544
(lp10545
(g10535
tp10546
asS'b/build-01'
p10547
(lp10548
(tass(dp10549
g42
I7
sg51
Nsg47
(dp10550
sg57
(dp10551
sg41
I00
sg43
(dp10552
g10539
Nssg45
I0
sg46
Nsg55
(lp10553
g10539
asg49
(dp10554
sg52
(dp10555
sbsS'f'
(lp10556
S'result'
p10557
aS','
ag144
aS'of'
p10558
aS'aviaries'
p10559
aS'were'
p10560
aS'built'
p10561
asg63
I0
sg64
I0
sg65
g144
sg67
(lp10562
sg69
Nsg70
(lp10563
sbI-1
sg1
(g12
g3
NtRp10564
(dp10565
S'e'
g15
(tRp10566
S'_1'
p10567
g18
(tRp10568
S'b/beautiful-02'
p10569
(lp10570
(tassS'_0'
p10571
g18
(tRp10572
S's/scenery'
p10573
(lp10574
(tasS'ARG1-of'
p10575
(lp10576
(g10567
tp10577
ass(dp10578
g41
I00
sg42
I3
sg43
(dp10579
g10571
Nssg45
I0
sg46
Nsg47
(dp10580
sg49
(dp10581
sg51
Nsg52
(dp10582
sg55
(lp10583
g10571
asg57
(dp10584
sbsS'f'
(lp10585
S'beautiful'
p10586
aS'scenery'
p10587
asg63
I0
sg64
I0
sg65
g575
sg67
(lp10588
sg69
Nsg70
(lp10589
sbI1
sg1
(g12
g3
NtRp10590
(dp10591
S'e'
g15
(tRp10592
S'_6'
p10593
g18
(tRp10594
S's2/seat-01'
p10595
(lp10596
(tassS'_5'
p10597
g18
(tRp10598
g1
(g112
g3
NtRp10599
(dp10600
g115
I1
sg116
S'A1-1'
p10601
sb(lp10602
(tassS'_4'
p10603
g18
(tRp10604
S'o/outdoor'
p10605
(lp10606
(tassS'_3'
p10607
g18
(tRp10608
g1
(g112
g3
NtRp10609
(dp10610
g115
I2
sg116
S'A1-1'
p10611
sb(lp10612
(tasS'ARG1-of'
p10613
(lp10614
(g10593
tp10615
asS'location'
p10616
(lp10617
(g10603
tp10618
asS'mod'
p10619
(lp10620
(g10597
tp10621
assS'_2'
p10622
g18
(tRp10623
S'm2/most'
p10624
(lp10625
(tassS'_1'
p10626
g18
(tRp10627
S'e/early'
p10628
(lp10629
(tasS'degree'
p10630
(lp10631
(g10622
tp10632
assS'_0'
p10633
g18
(tRp10634
g1
(g112
g3
NtRp10635
(dp10636
g115
I0
sg116
S'A2-10'
p10637
sb(lp10638
(g10607
tp10639
asS'time'
p10640
(lp10641
(g10626
tp10642
ass(dp10643
g42
I12
sg51
Nsg47
(dp10644
sg57
(dp10645
sg41
I00
sg43
(dp10646
g10633
Nssg45
I0
sg46
Nsg55
(lp10647
g10633
asg49
(dp10648
sg52
(dp10649
sbsS'f'
(lp10650
S'earliest'
p10651
aS'to'
p10652
ag2551
ag2267
aS'outdoor'
p10653
aS'seated'
p10654
ag2267
asg63
I0
sg64
I0
sg65
g2267
sg67
(lp10655
sg69
Nsg70
(lp10656
sbI-1
sg1
(g12
g3
NtRp10657
(dp10658
S'e'
g15
(tRp10659
S'_3'
p10660
g18
(tRp10661
sS'_2'
p10662
g18
(tRp10663
sS'_1'
p10664
g18
(tRp10665
S'p/place'
p10666
(lp10667
(tassS'_0'
p10668
g18
(tRp10669
S'ARG0'
p10670
(lp10671
(g10664
tp10672
asS'ARG1'
p10673
(lp10674
(g10662
tp10675
asS'ARG2'
p10676
(lp10677
(g10660
tp10678
asS'b/bring-01'
p10679
(lp10680
(tass(dp10681
g42
I5
sg51
Nsg47
(dp10682
sg57
(dp10683
sg41
I00
sg43
(dp10684
g10668
Nssg45
I0
sg46
Nsg55
(lp10685
g10668
asg49
(dp10686
g10660
I2
sg10662
I1
sg10664
I0
ssg52
(dp10687
I0
S'_1'
p10688
sI1
S'_2'
p10689
sI2
S'_3'
p10690
ssbsS'f'
(lp10691
S'place'
p10692
aS'brings'
p10693
asg63
I0
sg64
I0
sg65
g5355
sg67
(lp10694
sg69
Nsg70
(lp10695
sbI-1
sg1
(g12
g3
NtRp10696
(dp10697
S'e'
g15
(tRp10698
S'_5'
p10699
g18
(tRp10700
S'r/respect-01'
p10701
(lp10702
(tassS'_4'
p10703
g18
(tRp10704
g1
(g112
g3
NtRp10705
(dp10706
g115
I1
sg116
S'A1-1'
p10707
sb(lp10708
(tassS'_3'
p10709
g18
(tRp10710
g1
(g112
g3
NtRp10711
(dp10712
g115
I0
sg116
S'A3-110'
p10713
sb(lp10714
(S'_2'
g10703
tp10715
assS'_2'
p10716
g18
(tRp10717
sS'_1'
p10718
g18
(tRp10719
S'w/we'
p10720
(lp10721
(tassS'_0'
p10722
g18
(tRp10723
S'ARG0'
p10724
(lp10725
(g10718
tp10726
asS'ARG1'
p10727
(lp10728
(g10716
tp10729
asS'i/invite-01'
p10730
(lp10731
(tasS'ARG2'
p10732
(lp10733
(g10709
tp10734
asS'manner'
p10735
(lp10736
(g10699
tp10737
ass(dp10738
g41
I00
sg42
I9
sg43
(dp10739
g10722
Nssg45
I0
sg46
Nsg47
(dp10740
sg49
(dp10741
sg51
Nsg52
(dp10742
sg55
(lp10743
g10722
asg57
(dp10744
sbsS'f'
(lp10745
S'We'
p10746
aS'respectfully'
p10747
aS'invite'
p10748
ag756
ag575
asg63
I0
sg64
I0
sg65
g575
sg67
(lp10749
sg69
Nsg70
(lp10750
sbI1
sg1
(g12
g3
NtRp10751
(dp10752
S'e'
g15
(tRp10753
S'_5'
p10754
g18
(tRp10755
S'w/world'
p10756
(lp10757
(tassS'_4'
p10758
g18
(tRp10759
S'c/class'
p10760
(lp10761
(tasS'mod'
p10762
(lp10763
(g10754
tp10764
assS'_3'
p10765
g18
(tRp10766
S'm3/multi'
p10767
(lp10768
(tassS'_2'
p10769
g18
(tRp10770
S'm2/media'
p10771
(lp10772
(tasS'mod'
p10773
(lp10774
(g10765
tp10775
assS'_1'
p10776
g18
(tRp10777
S'l2/light'
p10778
(lp10779
(tassS'_0'
p10780
g18
(tRp10781
S'ARG1'
p10782
(lp10783
(g10776
tp10784
asS'ARG3'
p10785
(lp10786
(g10769
tp10787
asS's/show-04'
p10788
(lp10789
(tasS'mod'
p10790
(lp10791
(g10758
tp10792
ass(dp10793
g42
I11
sg51
Nsg47
(dp10794
sg57
(dp10795
sg41
I00
sg43
(dp10796
g10780
Nssg45
I0
sg46
Nsg55
(lp10797
g10780
asg49
(dp10798
sg52
(dp10799
sbsS'f'
(lp10800
S'multi'
p10801
aS'@-@'
p10802
aS'media'
p10803
aS'world'
p10804
aS'-'
aS'class'
p10805
aS'light'
p10806
aS'show'
p10807
asg63
I0
sg64
I0
sg65
g144
sg67
(lp10808
sg69
Nsg70
(lp10809
sbI-1
sg1
(g12
g3
NtRp10810
(dp10811
S'e'
g15
(tRp10812
S'_6'
p10813
g18
(tRp10814
S'b/beautiful-02'
p10815
(lp10816
(tassS'_5'
p10817
g18
(tRp10818
g1
(g112
g3
NtRp10819
(dp10820
g115
I0
sg116
S'A1-1'
p10821
sb(lp10822
(tassS'_4'
p10823
g18
(tRp10824
S's/scenery'
p10825
(lp10826
(tasS'ARG1-of'
p10827
(lp10828
(g10813
tp10829
asS'poss'
p10830
(lp10831
(g10817
tp10832
assS'_3'
p10833
g18
(tRp10834
S'p2/panoramic'
p10835
(lp10836
(tassS'_2'
p10837
g18
(tRp10838
S'ARG1'
p10839
(lp10840
(g10823
tp10841
asS'v3/view-01'
p10842
(lp10843
(tasS'mod'
p10844
(lp10845
(g10833
tp10846
assS'_1'
p10847
g18
(tRp10848
sS'_0'
p10849
g18
(tRp10850
S'ARG0'
p10851
(lp10852
(g10847
tp10853
asS'ARG1'
p10854
(lp10855
(g10837
tp10856
asS'g/get-01'
p10857
(lp10858
(tass(dp10859
g42
I12
sg51
Nsg47
(dp10860
sg57
(dp10861
sg41
I00
sg43
(dp10862
g10849
Nssg45
I0
sg46
Nsg55
(lp10863
g10849
asg49
(dp10864
g10847
I0
ssg52
(dp10865
I0
S'_1'
p10866
ssbsS'f'
(lp10867
S'get'
p10868
aS'a'
aS'panoramic'
p10869
aS'view'
p10870
aS'of'
p10871
ag2267
aS"'s"
p10872
aS'beautiful'
p10873
aS'scenery'
p10874
asg63
I0
sg64
I0
sg65
g2551
sg67
(lp10875
sg69
Nsg70
(lp10876
sbI-1
sg1
(g12
g3
NtRp10877
(dp10878
S'e'
g15
(tRp10879
S'_8'
p10880
g18
(tRp10881
S't/this'
p10882
(lp10883
(tassS'_7'
p10884
g18
(tRp10885
S'mod'
p10886
(lp10887
(g10880
tp10888
assS'_6'
p10889
g18
(tRp10890
S'ARG0'
p10891
(lp10892
(S'_1'
tp10893
asS'ARG1'
p10894
(lp10895
(g10884
tp10896
asS'p/package-01'
p10897
(lp10898
(tassS'_5'
p10899
g18
(tRp10900
S's/software'
p10901
(lp10902
(tassS'_4'
p10903
g18
(tRp10904
S'h2/hardware'
p10905
(lp10906
(tassS'_3'
p10907
g18
(tRp10908
g1
(g112
g3
NtRp10909
(dp10910
g115
I1
sg116
S'A3-100'
p10911
sb(lp10912
(g10903
g10899
tp10913
assS'_2'
p10914
g18
(tRp10915
S'domain'
p10916
(lp10917
(g10907
tp10918
asS'v/variety'
p10919
(lp10920
(tassS'_1'
p10921
g18
(tRp10922
S'w/we'
p10923
(lp10924
(tassS'_0'
p10925
g18
(tRp10926
g1
(g112
g3
NtRp10927
(dp10928
g115
I0
sg116
S'A4-1000'
p10929
sb(lp10930
(g10921
g10914
g10889
tp10931
ass(dp10932
g42
I12
sg51
Nsg47
(dp10933
sg57
(dp10934
sg41
I00
sg43
(dp10935
g10925
Nssg45
I0
sg46
Nsg55
(lp10936
g10925
asg49
(dp10937
g10884
I0
ssg52
(dp10938
I0
S'_7'
p10939
ssbsS'f'
(lp10940
S'We'
p10941
aS'[A4-1000]'
p10942
aS','
aS'a'
aS'variety'
p10943
aS'of'
p10944
aS'hardware'
p10945
ag315
aS'software'
p10946
aS'to'
p10947
aS'package'
p10948
aS'this'
p10949
asg63
I0
sg64
I0
sg65
g703
sg67
(lp10950
sg69
Nsg70
(lp10951
sbI-1
sg1
(g12
g3
NtRp10952
(dp10953
S'e'
g15
(tRp10954
S'_9'
p10955
g18
(tRp10956
sS'_8'
p10957
g18
(tRp10958
sS'_7'
p10959
g18
(tRp10960
S'ARG1'
p10961
(lp10962
(g10957
tp10963
asS'ARG2'
p10964
(lp10965
(g10955
tp10966
asS's/succeed-03'
p10967
(lp10968
(tassS'_6'
p10969
g18
(tRp10970
g1
(g112
g3
NtRp10971
(dp10972
g115
I1
sg116
S'A1-1'
p10973
sb(lp10974
(tassS'_5'
p10975
g18
(tRp10976
S't/this'
p10977
(lp10978
(tassS'_4'
p10979
g18
(tRp10980
S'g2/giant'
p10981
(lp10982
(tassS'_3'
p10983
g18
(tRp10984
S'mod'
p10985
(lp10986
(g10979
tp10987
a(g10975
tp10988
asg1
(g112
g3
NtRp10989
(dp10990
g115
I0
sg116
S'A1-1'
p10991
sb(lp10992
(tassS'_2'
p10993
g18
(tRp10994
S'ARG1'
p10995
(lp10996
(g10983
tp10997
asS'ARG4'
p10998
(lp10999
(g10969
tp11000
asS's3/settle-03'
p11001
(lp11002
(tassS'_1'
p11003
g18
(tRp11004
S's2/since'
p11005
(lp11006
(tasS'op1'
p11007
(lp11008
(g10993
tp11009
assS'_0'
p11010
g18
(tRp11011
g1
(g112
g3
NtRp11012
(dp11013
g115
I2
sg116
S'A3-111'
p11014
sb(lp11015
(S'_8'
S'_9'
tp11016
asS'manner'
p11017
(lp11018
(g10959
tp11019
asS'time'
p11020
(lp11021
(g11003
tp11022
ass(dp11023
g42
I17
sg51
Nsg47
(dp11024
sg57
(dp11025
sg41
I00
sg43
(dp11026
g11010
Nssg45
I0
sg46
Nsg55
(lp11027
g11010
asg49
(dp11028
sg52
(dp11029
sbsS'f'
(lp11030
S'Since'
p11031
aS'this'
p11032
aS'giant'
p11033
ag144
aS'settled'
p11034
aS'on'
p11035
ag144
aS','
aS'the'
p11036
ag269
aS'in'
p11037
aS'succession'
p11038
asg63
I0
sg64
I0
sg65
g144
sg67
(lp11039
sg69
Nsg70
(lp11040
sbI-1
sg1
(g12
g3
NtRp11041
(dp11042
S'e'
g15
(tRp11043
S'_3'
p11044
g18
(tRp11045
g1
(g112
g3
NtRp11046
(dp11047
g115
I0
sg116
S'A1-1'
p11048
sb(lp11049
(tassS'_2'
p11050
g18
(tRp11051
S'l/land'
p11052
(lp11053
(tasS'mod'
p11054
(lp11055
(g11044
tp11056
assS'_1'
p11057
g18
(tRp11058
sS'_0'
p11059
g18
(tRp11060
S'ord'
p11061
(lp11062
(g11057
tp11063
asS'ARG4'
p11064
(lp11065
(g11050
tp11066
ass(dp11067
g42
I5
sg51
Nsg47
(dp11068
sg57
(dp11069
sg41
I00
sg43
(dp11070
g11059
Nssg45
I0
sg46
Nsg55
(lp11071
g11059
asg49
(dp11072
g11057
I0
ssg52
(dp11073
I0
S'_1'
p11074
ssbsS'f'
(lp11075
S'on'
p11076
ag144
aS'land'
p11077
aS'for'
p11078
asg63
I0
sg64
I0
sg65
g6717
sg67
(lp11079
sg69
Nsg70
(lp11080
sbI-1
sg1
(g12
g3
NtRp11081
(dp11082
S'e'
g15
(tRp11083
S'_4'
p11084
g18
(tRp11085
S'c/city'
p11086
(lp11087
(tassS'_3'
p11088
g18
(tRp11089
S'c2/current'
p11090
(lp11091
(tassS'_2'
p11092
g18
(tRp11093
S'quant-of'
p11094
(lp11095
(g11084
tp11096
asS'n/number'
p11097
(lp11098
(tasS'time'
p11099
(lp11100
(g11088
tp11101
assS'_1'
p11102
g18
(tRp11103
S'34'
p11104
(lp11105
(tassS'_0'
p11106
g18
(tRp11107
S'ARG1'
p11108
(lp11109
(g11092
tp11110
asS'ARG3'
p11111
(lp11112
(g11102
tp11113
asS'i/increase-01'
p11114
(lp11115
(tass(dp11116
g42
I9
sg51
Nsg47
(dp11117
sg57
(dp11118
sg41
I00
sg43
(dp11119
g11106
Nssg45
I0
sg46
Nsg55
(lp11120
g11106
asg49
(dp11121
sg52
(dp11122
sbsS'f'
(lp11123
S'current'
p11124
aS'number'
p11125
aS'of'
p11126
aS'34'
p11127
aS'cities'
p11128
aS'will'
p11129
aS'be'
p11130
aS'increased'
p11131
asg63
I0
sg64
I0
sg65
g144
sg67
(lp11132
sg69
Nsg70
(lp11133
sbI-1
sg1
(g12
g3
NtRp11134
(dp11135
S'e'
g15
(tRp11136
S'_3'
p11137
g18
(tRp11138
S's5/security'
p11139
(lp11140
(tassS'_2'
p11141
g18
(tRp11142
S'g2/guard'
p11143
(lp11144
(tasS'mod'
p11145
(lp11146
(g11137
tp11147
assS'_1'
p11148
g18
(tRp11149
S'c2/car'
p11150
(lp11151
(tassS'_0'
p11152
g18
(tRp11153
S'ARG0'
p11154
(lp11155
(g11141
tp11156
asS'ARG1'
p11157
(lp11158
(g11148
tp11159
asS's/stop-01'
p11160
(lp11161
(tass(dp11162
g42
I7
sg51
Nsg47
(dp11163
sg57
(dp11164
sg41
I00
sg43
(dp11165
g11152
Nssg45
I0
sg46
Nsg55
(lp11166
g11152
asg49
(dp11167
sg52
(dp11168
sbsS'f'
(lp11169
S'car'
p11170
aS'was'
p11171
aS'stopped'
p11172
aS'by'
p11173
aS'a'
aS'security'
p11174
aS'guard'
p11175
asg63
I0
sg64
I0
sg65
g353
sg67
(lp11176
sg69
Nsg70
(lp11177
sbI-1
sg1
(g12
g3
NtRp11178
(dp11179
S'e'
g15
(tRp11180
S'_9'
p11181
g18
(tRp11182
g1
(g112
g3
NtRp11183
(dp11184
g115
I1
sg116
S'A1-1'
p11185
sb(lp11186
(tassS'_8'
p11187
g18
(tRp11188
S'mod'
p11189
(lp11190
(g11181
tp11191
assS'_7'
p11192
g18
(tRp11193
S'f/film-01'
p11194
(lp11195
(tassS'_6'
p11196
g18
(tRp11197
S'n3/now'
p11198
(lp11199
(tassS'_5'
p11200
g18
(tRp11201
S'y/year'
p11202
(lp11203
(tassS'_4'
p11204
g18
(tRp11205
S'100'
p11206
(lp11207
(tassS'_3'
p11208
g18
(tRp11209
S'quant'
p11210
(lp11211
(g11204
tp11212
asS'unit'
p11213
(lp11214
(g11200
tp11215
asS't/temporal-quantity'
p11216
(lp11217
(tassS'_2'
p11218
g18
(tRp11219
S'duration'
p11220
(lp11221
(g11208
tp11222
assS'_1'
p11223
g18
(tRp11224
g1
(g112
g3
NtRp11225
(dp11226
g115
I0
sg116
S'A3-110'
p11227
sb(lp11228
(g11218
g11196
tp11229
asS'mod'
p11230
(lp11231
(g11192
tp11232
assS'_0'
p11233
g18
(tRp11234
S'subevent'
p11235
(lp11236
(g11223
tp11237
asg1
(g112
g3
NtRp11238
(dp11239
g115
I2
sg116
S'A3-110'
p11240
sb(lp11241
(g11187
S'_10'
p11242
tp11243
assg11242
g18
(tRp11244
S's/screen-03'
p11245
(lp11246
(tass(dp11247
g41
I00
sg42
I15
sg43
(dp11248
g11233
Nssg45
I0
sg46
Nsg47
(dp11249
sg49
(dp11250
sg51
Nsg52
(dp11251
sg55
(lp11252
g11233
asg57
(dp11253
sbsS'f'
(lp11254
S'100'
p11255
aS'years'
p11256
aS'of'
p11257
aS'film'
p11258
ag756
aS','
ag575
ag756
aS'screenwriters'
p11259
asg63
I0
sg64
I0
sg65
g575
sg67
(lp11260
sg69
Nsg70
(lp11261
sbI1
sg1
(g12
g3
NtRp11262
(dp11263
S'e'
g15
(tRp11264
S'_4'
p11265
g18
(tRp11266
S't/this'
p11267
(lp11268
(tassS'_3'
p11269
g18
(tRp11270
S'y/year'
p11271
(lp11272
(tassS'_2'
p11273
g18
(tRp11274
S'unit'
p11275
(lp11276
(g11269
tp11277
assS'_1'
p11278
g18
(tRp11279
g1
(g112
g3
NtRp11280
(dp11281
g115
I0
sg116
S'A2-11'
p11282
sb(lp11283
(g11273
tp11284
asS'mod'
p11285
(lp11286
(g11265
tp11287
assS'_0'
p11288
g18
(tRp11289
S'ARG2'
p11290
(lp11291
(g11278
tp11292
asS'b/be-temporally-at-91'
p11293
(lp11294
(tass(dp11295
g42
I7
sg51
Nsg47
(dp11296
sg57
(dp11297
sg41
I00
sg43
(dp11298
g11288
Nssg45
I0
sg46
Nsg55
(lp11299
g11288
asg49
(dp11300
sg52
(dp11301
sbsS'f'
(lp11302
S'At'
p11303
aS'this'
p11304
ag546
aS'years'
p11305
asg63
I0
sg64
I0
sg65
g144
sg67
(lp11306
sg69
Nsg70
(lp11307
sbI-1
ssS'n'
I6
sb.