ccopy_reg
_reconstructor
p1
(cHRGSample
NPSampler
p2
c__builtin__
object
p3
NtRp4
(dp5
S'rule_size_counts'
p6
(dp7
sS'rule_size_tables'
p8
(dp9
sS'counts'
p10
(dp11
g1
(crule
Rule
p12
g3
NtRp13
(dp14
S'e'
cutil.hgraph.hgraph
Hgraph
p15
(tRp16
S'_3'
p17
cutil.hgraph.hgraph
ListMap
p18
(tRp19
S'"Nixon"'
p20
(lp21
(tassS'_2'
p22
g18
(tRp23
S'n/name'
p24
(lp25
(tasS'op1'
p26
(lp27
(g17
tp28
assS'_1'
p29
g18
(tRp30
S'"Richard_Nixon"'
p31
(lp32
(tassS'_0'
p33
g18
(tRp34
S'p/person'
p35
(lp36
(tasS'wiki'
p37
(lp38
(g29
tp39
asS'name'
p40
(lp41
(g22
tp42
ass(dp43
S'_Hgraph__nodelabels'
p44
I00
sS'num_edges'
p45
I7
sS'node_to_concepts'
p46
(dp47
sS'replace_count'
p48
I0
sS'_Hgraph__cached_depth'
p49
NsS'node_alignments'
p50
(dp51
sS'external_nodes'
p52
(dp53
sS'_Hgraph__cached_triples'
p54
NsS'rev_external_nodes'
p55
(dp56
sS'roots'
p57
(lp58
S'_0'
p59
asS'edge_alignments'
p60
(dp61
sbsS'f'
(lp62
S'Nixon'
p63
asS'hcost'
p64
I0
sS'cost'
p65
I0
sS'lhs'
p66
S'[A1-1]'
p67
sS'fcosts'
p68
(lp69
sS'grammar'
p70
NsS'feats'
p71
(lp72
sbI-1
sg1
(g12
g3
NtRp73
(dp74
S'e'
g15
(tRp75
S'_1'
p76
g18
(tRp77
S'b/boy'
p78
(lp79
(tassS'_0'
p80
g18
(tRp81
S'ARG0'
p82
(lp83
(g76
tp84
asS'g/go-02'
p85
(lp86
(tass(dp87
g44
I00
sg45
I3
sg46
(dp88
g80
Nssg48
I0
sg49
Nsg50
(dp89
sg52
(dp90
sg54
Nsg55
(dp91
sg57
(lp92
g80
asg60
(dp93
sbsS'f'
(lp94
S'boy'
p95
aS'will'
p96
aS'go'
p97
asg64
I0
sg65
I0
sg66
S'[A1-1]'
p98
sg68
(lp99
sg70
Nsg71
(lp100
sbI1
sg1
(g12
g3
NtRp101
(dp102
S'e'
g15
(tRp103
S'_6'
p104
g18
(tRp105
S'o2/obligate-01'
p106
(lp107
(tassS'_5'
p108
g18
(tRp109
S'l2/leave-11'
p110
(lp111
(tasS'ARG2-of'
p112
(lp113
(g104
tp114
assS'_4'
p115
g18
(tRp116
S'ARG0-of'
p117
(lp118
(g108
tp119
asS'b2/boy'
p120
(lp121
(tassS'_3'
p122
g18
(tRp123
S'b/boy'
p124
(lp125
(tassS'_2'
p126
g18
(tRp127
S'ARG0'
p128
(lp129
(g122
tp130
asS'l/leave-11'
p131
(lp132
(tassS'_1'
p133
g18
(tRp134
S'o/obligate-01'
p135
(lp136
(tasS'ARG2'
p137
(lp138
(g126
tp139
assS'_0'
p140
g18
(tRp141
S'snt2'
p142
(lp143
(g115
tp144
asS'snt1'
p145
(lp146
(g133
tp147
asS'm/multi-sentence'
p148
(lp149
(tass(dp150
g44
I00
sg45
I13
sg46
(dp151
g140
Nssg48
I0
sg49
Nsg50
(dp152
sg52
(dp153
sg54
Nsg55
(dp154
sg57
(lp155
g140
asg60
(dp156
sbsS'f'
(lp157
S'boy'
p158
aS'must'
p159
aS'leave'
p160
aS'.'
aS'A'
aS'boy'
p161
aS'who'
p162
aS'must'
p163
aS'leave'
p164
asg64
I0
sg65
I0
sg66
S'[A1-1]'
p165
sg68
(lp166
sg70
Nsg71
(lp167
sbI1
sg1
(g12
g3
NtRp168
(dp169
S'e'
g15
(tRp170
S'_2'
p171
g18
(tRp172
sS'_1'
p173
g18
(tRp174
S'e2/economy'
p175
(lp176
(tassS'_0'
p177
g18
(tRp178
S'ARG1'
p179
(lp180
(g173
tp181
asS'ARG2'
p182
(lp183
(g171
tp184
asS'a2/aid-01'
p185
(lp186
(tass(dp187
g45
I4
sg54
Nsg50
(dp188
sg60
(dp189
sg44
I00
sg46
(dp190
g177
Nssg48
I0
sg49
Nsg57
(lp191
g177
asg52
(dp192
g171
I0
ssg55
(dp193
I0
S'_2'
p194
ssbsS'f'
(lp195
S'economic'
p196
aS'aid'
p197
asg64
I0
sg65
I0
sg66
S'[A2-10]'
p198
sg68
(lp199
sg70
Nsg71
(lp200
sbI-1
sg1
(g12
g3
NtRp201
(dp202
S'e'
g15
(tRp203
S'_2'
p204
g18
(tRp205
S'g/girl'
p206
(lp207
(tassS'_1'
p208
g18
(tRp209
S'b/boy'
p210
(lp211
(tassS'_0'
p212
g18
(tRp213
g1
(cutil.cfg
NonterminalLabel
p214
g3
NtRp215
(dp216
S'index'
p217
I0
sS'label'
p218
S'A3-100'
p219
sb(lp220
(g208
g204
tp221
ass(dp222
g45
I3
sg54
Nsg50
(dp223
sg60
(dp224
sg44
I00
sg46
(dp225
g212
Nssg48
I0
sg49
Nsg57
(lp226
g212
asg52
(dp227
sg55
(dp228
sbsS'f'
(lp229
S'boy'
p230
aS'[A3-100]'
p231
aS'the'
p232
aS'girl'
p233
asg64
I0
sg65
I0
sg66
S'[A1-1]'
p234
sg68
(lp235
sg70
Nsg71
(lp236
sbI-1
sg1
(g12
g3
NtRp237
(dp238
S'e'
g15
(tRp239
S'_6'
p240
g18
(tRp241
S'1945'
p242
(lp243
(tassS'_5'
p244
g18
(tRp245
S'd3/date-entity'
p246
(lp247
(tasS'year'
p248
(lp249
(g240
tp250
assS'_4'
p251
g18
(tRp252
S'1939'
p253
(lp254
(tassS'_3'
p255
g18
(tRp256
S'd2/date-entity'
p257
(lp258
(tasS'year'
p259
(lp260
(g251
tp261
assS'_2'
p262
g18
(tRp263
S'd/date-interval'
p264
(lp265
(tasS'op1'
p266
(lp267
(g255
tp268
asS'op2'
p269
(lp270
(g244
tp271
assS'_1'
p272
g18
(tRp273
S'w/war'
p274
(lp275
(tassS'_0'
p276
g18
(tRp277
S'ARG0'
p278
(lp279
(g272
tp280
asS'r/rage-02'
p281
(lp282
(tasS'time'
p283
(lp284
(g262
tp285
ass(dp286
g45
I13
sg54
Nsg50
(dp287
sg60
(dp288
sg44
I00
sg46
(dp289
g276
Nssg48
I0
sg49
Nsg57
(lp290
g276
asg52
(dp291
sg55
(dp292
sbsS'f'
(lp293
S'war'
p294
aS'raged'
p295
aS'from'
p296
aS'1939'
p297
aS'through'
p298
aS'1945'
p299
asg64
I0
sg65
I0
sg66
S'[A1-1]'
p300
sg68
(lp301
sg70
Nsg71
(lp302
sbI-1
sg1
(g12
g3
NtRp303
(dp304
S'e'
g15
(tRp305
S'_2'
p306
g18
(tRp307
g1
(g214
g3
NtRp308
(dp309
g217
I1
sg218
S'A1-1'
p310
sb(lp311
(tassS'_1'
p312
g18
(tRp313
g1
(g214
g3
NtRp314
(dp315
g217
I0
sg218
S'A1-1'
p316
sb(lp317
(tassS'_0'
p318
g18
(tRp319
S'c/contrast-01'
p320
(lp321
(tasS'ARG2'
p322
(lp323
(g306
tp324
asS'ARG1'
p325
(lp326
(g312
tp327
ass(dp328
g44
I00
sg45
I5
sg46
(dp329
g318
Nssg48
I0
sg49
Nsg50
(dp330
sg52
(dp331
sg54
Nsg55
(dp332
sg57
(lp333
g318
asg60
(dp334
sbsS'f'
(lp335
S'[A1-1]'
p336
aS','
aS'but'
p337
ag336
asg64
I0
sg65
I0
sg66
g336
sg68
(lp338
sg70
Nsg71
(lp339
sbI-1
sg1
(g12
g3
NtRp340
(dp341
S'e'
g15
(tRp342
S'_2'
p343
g18
(tRp344
S'h/he'
p345
(lp346
(tassS'_1'
p347
g18
(tRp348
g1
(g214
g3
NtRp349
(dp350
g217
I1
sg218
S'A1-1'
p351
sb(lp352
(tassS'_0'
p353
g18
(tRp354
g1
(g214
g3
NtRp355
(dp356
g217
I0
sg218
S'A2-10'
p357
sb(lp358
(g343
tp359
asS'time'
p360
(lp361
(g347
tp362
ass(dp363
g44
I00
sg45
I4
sg46
(dp364
g353
Nssg48
I0
sg49
Nsg50
(dp365
sg52
(dp366
sg54
Nsg55
(dp367
sg57
(lp368
g353
asg60
(dp369
sbsS'f'
(lp370
S'He'
p371
aS'[A2-10]'
p372
aS'over'
p373
aS'the'
p374
ag165
asg64
I0
sg65
I0
sg66
g165
sg68
(lp375
sg70
Nsg71
(lp376
sbI1
sg1
(g12
g3
NtRp377
(dp378
S'e'
g15
(tRp379
S'_5'
p380
g18
(tRp381
S'"AD"'
p382
(lp383
(tassS'_4'
p384
g18
(tRp385
S'14'
p386
(lp387
(tassS'_3'
p388
g18
(tRp389
S'd3/date-entity'
p390
(lp391
(tasS'era'
p392
(lp393
(g380
tp394
asS'year'
p395
(lp396
(g384
tp397
assS'_2'
p398
g18
(tRp399
S'd/date-interval'
p400
(lp401
(tasS'op2'
p402
(lp403
(g388
tp404
assS'_1'
p405
g18
(tRp406
g1
(g214
g3
NtRp407
(dp408
g217
I0
sg218
S'A1-1'
p409
sb(lp410
(tassS'_0'
p411
g18
(tRp412
g1
(g214
g3
NtRp413
(dp414
g217
I1
sg218
S'A3-100'
p415
sb(lp416
(g405
g398
tp417
ass(dp418
g45
I9
sg54
Nsg50
(dp419
sg60
(dp420
sg44
I00
sg46
(dp421
g411
Nssg48
I0
sg49
Nsg57
(lp422
g411
asg52
(dp423
sg55
(dp424
sbsS'f'
(lp425
g234
ag231
aS'to'
p426
aS'14'
p427
aS'CE'
p428
asg64
I0
sg65
I0
sg66
g234
sg68
(lp429
sg70
Nsg71
(lp430
sbI-1
sg1
(g12
g3
NtRp431
(dp432
S'e'
g15
(tRp433
S'_4'
p434
g18
(tRp435
S'h2/hostile'
p436
(lp437
(tassS'_3'
p438
g18
(tRp439
S'i/insult-01'
p440
(lp441
(tassS'_2'
p442
g18
(tRp443
S'domain'
p444
(lp445
(g434
tp446
asS'ARG0-of'
p447
(lp448
(g438
tp449
assS'_1'
p450
g18
(tRp451
S'ARG2'
p452
(lp453
(g442
tp454
asS'm/mean-01'
p455
(lp456
(tassS'_0'
p457
g18
(tRp458
S'f/flame'
p459
(lp460
(tasS'ARG1-of'
p461
(lp462
(g450
tp463
ass(dp464
g45
I8
sg54
Nsg50
(dp465
sg60
(dp466
sg44
I00
sg46
(dp467
g457
Nssg48
I0
sg49
Nsg57
(lp468
g457
asg52
(dp469
g442
I0
ssg55
(dp470
I0
S'_2'
p471
ssbsS'f'
(lp472
S'flame'
p473
aS'('
aS'a'
aS'hostile'
p474
aS'and'
p475
aS'insulting'
p476
asg64
I0
sg65
I0
sg66
S'[A2-10]'
p477
sg68
(lp478
sg70
Nsg71
(lp479
sbI-1
sg1
(g12
g3
NtRp480
(dp481
S'e'
g15
(tRp482
S'_7'
p483
g18
(tRp484
S'1945'
p485
(lp486
(tassS'_6'
p487
g18
(tRp488
S'd/date-entity'
p489
(lp490
(tasS'year'
p491
(lp492
(g483
tp493
assS'_5'
p494
g18
(tRp495
S'b/bomb-01'
p496
(lp497
(tasS'time'
p498
(lp499
(g487
tp500
assS'_4'
p501
g18
(tRp502
S'"Japan"'
p503
(lp504
(tassS'_3'
p505
g18
(tRp506
S'n/name'
p507
(lp508
(tasS'op1'
p509
(lp510
(g501
tp511
assS'_2'
p512
g18
(tRp513
S'"Japan"'
p514
(lp515
(tassS'_1'
p516
g18
(tRp517
S'wiki'
p518
(lp519
(g512
tp520
asS'c/country'
p521
(lp522
(tasS'name'
p523
(lp524
(g505
tp525
assS'_0'
p526
g18
(tRp527
S'ARG1-of'
p528
(lp529
(g494
tp530
asS'location'
p531
(lp532
(g516
tp533
asS't/town'
p534
(lp535
(tass(dp536
g44
I00
sg45
I15
sg46
(dp537
g526
Nssg48
I0
sg49
Nsg50
(dp538
sg52
(dp539
sg54
Nsg55
(dp540
sg57
(lp541
g526
asg60
(dp542
sbsS'f'
(lp543
S'Japanese'
p544
aS'town'
p545
aS'bombed'
p546
aS'in'
p547
aS'1945'
p548
asg64
I0
sg65
I0
sg66
g165
sg68
(lp549
sg70
Nsg71
(lp550
sbI1
sg1
(g12
g3
NtRp551
(dp552
S'e'
g15
(tRp553
S'_5'
p554
g18
(tRp555
S'y/year'
p556
(lp557
(tassS'_4'
p558
g18
(tRp559
S'15'
p560
(lp561
(tassS'_3'
p562
g18
(tRp563
S't2/temporal-quantity'
p564
(lp565
(tasS'quant'
p566
(lp567
(g558
tp568
asS'unit'
p569
(lp570
(g554
tp571
assS'_2'
p572
g18
(tRp573
S'l2/law'
p574
(lp575
(tasS'age'
p576
(lp577
(g562
tp578
assS'_1'
p579
g18
(tRp580
sS'_0'
p581
g18
(tRp582
S'ARG0'
p583
(lp584
(g579
tp585
asS'ARG1'
p586
(lp587
(g572
tp588
asS'r/repeal-01'
p589
(lp590
(tass(dp591
g44
I00
sg45
I10
sg46
(dp592
g581
Nssg48
I0
sg49
Nsg50
(dp593
sg52
(dp594
g579
I0
ssg54
Nsg55
(dp595
I0
S'_1'
p596
ssg57
(lp597
g581
asg60
(dp598
sbsS'f'
(lp599
S'repeal'
p600
aS'the'
p601
aS'15'
p602
aS'@-@'
p603
aS'year'
p604
aS'@-@'
p605
aS'old'
p606
aS'law'
p607
asg64
I0
sg65
I0
sg66
g372
sg68
(lp608
sg70
Nsg71
(lp609
sbI1
sg1
(g12
g3
NtRp610
(dp611
S'e'
g15
(tRp612
S'_3'
p613
g18
(tRp614
S'interrogative'
p615
(lp616
(tassS'_2'
p617
g18
(tRp618
S'd/democracy'
p619
(lp620
(tassS'_1'
p621
g18
(tRp622
S'p/principle'
p623
(lp624
(tasS'mod'
p625
(lp626
(g617
tp627
assS'_0'
p628
g18
(tRp629
S'mode'
p630
(lp631
(g613
tp632
asg1
(g214
g3
NtRp633
(dp634
g217
I0
sg218
S'A2-10'
p635
sb(lp636
(g621
tp637
ass(dp638
g44
I00
sg45
I6
sg46
(dp639
g628
Nssg48
I0
sg49
Nsg50
(dp640
sg52
(dp641
sg54
Nsg55
(dp642
sg57
(lp643
g628
asg60
(dp644
sbsS'f'
(lp645
g372
aS'at'
p646
aS'the'
p647
aS'expense'
p648
aS'of'
p649
aS'democratic'
p650
aS'principles'
p651
aS'?'
asg64
I0
sg65
I0
sg66
g165
sg68
(lp652
sg70
Nsg71
(lp653
sbI1
sg1
(g12
g3
NtRp654
(dp655
S'e'
g15
(tRp656
S'_3'
p657
g18
(tRp658
S'"John"'
p659
(lp660
(tassS'_2'
p661
g18
(tRp662
S'n/name'
p663
(lp664
(tasS'op1'
p665
(lp666
(g657
tp667
assS'_1'
p668
g18
(tRp669
S'-'
(lp670
(tassS'_0'
p671
g18
(tRp672
S'p/person'
p673
(lp674
(tasS'wiki'
p675
(lp676
(g668
tp677
asS'name'
p678
(lp679
(g661
tp680
ass(dp681
g44
I00
sg45
I7
sg46
(dp682
sg48
I0
sg49
Nsg50
(dp683
sg52
(dp684
sg54
Nsg55
(dp685
sg57
(lp686
S'_0'
p687
asg60
(dp688
sbsS'f'
(lp689
S'John'
p690
asg64
I0
sg65
I0
sg66
g67
sg68
(lp691
sg70
Nsg71
(lp692
sbI1
sg1
(g12
g3
NtRp693
(dp694
S'e'
g15
(tRp695
S'_3'
p696
g18
(tRp697
S'd/door'
p698
(lp699
(tassS'_2'
p700
g18
(tRp701
S'y/you'
p702
(lp703
(tassS'_1'
p704
g18
(tRp705
S'+'
(lp706
(tassS'_0'
p707
g18
(tRp708
S'ARG0'
p709
(lp710
(g700
tp711
asS'ARG1'
p712
(lp713
(g696
tp714
asS'polite'
p715
(lp716
(g704
tp717
asS'c/close-01'
p718
(lp719
(tass(dp720
g45
I7
sg54
Nsg50
(dp721
sg60
(dp722
sg44
I00
sg46
(dp723
g707
Nssg48
I0
sg49
Nsg57
(lp724
g707
asg52
(dp725
sg55
(dp726
sbsS'f'
(lp727
S'Could'
p728
aS'you'
p729
aS'close'
p730
aS'the'
p731
aS'door'
p732
asg64
I0
sg65
I0
sg66
g234
sg68
(lp733
sg70
Nsg71
(lp734
sbI-1
sg1
(g12
g3
NtRp735
(dp736
S'e'
g15
(tRp737
S'_2'
p738
g18
(tRp739
S'l/lung'
p740
(lp741
(tassS'_1'
p742
g18
(tRp743
S'mod'
p744
(lp745
(g738
tp746
asS'c2/cancer'
p747
(lp748
(tassS'_0'
p749
g18
(tRp750
g1
(g214
g3
NtRp751
(dp752
g217
I0
sg218
S'A2-10'
p753
sb(lp754
(g742
tp755
ass(dp756
g44
I00
sg45
I4
sg46
(dp757
g749
Nssg48
I0
sg49
Nsg50
(dp758
sg52
(dp759
sg54
Nsg55
(dp760
sg57
(lp761
g749
asg60
(dp762
sbsS'f'
(lp763
g372
aS'of'
p764
aS'lung'
p765
aS'cancer'
p766
asg64
I0
sg65
I0
sg66
g165
sg68
(lp767
sg70
Nsg71
(lp768
sbI1
sg1
(g12
g3
NtRp769
(dp770
S'e'
g15
(tRp771
S'_5'
p772
g18
(tRp773
S'y/year'
p774
(lp775
(tassS'_4'
p776
g18
(tRp777
S'15'
p778
(lp779
(tassS'_3'
p780
g18
(tRp781
S't2/temporal-quantity'
p782
(lp783
(tasS'quant'
p784
(lp785
(g776
tp786
asS'unit'
p787
(lp788
(g772
tp789
assS'_2'
p790
g18
(tRp791
S'l2/law'
p792
(lp793
(tasS'age'
p794
(lp795
(g780
tp796
assS'_1'
p797
g18
(tRp798
S't/they'
p799
(lp800
(tassS'_0'
p801
g18
(tRp802
g1
(g214
g3
NtRp803
(dp804
g217
I0
sg218
S'A3-100'
p805
sb(lp806
(g797
g790
tp807
ass(dp808
g45
I9
sg54
Nsg50
(dp809
sg60
(dp810
sg44
I00
sg46
(dp811
g801
Nssg48
I0
sg49
Nsg57
(lp812
g801
asg52
(dp813
sg55
(dp814
sbsS'f'
(lp815
S'They'
p816
aS'[A3-100]'
p817
aS'the'
p818
aS'15'
p819
aS'@-@'
p820
aS'year'
p821
aS'@-@'
p822
aS'old'
p823
aS'law'
p824
asg64
I0
sg65
I0
sg66
S'[A1-1]'
p825
sg68
(lp826
sg70
Nsg71
(lp827
sbI-1
sg1
(g12
g3
NtRp828
(dp829
S'e'
g15
(tRp830
S'_4'
p831
g18
(tRp832
S'a/all'
p833
(lp834
(tassS'_3'
p835
g18
(tRp836
S'c2/claim-02'
p837
(lp838
(tasS'mod'
p839
(lp840
(g831
tp841
assS'_2'
p842
g18
(tRp843
sS'_1'
p844
g18
(tRp845
S'r/release-01'
p846
(lp847
(tasS'ARG1'
p848
(lp849
(g835
tp850
asS'ARG2'
p851
(lp852
(g842
tp853
assS'_0'
p854
g18
(tRp855
S'ARG3'
p856
(lp857
(g844
tp858
ass(dp859
g45
I7
sg54
Nsg50
(dp860
sg60
(dp861
sg44
I00
sg46
(dp862
g854
Nssg48
I0
sg49
Nsg57
(lp863
g854
asg52
(dp864
g842
I0
ssg55
(dp865
I0
S'_2'
p866
ssbsS'f'
(lp867
S'for'
p868
aS'the'
p869
aS'release'
p870
aS'of'
p871
aS'all'
p872
aS'claims'
p873
asg64
I0
sg65
I0
sg66
S'[A2-00]'
p874
sg68
(lp875
sg70
Nsg71
(lp876
sbI-1
sg1
(g12
g3
NtRp877
(dp878
S'e'
g15
(tRp879
S'_5'
p880
g18
(tRp881
g1
(g214
g3
NtRp882
(dp883
g217
I0
sg218
S'A1-1'
p884
sb(lp885
(tassS'_4'
p886
g18
(tRp887
S'c2/classics'
p888
(lp889
(tassS'_3'
p890
g18
(tRp891
S'm/music'
p892
(lp893
(tasS'mod'
p894
(lp895
(g886
tp896
assS'_2'
p897
g18
(tRp898
S'i/i'
p899
(lp900
(tassS'_1'
p901
g18
(tRp902
S'ARG0'
p903
(lp904
(g897
tp905
asS'ARG1'
p906
(lp907
(g890
tp908
asS'l/like-01'
p909
(lp910
(tassS'_0'
p911
g18
(tRp912
S'c/contrast-01'
p913
(lp914
(tasS'ARG2'
p915
(lp916
(g880
tp917
asS'ARG1'
p918
(lp919
(g901
tp920
ass(dp921
g44
I00
sg45
I11
sg46
(dp922
g911
Nssg48
I0
sg49
Nsg50
(dp923
sg52
(dp924
sg54
Nsg55
(dp925
sg57
(lp926
g911
asg60
(dp927
sbsS'f'
(lp928
S'I'
aS'like'
p929
aS'classical'
p930
aS'music'
p931
aS','
aS'but'
p932
ag165
asg64
I0
sg65
I0
sg66
g165
sg68
(lp933
sg70
Nsg71
(lp934
sbI1
sg1
(g12
g3
NtRp935
(dp936
S'e'
g15
(tRp937
S'_4'
p938
g18
(tRp939
S'x4/4'
p940
(lp941
(tassS'_3'
p942
g18
(tRp943
g1
(g214
g3
NtRp944
(dp945
g217
I2
sg218
S'A1-1'
p946
sb(lp947
(tasS'li'
p948
(lp949
(g938
tp950
assS'_2'
p951
g18
(tRp952
g1
(g214
g3
NtRp953
(dp954
g217
I1
sg218
S'A2-10'
p955
sb(lp956
(g942
tp957
assS'_1'
p958
g18
(tRp959
S'g/group'
p960
(lp961
(tassS'_0'
p962
g18
(tRp963
g1
(g214
g3
NtRp964
(dp965
g217
I0
sg218
S'A3-100'
p966
sb(lp967
(g958
g951
tp968
ass(dp969
g45
I6
sg54
Nsg50
(dp970
sg60
(dp971
sg44
I00
sg46
(dp972
g962
Nssg48
I0
sg49
Nsg57
(lp973
g962
asg52
(dp974
sg55
(dp975
sbsS'f'
(lp976
S'Group'
p977
ag231
aS':'
aS'('
ag198
aS'('
aS'4'
aS')'
ag234
asg64
I0
sg65
I0
sg66
g234
sg68
(lp978
sg70
Nsg71
(lp979
sbI-1
sg1
(g12
g3
NtRp980
(dp981
S'e'
g15
(tRp982
S'_2'
p983
g18
(tRp984
S'w/we'
p985
(lp986
(tassS'_1'
p987
g18
(tRp988
g1
(g214
g3
NtRp989
(dp990
g217
I0
sg218
S'A1-1'
p991
sb(lp992
(tassS'_0'
p993
g18
(tRp994
S'ARG1'
p995
(lp996
(g987
tp997
asS'ARG2'
p998
(lp999
(g983
tp1000
ass(dp1001
g45
I4
sg54
Nsg50
(dp1002
sg60
(dp1003
sg44
I00
sg46
(dp1004
g993
Nssg48
I0
sg49
Nsg57
(lp1005
g993
asg52
(dp1006
sg55
(dp1007
sbsS'f'
(lp1008
S'our'
p1009
ag234
asg64
I0
sg65
I0
sg66
S'[A1-0]'
p1010
sg68
(lp1011
sg70
Nsg71
(lp1012
sbI-1
sg1
(g12
g3
NtRp1013
(dp1014
S'e'
g15
(tRp1015
S'_9'
p1016
g18
(tRp1017
S'p/pound'
p1018
(lp1019
(tassS'_8'
p1020
g18
(tRp1021
S'10'
p1022
(lp1023
(tassS'_7'
p1024
g18
(tRp1025
S'quant'
p1026
(lp1027
(g1020
tp1028
asS'm/mass-quantity'
p1029
(lp1030
(tasS'unit'
p1031
(lp1032
(g1016
tp1033
assS'_6'
p1034
g18
(tRp1035
S'h/he'
p1036
(lp1037
(tassS'_5'
p1038
g18
(tRp1039
S'm2/month'
p1040
(lp1041
(tassS'_4'
p1042
g18
(tRp1043
S'3'
(lp1044
(tassS'_3'
p1045
g18
(tRp1046
S'quant'
p1047
(lp1048
(g1042
tp1049
asS'unit'
p1050
(lp1051
(g1038
tp1052
asS't/temporal-quantity'
p1053
(lp1054
(tassS'_2'
p1055
g18
(tRp1056
S'n/now'
p1057
(lp1058
(tassS'_1'
p1059
g18
(tRp1060
S'duration'
p1061
(lp1062
(g1045
tp1063
asS'b/before'
p1064
(lp1065
(tasS'op1'
p1066
(lp1067
(g1055
tp1068
assS'_0'
p1069
g18
(tRp1070
S'ARG0'
p1071
(lp1072
(g1034
tp1073
asS'ARG1'
p1074
(lp1075
(g1024
tp1076
asS'l/lose-02'
p1077
(lp1078
(tasS'time'
p1079
(lp1080
(g1059
tp1081
ass(dp1082
g45
I19
sg54
Nsg50
(dp1083
sg60
(dp1084
sg44
I00
sg46
(dp1085
g1069
Nssg48
I0
sg49
Nsg57
(lp1086
g1069
asg52
(dp1087
sg55
(dp1088
sbsS'f'
(lp1089
S'He'
p1090
aS'lost'
p1091
aS'10'
p1092
aS'pounds'
p1093
aS'over'
p1094
aS'the'
p1095
aS'last'
p1096
aS'3'
aS'months'
p1097
asg64
I0
sg65
I0
sg66
g234
sg68
(lp1098
sg70
Nsg71
(lp1099
sbI-1
sg1
(g12
g3
NtRp1100
(dp1101
S'e'
g15
(tRp1102
S'_4'
p1103
g18
(tRp1104
g1
(g214
g3
NtRp1105
(dp1106
g217
I0
sg218
S'A1-1'
p1107
sb(lp1108
(tassS'_3'
p1109
g18
(tRp1110
S'i/i'
p1111
(lp1112
(tassS'_2'
p1113
g18
(tRp1114
S'-'
(lp1115
(tassS'_1'
p1116
g18
(tRp1117
S't/too'
p1118
(lp1119
(tassS'_0'
p1120
g18
(tRp1121
S'polarity'
p1122
(lp1123
(g1113
tp1124
asS'ARG0'
p1125
(lp1126
(g1109
tp1127
asS'degree'
p1128
(lp1129
(g1116
tp1130
asS'w/worry-02'
p1131
(lp1132
(tasS'ARG1'
p1133
(lp1134
(g1103
tp1135
ass(dp1136
g45
I9
sg54
Nsg50
(dp1137
sg60
(dp1138
sg44
I00
sg46
(dp1139
g1120
Nssg48
I0
sg49
Nsg57
(lp1140
g1120
asg52
(dp1141
sg55
(dp1142
sbsS'f'
(lp1143
g825
aS'is'
p1144
aS'concerned'
p1145
aS','
aS'I'
aS"'m"
p1146
aS'not'
p1147
aS'too'
p1148
aS'worried'
p1149
asg64
I0
sg65
I0
sg66
g825
sg68
(lp1150
sg70
Nsg71
(lp1151
sbI-1
sg1
(g12
g3
NtRp1152
(dp1153
S'e'
g15
(tRp1154
S'_3'
p1155
g18
(tRp1156
S'11'
p1157
(lp1158
(tassS'_2'
p1159
g18
(tRp1160
S'month'
p1161
(lp1162
(g1155
tp1163
assS'_1'
p1164
g18
(tRp1165
sS'_0'
p1166
g18
(tRp1167
g1
(g214
g3
NtRp1168
(dp1169
g217
I0
sg218
S'A3-100'
p1170
sb(lp1171
(g1164
g1159
tp1172
ass(dp1173
g44
I00
sg45
I3
sg46
(dp1174
g1166
Nssg48
I0
sg49
Nsg50
(dp1175
sg52
(dp1176
S'_2'
p1177
I1
sS'_1'
p1178
I0
ssg54
Nsg55
(dp1179
I0
g1178
sI1
g1177
ssg57
(lp1180
g1166
asg60
(dp1181
sbsS'f'
(lp1182
S'[A3-100]'
p1183
aS'Novmber'
p1184
asg64
I0
sg65
I0
sg66
g1183
sg68
(lp1185
sg70
Nsg71
(lp1186
sbI1
sg1
(g12
g3
NtRp1187
(dp1188
S'e'
g15
(tRp1189
S'_3'
p1190
g18
(tRp1191
S'b/boy'
p1192
(lp1193
(tassS'_2'
p1194
g18
(tRp1195
S'ARG0'
p1196
(lp1197
(g1190
tp1198
asS'g/go-02'
p1199
(lp1200
(tassS'_1'
p1201
g18
(tRp1202
S'-'
(lp1203
(tassS'_0'
p1204
g18
(tRp1205
S'polarity'
p1206
(lp1207
(g1201
tp1208
asS'ARG1'
p1209
(lp1210
(g1194
tp1211
asS'p/possible-01'
p1212
(lp1213
(tass(dp1214
g45
I7
sg54
Nsg50
(dp1215
sg60
(dp1216
sg44
I00
sg46
(dp1217
g1204
Nssg48
I0
sg49
Nsg57
(lp1218
g1204
asg52
(dp1219
sg55
(dp1220
sbsS'f'
(lp1221
S'no'
p1222
aS'possibility'
p1223
aS'that'
p1224
aS'the'
p1225
aS'boy'
p1226
aS'will'
p1227
aS'go'
p1228
asg64
I0
sg65
I0
sg66
S'[A1-1]'
p1229
sg68
(lp1230
sg70
Nsg71
(lp1231
sbI-1
sg1
(g12
g3
NtRp1232
(dp1233
S'e'
g15
(tRp1234
S'_5'
p1235
g18
(tRp1236
S'"dioxide"'
p1237
(lp1238
(tassS'_4'
p1239
g18
(tRp1240
S'"carbon"'
p1241
(lp1242
(tassS'_3'
p1243
g18
(tRp1244
S'n/name'
p1245
(lp1246
(tasS'op1'
p1247
(lp1248
(g1239
tp1249
asS'op2'
p1250
(lp1251
(g1235
tp1252
assS'_2'
p1253
g18
(tRp1254
S'"Carbon_dioxide"'
p1255
(lp1256
(tassS'_1'
p1257
g18
(tRp1258
S's/small-molecule'
p1259
(lp1260
(tasS'wiki'
p1261
(lp1262
(g1253
tp1263
asS'name'
p1264
(lp1265
(g1243
tp1266
assS'_0'
p1267
g18
(tRp1268
S'ARG1'
p1269
(lp1270
(g1257
tp1271
asS'e/emit-01'
p1272
(lp1273
(tass(dp1274
g45
I11
sg54
Nsg50
(dp1275
sg60
(dp1276
sg44
I00
sg46
(dp1277
g1267
Nssg48
I0
sg49
Nsg57
(lp1278
g1267
asg52
(dp1279
sg55
(dp1280
sbsS'f'
(lp1281
S'Carbon'
p1282
aS'dioxide'
p1283
aS'emissions'
p1284
asg64
I0
sg65
I0
sg66
S'[A1-1]'
p1285
sg68
(lp1286
sg70
Nsg71
(lp1287
sbI-1
sg1
(g12
g3
NtRp1288
(dp1289
S'e'
g15
(tRp1290
S'_7'
p1291
g18
(tRp1292
g1
(g214
g3
NtRp1293
(dp1294
g217
I0
sg218
S'A1-1'
p1295
sb(lp1296
(tassS'_6'
p1297
g18
(tRp1298
S'n2/now'
p1299
(lp1300
(tassS'_5'
p1301
g18
(tRp1302
S'100'
p1303
(lp1304
(tassS'_4'
p1305
g18
(tRp1306
S'y/year'
p1307
(lp1308
(tassS'_3'
p1309
g18
(tRp1310
S'quant'
p1311
(lp1312
(g1301
tp1313
asS't/temporal-quantity'
p1314
(lp1315
(tasS'unit'
p1316
(lp1317
(g1305
tp1318
assS'_2'
p1319
g18
(tRp1320
S's/several'
p1321
(lp1322
(tasS'op1'
p1323
(lp1324
(g1309
tp1325
assS'_1'
p1326
g18
(tRp1327
S'b/before'
p1328
(lp1329
(tasS'quant'
p1330
(lp1331
(g1319
tp1332
asS'op1'
p1333
(lp1334
(g1297
tp1335
assS'_0'
p1336
g18
(tRp1337
S'ARG1'
p1338
(lp1339
(g1291
tp1340
asS'd/discover-01'
p1341
(lp1342
(tasS'time'
p1343
(lp1344
(g1326
tp1345
ass(dp1346
g44
I00
sg45
I15
sg46
(dp1347
g1336
Nssg48
I0
sg49
Nsg50
(dp1348
sg52
(dp1349
sg54
Nsg55
(dp1350
sg57
(lp1351
g1336
asg60
(dp1352
sbsS'f'
(lp1353
g165
aS'was'
p1354
aS'discovered'
p1355
aS'several'
p1356
aS'hundred'
p1357
aS'years'
p1358
aS'ago'
p1359
asg64
I0
sg65
I0
sg66
g165
sg68
(lp1360
sg70
Nsg71
(lp1361
sbI1
sg1
(g12
g3
NtRp1362
(dp1363
S'e'
g15
(tRp1364
S'_6'
p1365
g18
(tRp1366
S's/south'
p1367
(lp1368
(tassS'_5'
p1369
g18
(tRp1370
g1
(g214
g3
NtRp1371
(dp1372
g217
I0
sg218
S'A1-1'
p1373
sb(lp1374
(tassS'_4'
p1375
g18
(tRp1376
S'80'
p1377
(lp1378
(tassS'_3'
p1379
g18
(tRp1380
S'k/kilometer'
p1381
(lp1382
(tassS'_2'
p1383
g18
(tRp1384
S'quant'
p1385
(lp1386
(g1375
tp1387
asS'unit'
p1388
(lp1389
(g1379
tp1390
asS'd/distance-quantity'
p1391
(lp1392
(tassS'_1'
p1393
g18
(tRp1394
S'r/relative-position'
p1395
(lp1396
(tasS'direction'
p1397
(lp1398
(g1365
tp1399
asS'quant'
p1400
(lp1401
(g1383
tp1402
asS'op1'
p1403
(lp1404
(g1369
tp1405
assS'_0'
p1406
g18
(tRp1407
S'e/explode-01'
p1408
(lp1409
(tasS'location'
p1410
(lp1411
(g1393
tp1412
ass(dp1413
g44
I00
sg45
I13
sg46
(dp1414
g1406
Nssg48
I0
sg49
Nsg50
(dp1415
sg52
(dp1416
sg54
Nsg55
(dp1417
sg57
(lp1418
g1406
asg60
(dp1419
sbsS'f'
(lp1420
S'explosion'
p1421
aS'occured'
p1422
aS'80'
p1423
aS'kilometers'
p1424
aS'('
aS'50'
p1425
aS'miles'
p1426
aS')'
aS'south'
p1427
aS'of'
p1428
ag165
asg64
I0
sg65
I0
sg66
g165
sg68
(lp1429
sg70
Nsg71
(lp1430
sbI1
sg1
(g12
g3
NtRp1431
(dp1432
S'e'
g15
(tRp1433
S'_4'
p1434
g18
(tRp1435
g1
(g214
g3
NtRp1436
(dp1437
g217
I1
sg218
S'A1-1'
p1438
sb(lp1439
(tassS'_3'
p1440
g18
(tRp1441
g1
(g214
g3
NtRp1442
(dp1443
g217
I0
sg218
S'A2-10'
p1444
sb(lp1445
(g1434
tp1446
assS'_2'
p1447
g18
(tRp1448
S'i/i'
p1449
(lp1450
(tassS'_1'
p1451
g18
(tRp1452
S'h/he'
p1453
(lp1454
(tassS'_0'
p1455
g18
(tRp1456
S'c/call-02'
p1457
(lp1458
(tasS'ARG0'
p1459
(lp1460
(g1451
tp1461
asS'frequency'
p1462
(lp1463
(g1440
tp1464
asS'ARG1'
p1465
(lp1466
(g1447
tp1467
ass(dp1468
g44
I00
sg45
I8
sg46
(dp1469
g1455
Nssg48
I0
sg49
Nsg50
(dp1470
sg52
(dp1471
sg54
Nsg55
(dp1472
sg57
(lp1473
g1455
asg60
(dp1474
sbsS'f'
(lp1475
S'He'
p1476
aS'calls'
p1477
aS'me'
p1478
aS'every'
p1479
ag372
aS'at'
p1480
ag165
asg64
I0
sg65
I0
sg66
g165
sg68
(lp1481
sg70
Nsg71
(lp1482
sbI1
sg1
(g12
g3
NtRp1483
(dp1484
S'e'
g15
(tRp1485
S'_3'
p1486
g18
(tRp1487
S'"AD"'
p1488
(lp1489
(tassS'_2'
p1490
g18
(tRp1491
S'14'
p1492
(lp1493
(tassS'_1'
p1494
g18
(tRp1495
S'd3/date-entity'
p1496
(lp1497
(tasS'era'
p1498
(lp1499
(g1486
tp1500
asS'year'
p1501
(lp1502
(g1490
tp1503
assS'_0'
p1504
g18
(tRp1505
S'd/date-interval'
p1506
(lp1507
(tasS'op2'
p1508
(lp1509
(g1494
tp1510
ass(dp1511
g44
I00
sg45
I7
sg46
(dp1512
g1504
Nssg48
I0
sg49
Nsg50
(dp1513
sg52
(dp1514
sg54
Nsg55
(dp1515
sg57
(lp1516
g1504
asg60
(dp1517
sbsS'f'
(lp1518
S'to'
p1519
aS'14'
p1520
aS'CE'
p1521
asg64
I0
sg65
I0
sg66
g165
sg68
(lp1522
sg70
Nsg71
(lp1523
sbI1
sg1
(g12
g3
NtRp1524
(dp1525
S'e'
g15
(tRp1526
S'_4'
p1527
g18
(tRp1528
S'g/golf'
p1529
(lp1530
(tassS'_3'
p1531
g18
(tRp1532
S'ARG0'
p1533
(lp1534
(S'_1'
tp1535
asS'ARG1'
p1536
(lp1537
(g1527
tp1538
asS'w/watch-01'
p1539
(lp1540
(tassS'_2'
p1541
g18
(tRp1542
S'ARG0'
p1543
(lp1544
(S'_1'
tp1545
asS's/swim-01'
p1546
(lp1547
(tassS'_1'
p1548
g18
(tRp1549
S'i/i'
p1550
(lp1551
(tassS'_0'
p1552
g18
(tRp1553
S'p/prefer-01'
p1554
(lp1555
(tasS'ARG0'
p1556
(lp1557
(g1548
tp1558
asS'ARG2'
p1559
(lp1560
(g1531
tp1561
asS'ARG1'
p1562
(lp1563
(g1541
tp1564
ass(dp1565
g44
I00
sg45
I11
sg46
(dp1566
g1552
Nssg48
I0
sg49
Nsg50
(dp1567
sg52
(dp1568
sg54
Nsg55
(dp1569
sg57
(lp1570
g1552
asg60
(dp1571
sbsS'f'
(lp1572
S'I'
aS'would'
p1573
aS'rather'
p1574
aS'go'
p1575
aS'swimming'
p1576
aS'than'
p1577
aS'watch'
p1578
aS'golf'
p1579
asg64
I0
sg65
I0
sg66
g165
sg68
(lp1580
sg70
Nsg71
(lp1581
sbI1
sg1
(g12
g3
NtRp1582
(dp1583
S'e'
g15
(tRp1584
S'_3'
p1585
g18
(tRp1586
S'ARG0'
p1587
(lp1588
(S'_2'
tp1589
asS'l/leave-11'
p1590
(lp1591
(tassS'_2'
p1592
g18
(tRp1593
S'b/boy'
p1594
(lp1595
(tassS'_1'
p1596
g18
(tRp1597
S'ARG1'
p1598
(lp1599
(g1592
tp1600
asS'c/come-01'
p1601
(lp1602
(tassS'_0'
p1603
g18
(tRp1604
g1
(g214
g3
NtRp1605
(dp1606
g217
I0
sg218
S'A3-100'
p1607
sb(lp1608
(g1596
g1585
tp1609
ass(dp1610
g44
I00
sg45
I6
sg46
(dp1611
g1603
Nssg48
I0
sg49
Nsg50
(dp1612
sg52
(dp1613
sg54
Nsg55
(dp1614
sg57
(lp1615
g1603
asg60
(dp1616
sbsS'f'
(lp1617
S'boy'
p1618
aS'came'
p1619
ag1183
aS'left'
p1620
asg64
I0
sg65
I0
sg66
g165
sg68
(lp1621
sg70
Nsg71
(lp1622
sbI1
sg1
(g12
g3
NtRp1623
(dp1624
S'e'
g15
(tRp1625
S'_7'
p1626
g18
(tRp1627
g1
(g214
g3
NtRp1628
(dp1629
g217
I0
sg218
S'A1-1'
p1630
sb(lp1631
(tassS'_6'
p1632
g18
(tRp1633
S'"Ave"'
p1634
(lp1635
(tassS'_5'
p1636
g18
(tRp1637
S'"Pennsylvania"'
p1638
(lp1639
(tassS'_4'
p1640
g18
(tRp1641
S'n/name'
p1642
(lp1643
(tasS'op1'
p1644
(lp1645
(g1636
tp1646
asS'op2'
p1647
(lp1648
(g1632
tp1649
assS'_3'
p1650
g18
(tRp1651
S'"Pennsylvania_Avenue"'
p1652
(lp1653
(tassS'_2'
p1654
g18
(tRp1655
S'wiki'
p1656
(lp1657
(g1650
tp1658
asS'r/road'
p1659
(lp1660
(tasS'name'
p1661
(lp1662
(g1640
tp1663
assS'_1'
p1664
g18
(tRp1665
S'1600'
p1666
(lp1667
(tassS'_0'
p1668
g18
(tRp1669
g1
(g214
g3
NtRp1670
(dp1671
g217
I1
sg218
S'A4-1000'
p1672
sb(lp1673
(g1664
g1654
g1626
tp1674
ass(dp1675
g44
I00
sg45
I12
sg46
(dp1676
g1668
Nssg48
I0
sg49
Nsg50
(dp1677
sg52
(dp1678
sg54
Nsg55
(dp1679
sg57
(lp1680
g1668
asg60
(dp1681
sbsS'f'
(lp1682
S'1600'
p1683
aS'Pennsylvania'
p1684
aS'Ave'
p1685
aS','
ag165
aS','
aS'[A4-1000]'
p1686
asg64
I0
sg65
I0
sg66
g165
sg68
(lp1687
sg70
Nsg71
(lp1688
sbI1
sg1
(g12
g3
NtRp1689
(dp1690
S'e'
g15
(tRp1691
S'_5'
p1692
g18
(tRp1693
S'a2/acre'
p1694
(lp1695
(tassS'_4'
p1696
g18
(tRp1697
S'2'
(lp1698
(tassS'_3'
p1699
g18
(tRp1700
S'a/area-quantity'
p1701
(lp1702
(tasS'quant'
p1703
(lp1704
(g1696
tp1705
asS'unit'
p1706
(lp1707
(g1692
tp1708
assS'_2'
p1709
g18
(tRp1710
g1
(g214
g3
NtRp1711
(dp1712
g217
I0
sg218
S'A2-10'
p1713
sb(lp1714
(g1699
tp1715
assS'_1'
p1716
g18
(tRp1717
S't/they'
p1718
(lp1719
(tassS'_0'
p1720
g18
(tRp1721
S'ARG0'
p1722
(lp1723
(g1716
tp1724
asS'ARG1'
p1725
(lp1726
(g1709
tp1727
asS'o/own-01'
p1728
(lp1729
(tass(dp1730
g44
I00
sg45
I10
sg46
(dp1731
g1720
Nssg48
I0
sg49
Nsg50
(dp1732
sg52
(dp1733
sg54
Nsg55
(dp1734
sg57
(lp1735
g1720
asg60
(dp1736
sbsS'f'
(lp1737
S'They'
p1738
aS'own'
p1739
aS'two'
p1740
aS'acres'
p1741
ag372
asg64
I0
sg65
I0
sg66
g165
sg68
(lp1742
sg70
Nsg71
(lp1743
sbI1
sg1
(g12
g3
NtRp1744
(dp1745
S'e'
g15
(tRp1746
S'_4'
p1747
g18
(tRp1748
sS'_3'
p1749
g18
(tRp1750
sS'_2'
p1751
g18
(tRp1752
S'ARG1'
p1753
(lp1754
(g1749
tp1755
asS'c/come-01'
p1756
(lp1757
(tassS'_1'
p1758
g18
(tRp1759
S'ARG1'
p1760
(lp1761
(g1751
tp1762
asS'p/possible-01'
p1763
(lp1764
(tassS'_0'
p1765
g18
(tRp1766
S'snt2'
p1767
(lp1768
(g1747
tp1769
asS'snt1'
p1770
(lp1771
(g1758
tp1772
asS'm/multi-sentence'
p1773
(lp1774
(tass(dp1775
g45
I7
sg54
Nsg50
(dp1776
sg60
(dp1777
sg44
I00
sg46
(dp1778
g1765
Nssg48
I0
sg49
Nsg57
(lp1779
g1765
asg52
(dp1780
g1747
I1
sg1749
I0
ssg55
(dp1781
I0
S'_3'
p1782
sI1
S'_4'
p1783
ssbsS'f'
(lp1784
S'might'
p1785
aS'come'
p1786
asg64
I0
sg65
I0
sg66
g231
sg68
(lp1787
sg70
Nsg71
(lp1788
sbI-1
sg1
(g12
g3
NtRp1789
(dp1790
S'e'
g15
(tRp1791
S'_7'
p1792
g18
(tRp1793
S'k/kill-01'
p1794
(lp1795
(tassS'_6'
p1796
g18
(tRp1797
S'w/wave'
p1798
(lp1799
(tasS'ARG0-of'
p1800
(lp1801
(g1792
tp1802
assS'_5'
p1803
g18
(tRp1804
g1
(g214
g3
NtRp1805
(dp1806
g217
I0
sg218
S'A1-1'
p1807
sb(lp1808
(tassS'_4'
p1809
g18
(tRp1810
S'd3/devastate-01'
p1811
(lp1812
(tassS'_3'
p1813
g18
(tRp1814
S'ARG0-of'
p1815
(lp1816
(g1809
tp1817
asS'd2/destroy-01'
p1818
(lp1819
(tassS'_2'
p1820
g18
(tRp1821
S'ARG1'
p1822
(lp1823
(g1813
tp1824
asS'c2/cause-01'
p1825
(lp1826
(tassS'_1'
p1827
g18
(tRp1828
S'r/recent'
p1829
(lp1830
(tassS'_0'
p1831
g18
(tRp1832
S'ARG1'
p1833
(lp1834
(g1803
tp1835
asS'ARG2'
p1836
(lp1837
(g1796
tp1838
asS'ARG0-of'
p1839
(lp1840
(g1820
tp1841
asS'h/hit-01'
p1842
(lp1843
(tasS'time'
p1844
(lp1845
(g1827
tp1846
ass(dp1847
g44
I00
sg45
I15
sg46
(dp1848
g1831
Nssg48
I0
sg49
Nsg50
(dp1849
sg52
(dp1850
sg54
Nsg55
(dp1851
sg57
(lp1852
g1831
asg60
(dp1853
sbsS'f'
(lp1854
g165
aS'was'
p1855
aS'recently'
p1856
aS'hit'
p1857
aS'by'
p1858
aS'deadly'
p1859
aS'waves'
p1860
aS','
aS'causing'
p1861
aS'devastating'
p1862
aS'destruction'
p1863
asg64
I0
sg65
I0
sg66
g165
sg68
(lp1864
sg70
Nsg71
(lp1865
sbI1
sg1
(g12
g3
NtRp1866
(dp1867
S'e'
g15
(tRp1868
S'_7'
p1869
g18
(tRp1870
S's/sharp'
p1871
(lp1872
(tassS'_6'
p1873
g18
(tRp1874
S'e/export-01'
p1875
(lp1876
(tassS'_5'
p1877
g18
(tRp1878
S'ARG1-of'
p1879
(lp1880
(g1873
tp1881
asS't2/thing'
p1882
(lp1883
(tassS'_4'
p1884
g18
(tRp1885
S'ARG1'
p1886
(lp1887
(g1877
tp1888
asS'ARG2'
p1889
(lp1890
(g1869
tp1891
asS'f/fall-01'
p1892
(lp1893
(tassS'_3'
p1894
g18
(tRp1895
S'i2/import-01'
p1896
(lp1897
(tassS'_2'
p1898
g18
(tRp1899
S'ARG1-of'
p1900
(lp1901
(g1894
tp1902
asS't/thing'
p1903
(lp1904
(tassS'_1'
p1905
g18
(tRp1906
S'ARG1'
p1907
(lp1908
(g1898
tp1909
asS'i/increase-01'
p1910
(lp1911
(tassS'_0'
p1912
g18
(tRp1913
S'c/contrast-01'
p1914
(lp1915
(tasS'ARG2'
p1916
(lp1917
(g1884
tp1918
asS'ARG1'
p1919
(lp1920
(g1905
tp1921
ass(dp1922
g44
I00
sg45
I15
sg46
(dp1923
g1912
Nssg48
I0
sg49
Nsg50
(dp1924
sg52
(dp1925
sg54
Nsg55
(dp1926
sg57
(lp1927
g1912
asg60
(dp1928
sbsS'f'
(lp1929
S'Imports'
p1930
aS'increased'
p1931
aS','
aS'while'
p1932
aS'exports'
p1933
aS'fell'
p1934
aS'sharply'
p1935
asg64
I0
sg65
I0
sg66
g165
sg68
(lp1936
sg70
Nsg71
(lp1937
sbI1
sg1
(g12
g3
NtRp1938
(dp1939
S'e'
g15
(tRp1940
S'_3'
p1941
g18
(tRp1942
S'"Jacques"'
p1943
(lp1944
(tassS'_2'
p1945
g18
(tRp1946
S'n/name'
p1947
(lp1948
(tasS'op1'
p1949
(lp1950
(g1941
tp1951
assS'_1'
p1952
g18
(tRp1953
S'-'
(lp1954
(tassS'_0'
p1955
g18
(tRp1956
S'p/person'
p1957
(lp1958
(tasS'wiki'
p1959
(lp1960
(g1952
tp1961
asS'name'
p1962
(lp1963
(g1945
tp1964
ass(dp1965
g45
I7
sg54
Nsg50
(dp1966
sg60
(dp1967
sg44
I00
sg46
(dp1968
sg48
I0
sg49
Nsg57
(lp1969
S'_0'
p1970
asg52
(dp1971
sg55
(dp1972
sbsS'f'
(lp1973
S'Jacques'
p1974
asg64
I0
sg65
I0
sg66
g234
sg68
(lp1975
sg70
Nsg71
(lp1976
sbI-1
sg1
(g12
g3
NtRp1977
(dp1978
S'e'
g15
(tRp1979
S'_3'
p1980
g18
(tRp1981
sS'_2'
p1982
g18
(tRp1983
sS'_1'
p1984
g18
(tRp1985
S'-,27'
p1986
(lp1987
(tassS'_0'
p1988
g18
(tRp1989
S'polarity'
p1990
(lp1991
(g1984
tp1992
asS'ARG0'
p1993
(lp1994
(g1982
tp1995
asS'ARG1'
p1996
(lp1997
(g1980
tp1998
ass(dp1999
g44
I00
sg45
I4
sg46
(dp2000
sg48
I0
sg49
Nsg50
(dp2001
sg52
(dp2002
g1980
I1
sg1982
I0
ssg54
Nsg55
(dp2003
I0
g1982
sI1
g1980
ssg57
(lp2004
S'_0'
p2005
asg60
(dp2006
sbsS'f'
(lp2007
S'not'
p2008
asg64
I0
sg65
I0
sg66
S'[A3-000]'
p2009
sg68
(lp2010
sg70
Nsg71
(lp2011
sbI1
sg1
(g12
g3
NtRp2012
(dp2013
S'e'
g15
(tRp2014
S'_4'
p2015
g18
(tRp2016
S's/special-02'
p2017
(lp2018
(tassS'_3'
p2019
g18
(tRp2020
S'h/have-org-role-91'
p2021
(lp2022
(tassS'_2'
p2023
g18
(tRp2024
S'g/governor'
p2025
(lp2026
(tasS'ARG2-of'
p2027
(lp2028
(g2019
tp2029
assS'_1'
p2030
g18
(tRp2031
g1
(g214
g3
NtRp2032
(dp2033
g217
I0
sg218
S'A1-1'
p2034
sb(lp2035
(tassS'_0'
p2036
g18
(tRp2037
S'ARG2'
p2038
(lp2039
(g2023
tp2040
asS'e/elect-01'
p2041
(lp2042
(tasS'ARG1-of'
p2043
(lp2044
(g2015
tp2045
asS'time'
p2046
(lp2047
(g2030
tp2048
ass(dp2049
g44
I00
sg45
I9
sg46
(dp2050
g2036
Nssg48
I0
sg49
Nsg50
(dp2051
sg52
(dp2052
sg54
Nsg55
(dp2053
sg57
(lp2054
g2036
asg60
(dp2055
sbsS'f'
(lp2056
S'special'
p2057
aS'gubernatorial'
p2058
aS'election'
p2059
aS'will'
p2060
aS'take'
p2061
aS'place'
p2062
ag165
asg64
I0
sg65
I0
sg66
g165
sg68
(lp2063
sg70
Nsg71
(lp2064
sbI1
sg1
(g12
g3
NtRp2065
(dp2066
S'e'
g15
(tRp2067
S'_6'
p2068
g18
(tRp2069
S'p2/possible-01'
p2070
(lp2071
(tassS'_5'
p2072
g18
(tRp2073
S'ARG1-of'
p2074
(lp2075
(g2068
tp2076
asS'c2/come-01'
p2077
(lp2078
(tassS'_4'
p2079
g18
(tRp2080
S'ARG1-of'
p2081
(lp2082
(g2072
tp2083
asS'b2/boy'
p2084
(lp2085
(tassS'_3'
p2086
g18
(tRp2087
S'b/boy'
p2088
(lp2089
(tassS'_2'
p2090
g18
(tRp2091
S'ARG1'
p2092
(lp2093
(g2086
tp2094
asS'c/come-01'
p2095
(lp2096
(tassS'_1'
p2097
g18
(tRp2098
S'ARG1'
p2099
(lp2100
(g2090
tp2101
asS'p/possible-01'
p2102
(lp2103
(tassS'_0'
p2104
g18
(tRp2105
S'snt2'
p2106
(lp2107
(g2079
tp2108
asS'snt1'
p2109
(lp2110
(g2097
tp2111
asS'm/multi-sentence'
p2112
(lp2113
(tass(dp2114
g44
I00
sg45
I13
sg46
(dp2115
g2104
Nssg48
I0
sg49
Nsg50
(dp2116
sg52
(dp2117
sg54
Nsg55
(dp2118
sg57
(lp2119
g2104
asg60
(dp2120
sbsS'f'
(lp2121
S'boy'
p2122
aS'might'
p2123
aS'come'
p2124
aS'.'
aS'A'
aS'boy'
p2125
aS'who'
p2126
aS'might'
p2127
aS'come'
p2128
asg64
I0
sg65
I0
sg66
g165
sg68
(lp2129
sg70
Nsg71
(lp2130
sbI1
sg1
(g12
g3
NtRp2131
(dp2132
S'e'
g15
(tRp2133
S'_2'
p2134
g18
(tRp2135
S'c/city'
p2136
(lp2137
(tassS'_1'
p2138
g18
(tRp2139
sS'_0'
p2140
g18
(tRp2141
S'quant'
p2142
(lp2143
(g2138
tp2144
asS'location'
p2145
(lp2146
(g2134
tp2147
asS'l/land'
p2148
(lp2149
(tass(dp2150
g44
I00
sg45
I4
sg46
(dp2151
g2140
Nssg48
I0
sg49
Nsg50
(dp2152
sg52
(dp2153
g2138
I0
ssg54
Nsg55
(dp2154
I0
S'_1'
p2155
ssg57
(lp2156
g2140
asg60
(dp2157
sbsS'f'
(lp2158
S'of'
p2159
aS'land'
p2160
aS'within'
p2161
aS'the'
p2162
aS'city'
p2163
asg64
I0
sg65
I0
sg66
g372
sg68
(lp2164
sg70
Nsg71
(lp2165
sbI1
sg1
(g12
g3
NtRp2166
(dp2167
S'e'
g15
(tRp2168
S'_5'
p2169
g18
(tRp2170
S'1'
(lp2171
(tassS'_4'
p2172
g18
(tRp2173
S'2'
(lp2174
(tassS'_3'
p2175
g18
(tRp2176
S'op1'
p2177
(lp2178
(g2172
tp2179
asS'op2'
p2180
(lp2181
(g2169
tp2182
asS's2/score-entity'
p2183
(lp2184
(tassS'_2'
p2185
g18
(tRp2186
g1
(g214
g3
NtRp2187
(dp2188
g217
I0
sg218
S'A1-1'
p2189
sb(lp2190
(tassS'_1'
p2191
g18
(tRp2192
S'f/final'
p2193
(lp2194
(tasS'subevent-of'
p2195
(lp2196
(g2185
tp2197
assS'_0'
p2198
g18
(tRp2199
g1
(g214
g3
NtRp2200
(dp2201
g217
I1
sg218
S'A2-10'
p2202
sb(lp2203
(g2191
tp2204
asS'quant'
p2205
(lp2206
(g2175
tp2207
ass(dp2208
g44
I00
sg45
I10
sg46
(dp2209
g2198
Nssg48
I0
sg49
Nsg50
(dp2210
sg52
(dp2211
sg54
Nsg55
(dp2212
sg57
(lp2213
g2198
asg60
(dp2214
sbsS'f'
(lp2215
g165
aS'final'
p2216
aS','
ag372
aS'2'
aS'@-@'
p2217
aS'1'
asg64
I0
sg65
I0
sg66
g165
sg68
(lp2218
sg70
Nsg71
(lp2219
sbI1
sg1
(g12
g3
NtRp2220
(dp2221
S'e'
g15
(tRp2222
S'_8'
p2223
g18
(tRp2224
S's/snow-01'
p2225
(lp2226
(tassS'_7'
p2227
g18
(tRp2228
S'5'
(lp2229
(tassS'_6'
p2230
g18
(tRp2231
S'm2/mile'
p2232
(lp2233
(tassS'_5'
p2234
g18
(tRp2235
S'quant'
p2236
(lp2237
(g2227
tp2238
asS'd2/distance-quantity'
p2239
(lp2240
(tasS'unit'
p2241
(lp2242
(g2230
tp2243
assS'_4'
p2244
g18
(tRp2245
S'p/person'
p2246
(lp2247
(tassS'_3'
p2248
g18
(tRp2249
S'2'
(lp2250
(tassS'_2'
p2251
g18
(tRp2252
S'd/dollar'
p2253
(lp2254
(tassS'_1'
p2255
g18
(tRp2256
S'quant'
p2257
(lp2258
(g2248
tp2259
asS'm/monetary-quantity'
p2260
(lp2261
(tasS'unit'
p2262
(lp2263
(g2251
tp2264
assS'_0'
p2265
g18
(tRp2266
S'ARG1'
p2267
(lp2268
(g2255
tp2269
asS'ARG2'
p2270
(lp2271
(g2244
tp2272
asS'ARG3'
p2273
(lp2274
(g2234
tp2275
asS'r/rate-entity-91'
p2276
(lp2277
(tasS'ARG4'
p2278
(lp2279
(g2223
tp2280
ass(dp2281
g44
I00
sg45
I17
sg46
(dp2282
g2265
Nssg48
I0
sg49
Nsg50
(dp2283
sg52
(dp2284
sg54
Nsg55
(dp2285
sg57
(lp2286
g2265
asg60
(dp2287
sbsS'f'
(lp2288
S'$'
aS'2'
aS'a'
aS'person'
p2289
aS'every'
p2290
aS'5'
aS'miles'
p2291
aS'whenever'
p2292
aS'it'
p2293
aS'snows'
p2294
asg64
I0
sg65
I0
sg66
g165
sg68
(lp2295
sg70
Nsg71
(lp2296
sbI1
sg1
(g12
g3
NtRp2297
(dp2298
S'e'
g15
(tRp2299
S'_4'
p2300
g18
(tRp2301
S'a/all'
p2302
(lp2303
(tassS'_3'
p2304
g18
(tRp2305
S'c2/claim-02'
p2306
(lp2307
(tasS'mod'
p2308
(lp2309
(g2300
tp2310
assS'_2'
p2311
g18
(tRp2312
S'r/release-01'
p2313
(lp2314
(tasS'ARG1'
p2315
(lp2316
(g2304
tp2317
asS'ARG2'
p2318
(lp2319
(S'_1'
tp2320
assS'_1'
p2321
g18
(tRp2322
sS'_0'
p2323
g18
(tRp2324
g1
(g214
g3
NtRp2325
(dp2326
g217
I0
sg218
S'A3-110'
p2327
sb(lp2328
(g2321
g2311
tp2329
ass(dp2330
g44
I00
sg45
I7
sg46
(dp2331
g2323
Nssg48
I0
sg49
Nsg50
(dp2332
sg52
(dp2333
sg54
Nsg55
(dp2334
sg57
(lp2335
g2323
asg60
(dp2336
sbsS'f'
(lp2337
S'[A3-110]'
p2338
aS'the'
p2339
aS'release'
p2340
aS'of'
p2341
aS'all'
p2342
aS'claims'
p2343
asg64
I0
sg65
I0
sg66
g165
sg68
(lp2344
sg70
Nsg71
(lp2345
sbI1
sg1
(g12
g3
NtRp2346
(dp2347
S'e'
g15
(tRp2348
S'_8'
p2349
g18
(tRp2350
S's/several'
p2351
(lp2352
(tassS'_7'
p2353
g18
(tRp2354
S'"Assad"'
p2355
(lp2356
(tassS'_6'
p2357
g18
(tRp2358
S'n/name'
p2359
(lp2360
(tasS'op1'
p2361
(lp2362
(g2353
tp2363
assS'_5'
p2364
g18
(tRp2365
S'"Bashar_al-Assad"'
p2366
(lp2367
(tassS'_4'
p2368
g18
(tRp2369
S'wiki'
p2370
(lp2371
(g2364
tp2372
asS'p4/person'
p2373
(lp2374
(tasS'name'
p2375
(lp2376
(g2357
tp2377
assS'_3'
p2378
g18
(tRp2379
S'p3/protest-01'
p2380
(lp2381
(tasS'ARG1'
p2382
(lp2383
(g2368
tp2384
assS'_2'
p2385
g18
(tRp2386
S'p2/person'
p2387
(lp2388
(tasS'quant'
p2389
(lp2390
(g2349
tp2391
asS'ARG0-of'
p2392
(lp2393
(g2378
tp2394
assS'_1'
p2395
g18
(tRp2396
S'p/police'
p2397
(lp2398
(tassS'_0'
p2399
g18
(tRp2400
S'ARG0'
p2401
(lp2402
(g2395
tp2403
asS'ARG1'
p2404
(lp2405
(g2385
tp2406
asS'a/arrest-01'
p2407
(lp2408
(tass(dp2409
g45
I17
sg54
Nsg50
(dp2410
sg60
(dp2411
sg44
I00
sg46
(dp2412
g2399
Nssg48
I0
sg49
Nsg57
(lp2413
g2399
asg52
(dp2414
sg55
(dp2415
sbsS'f'
(lp2416
S'police'
p2417
aS'arrested'
p2418
aS'several'
p2419
aS'anti'
p2420
aS'@-@'
p2421
aS'Assad'
p2422
aS'protesters'
p2423
asg64
I0
sg65
I0
sg66
g234
sg68
(lp2424
sg70
Nsg71
(lp2425
sbI-1
sg1
(g12
g3
NtRp2426
(dp2427
S'e'
g15
(tRp2428
S'_5'
p2429
g18
(tRp2430
sS'_4'
p2431
g18
(tRp2432
S'd/dollar'
p2433
(lp2434
(tassS'_3'
p2435
g18
(tRp2436
S'20000'
p2437
(lp2438
(tassS'_2'
p2439
g18
(tRp2440
S'quant'
p2441
(lp2442
(g2435
tp2443
asS'unit'
p2444
(lp2445
(g2431
tp2446
asS'm/monetary-quantity'
p2447
(lp2448
(tassS'_1'
p2449
g18
(tRp2450
S'c/company'
p2451
(lp2452
(tassS'_0'
p2453
g18
(tRp2454
S'ARG0'
p2455
(lp2456
(g2449
tp2457
asS'ARG1'
p2458
(lp2459
(g2439
tp2460
asS'ARG3'
p2461
(lp2462
(g2429
tp2463
asS'p/pay-01'
p2464
(lp2465
(tass(dp2466
g44
I00
sg45
I10
sg46
(dp2467
g2453
Nssg48
I0
sg49
Nsg50
(dp2468
sg52
(dp2469
g2429
I1
sg2449
I0
ssg54
Nsg55
(dp2470
I0
S'_1'
p2471
sI1
S'_5'
p2472
ssg57
(lp2473
g2453
asg60
(dp2474
sbsS'f'
(lp2475
S'company'
p2476
aS'paid'
p2477
aS'$'
aS'20,000'
p2478
aS'in'
p2479
aS'return'
p2480
aS'for'
p2481
asg64
I0
sg65
I0
sg66
g2338
sg68
(lp2482
sg70
Nsg71
(lp2483
sbI1
sg1
(g12
g3
NtRp2484
(dp2485
S'e'
g15
(tRp2486
S'_4'
p2487
g18
(tRp2488
S'"Army"'
p2489
(lp2490
(tassS'_3'
p2491
g18
(tRp2492
S'"U.S."'
p2493
(lp2494
(tassS'_2'
p2495
g18
(tRp2496
S'n2/name'
p2497
(lp2498
(tasS'op2'
p2499
(lp2500
(g2487
tp2501
asS'op1'
p2502
(lp2503
(g2491
tp2504
assS'_1'
p2505
g18
(tRp2506
S'"United_States_Army"'
p2507
(lp2508
(tassS'_0'
p2509
g18
(tRp2510
S'wiki'
p2511
(lp2512
(g2505
tp2513
asS'm/military'
p2514
(lp2515
(tasS'name'
p2516
(lp2517
(g2495
tp2518
ass(dp2519
g44
I00
sg45
I9
sg46
(dp2520
sg48
I0
sg49
Nsg50
(dp2521
sg52
(dp2522
sg54
Nsg55
(dp2523
sg57
(lp2524
S'_0'
p2525
asg60
(dp2526
sbsS'f'
(lp2527
S'U.S.'
p2528
aS'Army'
p2529
asg64
I0
sg65
I0
sg66
g165
sg68
(lp2530
sg70
Nsg71
(lp2531
sbI1
sg1
(g12
g3
NtRp2532
(dp2533
S'e'
g15
(tRp2534
S'_6'
p2535
g18
(tRp2536
S't/they'
p2537
(lp2538
(tassS'_5'
p2539
g18
(tRp2540
S't2/tomorrow'
p2541
(lp2542
(tassS'_4'
p2543
g18
(tRp2544
S'2'
(lp2545
(tassS'_3'
p2546
g18
(tRp2547
S'w/week'
p2548
(lp2549
(tassS'_2'
p2550
g18
(tRp2551
S't3/temporal-quantity'
p2552
(lp2553
(tasS'quant'
p2554
(lp2555
(g2543
tp2556
asS'unit'
p2557
(lp2558
(g2546
tp2559
assS'_1'
p2560
g18
(tRp2561
S'quant'
p2562
(lp2563
(g2550
tp2564
asS'a/after'
p2565
(lp2566
(tasS'op1'
p2567
(lp2568
(g2539
tp2569
assS'_0'
p2570
g18
(tRp2571
S'ARG1'
p2572
(lp2573
(g2535
tp2574
asS'm/marry-01'
p2575
(lp2576
(tasS'time'
p2577
(lp2578
(g2560
tp2579
ass(dp2580
g45
I13
sg54
Nsg50
(dp2581
sg60
(dp2582
sg44
I00
sg46
(dp2583
g2570
Nssg48
I0
sg49
Nsg57
(lp2584
g2570
asg52
(dp2585
sg55
(dp2586
sbsS'f'
(lp2587
S'They'
p2588
aS'will'
p2589
aS'get'
p2590
aS'married'
p2591
aS'two'
p2592
aS'weeks'
p2593
aS'from'
p2594
aS'tomorrow'
p2595
asg64
I0
sg65
I0
sg66
g1229
sg68
(lp2596
sg70
Nsg71
(lp2597
sbI-1
sg1
(g12
g3
NtRp2598
(dp2599
S'e'
g15
(tRp2600
S'_2'
p2601
g18
(tRp2602
g1
(g214
g3
NtRp2603
(dp2604
g217
I0
sg218
S'A1-1'
p2605
sb(lp2606
(tassS'_1'
p2607
g18
(tRp2608
S'w/we'
p2609
(lp2610
(tassS'_0'
p2611
g18
(tRp2612
S'ARG0'
p2613
(lp2614
(g2607
tp2615
asS'ARG1'
p2616
(lp2617
(g2601
tp2618
asS'r/recommend-01'
p2619
(lp2620
(tass(dp2621
g44
I00
sg45
I5
sg46
(dp2622
g2611
Nssg48
I0
sg49
Nsg50
(dp2623
sg52
(dp2624
sg54
Nsg55
(dp2625
sg57
(lp2626
g2611
asg60
(dp2627
sbsS'f'
(lp2628
S'We'
p2629
aS'recommend'
p2630
aS'an'
p2631
ag165
asg64
I0
sg65
I0
sg66
g165
sg68
(lp2632
sg70
Nsg71
(lp2633
sbI1
sg1
(g12
g3
NtRp2634
(dp2635
S'e'
g15
(tRp2636
S'_6'
p2637
g18
(tRp2638
g1
(g214
g3
NtRp2639
(dp2640
g217
I0
sg218
S'A1-1'
p2641
sb(lp2642
(tassS'_5'
p2643
g18
(tRp2644
S'42000'
p2645
(lp2646
(tassS'_4'
p2647
g18
(tRp2648
S'd/dollar'
p2649
(lp2650
(tassS'_3'
p2651
g18
(tRp2652
S'quant'
p2653
(lp2654
(g2643
tp2655
asS'unit'
p2656
(lp2657
(g2647
tp2658
asS'm/monetary-quantity'
p2659
(lp2660
(tassS'_2'
p2661
g18
(tRp2662
S'ARG1'
p2663
(lp2664
(g2651
tp2665
asS'ARG2'
p2666
(lp2667
(g2637
tp2668
asS'r/rate-entity-91'
p2669
(lp2670
(tassS'_1'
p2671
g18
(tRp2672
S'h/he'
p2673
(lp2674
(tassS'_0'
p2675
g18
(tRp2676
S'ARG0'
p2677
(lp2678
(g2671
tp2679
asS'ARG1'
p2680
(lp2681
(g2661
tp2682
asS'e/earn-01'
p2683
(lp2684
(tass(dp2685
g45
I13
sg54
Nsg50
(dp2686
sg60
(dp2687
sg44
I00
sg46
(dp2688
g2675
Nssg48
I0
sg49
Nsg57
(lp2689
g2675
asg52
(dp2690
sg55
(dp2691
sbsS'f'
(lp2692
S'He'
p2693
aS'earns'
p2694
aS'$'
aS'42,000'
p2695
aS'per'
p2696
ag234
asg64
I0
sg65
I0
sg66
g234
sg68
(lp2697
sg70
Nsg71
(lp2698
sbI-1
sg1
(g12
g3
NtRp2699
(dp2700
S'e'
g15
(tRp2701
S'_6'
p2702
g18
(tRp2703
S'h/he'
p2704
(lp2705
(tassS'_5'
p2706
g18
(tRp2707
S'h2/hostile'
p2708
(lp2709
(tassS'_4'
p2710
g18
(tRp2711
S'i/insult-01'
p2712
(lp2713
(tassS'_3'
p2714
g18
(tRp2715
S'domain'
p2716
(lp2717
(g2706
tp2718
asS'ARG0-of'
p2719
(lp2720
(g2710
tp2721
asS'e/email'
p2722
(lp2723
(tassS'_2'
p2724
g18
(tRp2725
S'ARG2'
p2726
(lp2727
(g2714
tp2728
asS'm/mean-01'
p2729
(lp2730
(tassS'_1'
p2731
g18
(tRp2732
S'f/flame'
p2733
(lp2734
(tasS'ARG1-of'
p2735
(lp2736
(g2724
tp2737
assS'_0'
p2738
g18
(tRp2739
S'ARG2'
p2740
(lp2741
(g2731
tp2742
asg1
(g214
g3
NtRp2743
(dp2744
g217
I0
sg218
S'A2-10'
p2745
sb(lp2746
(g2702
tp2747
ass(dp2748
g44
I00
sg45
I12
sg46
(dp2749
g2738
Nssg48
I0
sg49
Nsg50
(dp2750
sg52
(dp2751
sg54
Nsg55
(dp2752
sg57
(lp2753
g2738
asg60
(dp2754
sbsS'f'
(lp2755
S'He'
p2756
ag372
aS'with'
p2757
aS'a'
aS'flame'
p2758
aS'('
aS'a'
aS'hostile'
p2759
aS'and'
p2760
aS'insulting'
p2761
aS'email'
p2762
asg64
I0
sg65
I0
sg66
g165
sg68
(lp2763
sg70
Nsg71
(lp2764
sbI1
sg1
(g12
g3
NtRp2765
(dp2766
S'e'
g15
(tRp2767
S'_3'
p2768
g18
(tRp2769
S'w2/wednesday'
p2770
(lp2771
(tassS'_2'
p2772
g18
(tRp2773
S'd/date-entity'
p2774
(lp2775
(tasS'weekday'
p2776
(lp2777
(g2768
tp2778
assS'_1'
p2779
g18
(tRp2780
sS'_0'
p2781
g18
(tRp2782
S'ARG4'
p2783
(lp2784
(g2772
tp2785
asS'ARG3'
p2786
(lp2787
(g2779
tp2788
asS'r/rate-entity-91'
p2789
(lp2790
(tass(dp2791
g44
I00
sg45
I6
sg46
(dp2792
g2781
Nssg48
I0
sg49
Nsg50
(dp2793
sg52
(dp2794
g2779
I0
ssg54
Nsg55
(dp2795
I0
S'_1'
p2796
ssg57
(lp2797
g2781
asg60
(dp2798
sbsS'f'
(lp2799
S'Wednesday'
p2800
asg64
I0
sg65
I0
sg66
g372
sg68
(lp2801
sg70
Nsg71
(lp2802
sbI1
sg1
(g12
g3
NtRp2803
(dp2804
S'e'
g15
(tRp2805
S'_4'
p2806
g18
(tRp2807
S'3'
(lp2808
(tassS'_3'
p2809
g18
(tRp2810
g1
(g214
g3
NtRp2811
(dp2812
g217
I0
sg218
S'A2-10'
p2813
sb(lp2814
(g2806
tp2815
assS'_2'
p2816
g18
(tRp2817
S'a/aircraft'
p2818
(lp2819
(tassS'_1'
p2820
g18
(tRp2821
S'v/velocity'
p2822
(lp2823
(tasS'poss'
p2824
(lp2825
(g2816
tp2826
assS'_0'
p2827
g18
(tRp2828
S'ARG0'
p2829
(lp2830
(g2820
tp2831
asS'ARG1'
p2832
(lp2833
(g2809
tp2834
asS'r/reach-01'
p2835
(lp2836
(tass(dp2837
g45
I8
sg54
Nsg50
(dp2838
sg60
(dp2839
sg44
I00
sg46
(dp2840
g2827
Nssg48
I0
sg49
Nsg57
(lp2841
g2827
asg52
(dp2842
sg55
(dp2843
sbsS'f'
(lp2844
S'aircraft'
p2845
aS"'s"
p2846
aS'velocity'
p2847
aS'reached'
p2848
aS'three'
p2849
ag198
asg64
I0
sg65
I0
sg66
g234
sg68
(lp2850
sg70
Nsg71
(lp2851
sbI-1
sg1
(g12
g3
NtRp2852
(dp2853
S'e'
g15
(tRp2854
S'_2'
p2855
g18
(tRp2856
S'w/waste'
p2857
(lp2858
(tassS'_1'
p2859
g18
(tRp2860
sS'_0'
p2861
g18
(tRp2862
S'ARG1'
p2863
(lp2864
(g2855
tp2865
asS'ARG1-of'
p2866
(lp2867
(g2859
tp2868
asS'd/dispose-01'
p2869
(lp2870
(tass(dp2871
g45
I4
sg54
Nsg50
(dp2872
sg60
(dp2873
sg44
I00
sg46
(dp2874
g2861
Nssg48
I0
sg49
Nsg57
(lp2875
g2861
asg52
(dp2876
g2859
I0
ssg55
(dp2877
I0
S'_1'
p2878
ssbsS'f'
(lp2879
S'waste'
p2880
aS'was'
p2881
aS'disposed'
p2882
aS'of'
p2883
aS'in'
p2884
asg64
I0
sg65
I0
sg66
S'[A2-10]'
p2885
sg68
(lp2886
sg70
Nsg71
(lp2887
sbI-1
sg1
(g12
g3
NtRp2888
(dp2889
S'e'
g15
(tRp2890
S'_4'
p2891
g18
(tRp2892
S'ARG1'
p2893
(lp2894
(S'_2'
tp2895
asS'ARG3'
p2896
(lp2897
(S'_3'
tp2898
asS'r/return-01'
p2899
(lp2900
(tassS'_3'
p2901
g18
(tRp2902
S's/store'
p2903
(lp2904
(tassS'_2'
p2905
g18
(tRp2906
S'i/i'
p2907
(lp2908
(tassS'_1'
p2909
g18
(tRp2910
S'ARG0'
p2911
(lp2912
(g2905
tp2913
asS'ARG4'
p2914
(lp2915
(g2901
tp2916
asS'g/go-02'
p2917
(lp2918
(tassS'_0'
p2919
g18
(tRp2920
S'a/and'
p2921
(lp2922
(tasS'op1'
p2923
(lp2924
(g2909
tp2925
asS'op2'
p2926
(lp2927
(g2891
tp2928
ass(dp2929
g45
I11
sg54
Nsg50
(dp2930
sg60
(dp2931
sg44
I00
sg46
(dp2932
g2919
Nssg48
I0
sg49
Nsg57
(lp2933
g2919
asg52
(dp2934
sg55
(dp2935
sbsS'f'
(lp2936
S'I'
aS'went'
p2937
aS'to'
p2938
aS'the'
p2939
aS'store'
p2940
aS'and'
p2941
aS'back'
p2942
asg64
I0
sg65
I0
sg66
g1285
sg68
(lp2943
sg70
Nsg71
(lp2944
sbI-1
sg1
(g12
g3
NtRp2945
(dp2946
S'e'
g15
(tRp2947
S'_5'
p2948
g18
(tRp2949
S'"EPA"'
p2950
(lp2951
(tassS'_4'
p2952
g18
(tRp2953
S'n/name'
p2954
(lp2955
(tasS'op1'
p2956
(lp2957
(g2948
tp2958
assS'_3'
p2959
g18
(tRp2960
S'"United_States_Environmental_Protection_Agency"'
p2961
(lp2962
(tassS'_2'
p2963
g18
(tRp2964
S'wiki'
p2965
(lp2966
(g2959
tp2967
asS'g/government-organization'
p2968
(lp2969
(tasS'name'
p2970
(lp2971
(g2952
tp2972
assS'_1'
p2973
g18
(tRp2974
S'ARG0'
p2975
(lp2976
(g2963
tp2977
asS'r/regulate-01'
p2978
(lp2979
(tassS'_0'
p2980
g18
(tRp2981
S'ARG2'
p2982
(lp2983
(g2973
tp2984
asS'a/accord-02'
p2985
(lp2986
(tass(dp2987
g44
I00
sg45
I11
sg46
(dp2988
g2980
Nssg48
I0
sg49
Nsg50
(dp2989
sg52
(dp2990
sg54
Nsg55
(dp2991
sg57
(lp2992
g2980
asg60
(dp2993
sbsS'f'
(lp2994
S'accordance'
p2995
aS'with'
p2996
aS'EPA'
p2997
aS'regulations'
p2998
asg64
I0
sg65
I0
sg66
g165
sg68
(lp2999
sg70
Nsg71
(lp3000
sbI1
sg1
(g12
g3
NtRp3001
(dp3002
S'e'
g15
(tRp3003
S'_5'
p3004
g18
(tRp3005
sS'_4'
p3006
g18
(tRp3007
sS'_3'
p3008
g18
(tRp3009
S'x2/2'
p3010
(lp3011
(tassS'_2'
p3012
g18
(tRp3013
S'li'
p3014
(lp3015
(g3008
tp3016
assS'_1'
p3017
g18
(tRp3018
g1
(g214
g3
NtRp3019
(dp3020
g217
I0
sg218
S'A1-1'
p3021
sb(lp3022
(tassS'_0'
p3023
g18
(tRp3024
S'op4'
p3025
(lp3026
(g3004
tp3027
asS'a2/and'
p3028
(lp3029
(tasS'op1'
p3030
(lp3031
(g3017
tp3032
asS'op2'
p3033
(lp3034
(g3012
tp3035
asS'op3'
p3036
(lp3037
(g3006
tp3038
ass(dp3039
g44
I00
sg45
I8
sg46
(dp3040
g3023
Nssg48
I0
sg49
Nsg50
(dp3041
sg52
(dp3042
g3004
I3
sg3006
I2
sg3012
I1
sg3017
I0
ssg54
Nsg55
(dp3043
I0
S'_1'
p3044
sI1
S'_2'
p3045
sI2
S'_4'
p3046
sI3
S'_5'
p3047
ssg57
(lp3048
g3023
asg60
(dp3049
sbsS'f'
(lp3050
g165
aS'('
aS'2'
asg64
I0
sg65
I0
sg66
S'[A5-11000]'
p3051
sg68
(lp3052
sg70
Nsg71
(lp3053
sbI1
sg1
(g12
g3
NtRp3054
(dp3055
S'e'
g15
(tRp3056
S'_3'
p3057
g18
(tRp3058
S's/soccer'
p3059
(lp3060
(tassS'_2'
p3061
g18
(tRp3062
S'1974'
p3063
(lp3064
(tassS'_1'
p3065
g18
(tRp3066
S'd/date-entity'
p3067
(lp3068
(tasS'year'
p3069
(lp3070
(g3061
tp3071
assS'_0'
p3072
g18
(tRp3073
S'mod'
p3074
(lp3075
(g3057
tp3076
asg1
(g214
g3
NtRp3077
(dp3078
g217
I0
sg218
S'A1-1'
p3079
sb(lp3080
(tasS'time'
p3081
(lp3082
(g3065
tp3083
ass(dp3084
g44
I00
sg45
I7
sg46
(dp3085
g3072
Nssg48
I0
sg49
Nsg50
(dp3086
sg52
(dp3087
sg54
Nsg55
(dp3088
sg57
(lp3089
g3072
asg60
(dp3090
sbsS'f'
(lp3091
S'1974'
p3092
aS'soccer'
p3093
ag165
asg64
I0
sg65
I0
sg66
g165
sg68
(lp3094
sg70
Nsg71
(lp3095
sbI1
sg1
(g12
g3
NtRp3096
(dp3097
S'e'
g15
(tRp3098
S'_2'
p3099
g18
(tRp3100
S't/trash'
p3101
(lp3102
(tassS'_1'
p3103
g18
(tRp3104
sS'_0'
p3105
g18
(tRp3106
S'ARG0'
p3107
(lp3108
(g3103
tp3109
asS'ARG2'
p3110
(lp3111
(g3099
tp3112
asS'e/empty-01'
p3113
(lp3114
(tass(dp3115
g44
I00
sg45
I4
sg46
(dp3116
g3105
Nssg48
I0
sg49
Nsg50
(dp3117
sg52
(dp3118
g3103
I0
ssg54
Nsg55
(dp3119
I0
S'_1'
p3120
ssg57
(lp3121
g3105
asg60
(dp3122
sbsS'f'
(lp3123
S'empties'
p3124
aS'the'
p3125
aS'trash'
p3126
asg64
I0
sg65
I0
sg66
g372
sg68
(lp3127
sg70
Nsg71
(lp3128
sbI1
sg1
(g12
g3
NtRp3129
(dp3130
S'e'
g15
(tRp3131
S'_2'
p3132
g18
(tRp3133
S'd/democracy'
p3134
(lp3135
(tassS'_1'
p3136
g18
(tRp3137
S'p/principle'
p3138
(lp3139
(tasS'mod'
p3140
(lp3141
(g3132
tp3142
assS'_0'
p3143
g18
(tRp3144
g1
(g214
g3
NtRp3145
(dp3146
g217
I0
sg218
S'A2-10'
p3147
sb(lp3148
(g3136
tp3149
ass(dp3150
g45
I4
sg54
Nsg50
(dp3151
sg60
(dp3152
sg44
I00
sg46
(dp3153
g3143
Nssg48
I0
sg49
Nsg57
(lp3154
g3143
asg52
(dp3155
sg55
(dp3156
sbsS'f'
(lp3157
g198
aS'at'
p3158
aS'the'
p3159
aS'expense'
p3160
aS'of'
p3161
aS'democratic'
p3162
aS'principles'
p3163
asg64
I0
sg65
I0
sg66
g234
sg68
(lp3164
sg70
Nsg71
(lp3165
sbI-1
sg1
(g12
g3
NtRp3166
(dp3167
S'e'
g15
(tRp3168
S'_3'
p3169
g18
(tRp3170
S'"Berlin"'
p3171
(lp3172
(tassS'_2'
p3173
g18
(tRp3174
S'n/name'
p3175
(lp3176
(tasS'op1'
p3177
(lp3178
(g3169
tp3179
assS'_1'
p3180
g18
(tRp3181
S'"Berlin"'
p3182
(lp3183
(tassS'_0'
p3184
g18
(tRp3185
S'wiki'
p3186
(lp3187
(g3180
tp3188
asS'c/city'
p3189
(lp3190
(tasS'name'
p3191
(lp3192
(g3173
tp3193
ass(dp3194
g44
I00
sg45
I7
sg46
(dp3195
sg48
I0
sg49
Nsg50
(dp3196
sg52
(dp3197
sg54
Nsg55
(dp3198
sg57
(lp3199
S'_0'
p3200
asg60
(dp3201
sbsS'f'
(lp3202
S'Berlin'
p3203
asg64
I0
sg65
I0
sg66
g67
sg68
(lp3204
sg70
Nsg71
(lp3205
sbI1
sg1
(g12
g3
NtRp3206
(dp3207
S'e'
g15
(tRp3208
S'_1'
p3209
g18
(tRp3210
S'interrogative'
p3211
(lp3212
(tassS'_0'
p3213
g18
(tRp3214
S'mode'
p3215
(lp3216
(g3209
tp3217
asg1
(g214
g3
NtRp3218
(dp3219
g217
I0
sg218
S'A1-1'
p3220
sb(lp3221
(tass(dp3222
g44
I00
sg45
I3
sg46
(dp3223
g3213
Nssg48
I0
sg49
Nsg50
(dp3224
sg52
(dp3225
sg54
Nsg55
(dp3226
sg57
(lp3227
g3213
asg60
(dp3228
sbsS'f'
(lp3229
S'[A1-1]'
p3230
aS'?'
asg64
I0
sg65
I0
sg66
g3230
sg68
(lp3231
sg70
Nsg71
(lp3232
sbI-2
sg1
(g12
g3
NtRp3233
(dp3234
S'e'
g15
(tRp3235
S'_5'
p3236
g18
(tRp3237
S'10'
p3238
(lp3239
(tassS'_4'
p3240
g18
(tRp3241
S'p3/percentage-entity'
p3242
(lp3243
(tasS'value'
p3244
(lp3245
(g3236
tp3246
assS'_3'
p3247
g18
(tRp3248
S's2/smoke-02'
p3249
(lp3250
(tassS'_2'
p3251
g18
(tRp3252
S'p2/person'
p3253
(lp3254
(tasS'ARG0-of'
p3255
(lp3256
(g3247
tp3257
assS'_1'
p3258
g18
(tRp3259
sS'_0'
p3260
g18
(tRp3261
S'ARG1'
p3262
(lp3263
(g3258
tp3264
asS'ARG2'
p3265
(lp3266
(g3251
tp3267
asS'ARG3'
p3268
(lp3269
(g3240
tp3270
asS'i/include-91'
p3271
(lp3272
(tass(dp3273
g45
I10
sg54
Nsg50
(dp3274
sg60
(dp3275
sg44
I00
sg46
(dp3276
g3260
Nssg48
I0
sg49
Nsg57
(lp3277
g3260
asg52
(dp3278
g3258
I0
ssg55
(dp3279
I0
S'_1'
p3280
ssbsS'f'
(lp3281
S'10'
p3282
aS'%'
aS'of'
p3283
aS'smokers'
p3284
asg64
I0
sg65
I0
sg66
g198
sg68
(lp3285
sg70
Nsg71
(lp3286
sbI-1
sg1
(g12
g3
NtRp3287
(dp3288
S'e'
g15
(tRp3289
S'_3'
p3290
g18
(tRp3291
S'c2/classics'
p3292
(lp3293
(tassS'_2'
p3294
g18
(tRp3295
S'm/music'
p3296
(lp3297
(tasS'mod'
p3298
(lp3299
(g3290
tp3300
assS'_1'
p3301
g18
(tRp3302
S'i/i'
p3303
(lp3304
(tassS'_0'
p3305
g18
(tRp3306
S'ARG0'
p3307
(lp3308
(g3301
tp3309
asS'ARG1'
p3310
(lp3311
(g3294
tp3312
asS'l/like-01'
p3313
(lp3314
(tass(dp3315
g45
I7
sg54
Nsg50
(dp3316
sg60
(dp3317
sg44
I00
sg46
(dp3318
g3305
Nssg48
I0
sg49
Nsg57
(lp3319
g3305
asg52
(dp3320
sg55
(dp3321
sbsS'f'
(lp3322
S'I'
aS'like'
p3323
aS'classical'
p3324
aS'music'
p3325
asg64
I0
sg65
I0
sg66
g1285
sg68
(lp3326
sg70
Nsg71
(lp3327
sbI-1
sg1
(g12
g3
NtRp3328
(dp3329
S'e'
g15
(tRp3330
S'_3'
p3331
g18
(tRp3332
sS'_2'
p3333
g18
(tRp3334
g1
(g214
g3
NtRp3335
(dp3336
g217
I0
sg218
S'A1-1'
p3337
sb(lp3338
(tassS'_1'
p3339
g18
(tRp3340
S'ARG1'
p3341
(lp3342
(g3333
tp3343
asS'h/have-org-role-91'
p3344
(lp3345
(tasS'ARG2'
p3346
(lp3347
(g3331
tp3348
assS'_0'
p3349
g18
(tRp3350
S'ARG0-of'
p3351
(lp3352
(g3339
tp3353
ass(dp3354
g44
I00
sg45
I5
sg46
(dp3355
g3349
Nssg48
I0
sg49
Nsg50
(dp3356
sg52
(dp3357
g3331
I0
ssg54
Nsg55
(dp3358
I0
S'_3'
p3359
ssg57
(lp3360
g3349
asg60
(dp3361
sbsS'f'
(lp3362
S'[A1-1]'
p3363
asg64
I0
sg65
I0
sg66
S'[A2-00]'
p3364
sg68
(lp3365
sg70
Nsg71
(lp3366
sbI1
sg1
(g12
g3
NtRp3367
(dp3368
S'e'
g15
(tRp3369
S'_4'
p3370
g18
(tRp3371
S'p2/president'
p3372
(lp3373
(tasg1
(g214
g3
NtRp3374
(dp3375
g217
I1
sg218
S'A2-00'
p3376
sb(lp3377
(S'_3'
tp3378
assS'_3'
p3379
g18
(tRp3380
g1
(g214
g3
NtRp3381
(dp3382
g217
I0
sg218
S'A1-1'
p3383
sb(lp3384
(tassS'_2'
p3385
g18
(tRp3386
S'2008'
p3387
(lp3388
(tassS'_1'
p3389
g18
(tRp3390
S'd/date-entity'
p3391
(lp3392
(tasS'year'
p3393
(lp3394
(g3385
tp3395
assS'_0'
p3396
g18
(tRp3397
S'ARG1'
p3398
(lp3399
(g3379
tp3400
asS'ARG2'
p3401
(lp3402
(g3370
tp3403
asS'e/elect-01'
p3404
(lp3405
(tasS'time'
p3406
(lp3407
(g3389
tp3408
ass(dp3409
g44
I00
sg45
I10
sg46
(dp3410
g3396
Nssg48
I0
sg49
Nsg50
(dp3411
sg52
(dp3412
sg54
Nsg55
(dp3413
sg57
(lp3414
g3396
asg60
(dp3415
sbsS'f'
(lp3416
g165
aS'was'
p3417
aS'elected'
p3418
aS'president'
p3419
aS'[A2-00]'
p3420
aS'in'
p3421
aS'2008'
p3422
asg64
I0
sg65
I0
sg66
g165
sg68
(lp3423
sg70
Nsg71
(lp3424
sbI1
sg1
(g12
g3
NtRp3425
(dp3426
S'e'
g15
(tRp3427
S'_4'
p3428
g18
(tRp3429
S'w/winter'
p3430
(lp3431
(tassS'_3'
p3432
g18
(tRp3433
S'c2/capital'
p3434
(lp3435
(tassS'_2'
p3436
g18
(tRp3437
sS'_1'
p3438
g18
(tRp3439
S'ARG1'
p3440
(lp3441
(g3436
tp3442
asS'h/have-org-role-91'
p3443
(lp3444
(tasS'ARG2'
p3445
(lp3446
(g3432
tp3447
asS'time'
p3448
(lp3449
(g3428
tp3450
assS'_0'
p3451
g18
(tRp3452
S'ARG0-of'
p3453
(lp3454
(g3438
tp3455
asg1
(g214
g3
NtRp3456
(dp3457
g217
I0
sg218
S'A1-1'
p3458
sb(lp3459
(tass(dp3460
g44
I00
sg45
I8
sg46
(dp3461
g3451
Nssg48
I0
sg49
Nsg50
(dp3462
sg52
(dp3463
g3436
I0
ssg54
Nsg55
(dp3464
I0
S'_2'
p3465
ssg57
(lp3466
g3451
asg60
(dp3467
sbsS'f'
(lp3468
S"'s"
p3469
aS'winter'
p3470
aS'capital'
p3471
ag165
asg64
I0
sg65
I0
sg66
g372
sg68
(lp3472
sg70
Nsg71
(lp3473
sbI1
sg1
(g12
g3
NtRp3474
(dp3475
S'e'
g15
(tRp3476
S'_2'
p3477
g18
(tRp3478
S'c/climate'
p3479
(lp3480
(tassS'_1'
p3481
g18
(tRp3482
g1
(g214
g3
NtRp3483
(dp3484
g217
I0
sg218
S'A1-1'
p3485
sb(lp3486
(tassS'_0'
p3487
g18
(tRp3488
S'ARG0'
p3489
(lp3490
(g3481
tp3491
asS'ARG1'
p3492
(lp3493
(g3477
tp3494
asS'a/affect-01'
p3495
(lp3496
(tass(dp3497
g45
I5
sg54
Nsg50
(dp3498
sg60
(dp3499
sg44
I00
sg46
(dp3500
g3487
Nssg48
I0
sg49
Nsg57
(lp3501
g3487
asg52
(dp3502
sg55
(dp3503
sbsS'f'
(lp3504
g1285
aS'have'
p3505
aS'an'
p3506
aS'effect'
p3507
aS'on'
p3508
aS'climate'
p3509
asg64
I0
sg65
I0
sg66
g1285
sg68
(lp3510
sg70
Nsg71
(lp3511
sbI-1
sg1
(g12
g3
NtRp3512
(dp3513
S'e'
g15
(tRp3514
S'_2'
p3515
g18
(tRp3516
sS'_1'
p3517
g18
(tRp3518
S'ARG2'
p3519
(lp3520
(g3515
tp3521
asS'i2/include-91'
p3522
(lp3523
(tassS'_0'
p3524
g18
(tRp3525
S'ARG1-of'
p3526
(lp3527
(g3517
tp3528
asg1
(g214
g3
NtRp3529
(dp3530
g217
I0
sg218
S'A1-1'
p3531
sb(lp3532
(tass(dp3533
g44
I00
sg45
I4
sg46
(dp3534
g3524
Nssg48
I0
sg49
Nsg50
(dp3535
sg52
(dp3536
g3515
I0
ssg54
Nsg55
(dp3537
I0
S'_2'
p3538
ssg57
(lp3539
g3524
asg60
(dp3540
sbsS'f'
(lp3541
g3230
asg64
I0
sg65
I0
sg66
S'[A2-10]'
p3542
sg68
(lp3543
sg70
Nsg71
(lp3544
sbI1
sg1
(g12
g3
NtRp3545
(dp3546
S'e'
g15
(tRp3547
S'_8'
p3548
g18
(tRp3549
S'20006'
p3550
(lp3551
(tassS'_7'
p3552
g18
(tRp3553
S'"DC"'
p3554
(lp3555
(tassS'_6'
p3556
g18
(tRp3557
S'n3/name'
p3558
(lp3559
(tasS'op1'
p3560
(lp3561
(g3552
tp3562
assS'_5'
p3563
g18
(tRp3564
S'"Washington,_D.C."'
p3565
(lp3566
(tassS'_4'
p3567
g18
(tRp3568
S'wiki'
p3569
(lp3570
(g3563
tp3571
asS'd/district'
p3572
(lp3573
(tasS'name'
p3574
(lp3575
(g3556
tp3576
assS'_3'
p3577
g18
(tRp3578
sS'_2'
p3579
g18
(tRp3580
sS'_1'
p3581
g18
(tRp3582
sS'_0'
p3583
g18
(tRp3584
g1
(g214
g3
NtRp3585
(dp3586
g217
I0
sg218
S'A6-100000'
p3587
sb(lp3588
(g3581
g3579
g3577
g3567
g3548
tp3589
ass(dp3590
g44
I00
sg45
I9
sg46
(dp3591
g3583
Nssg48
I0
sg49
Nsg50
(dp3592
sg52
(dp3593
S'_3'
p3594
I2
sS'_2'
p3595
I1
sS'_1'
p3596
I0
ssg54
Nsg55
(dp3597
I0
g3596
sI1
g3595
sI2
g3594
ssg57
(lp3598
g3583
asg60
(dp3599
sbsS'f'
(lp3600
S'DC'
p3601
aS'20006'
p3602
aS'[A6-100000]'
p3603
asg64
I0
sg65
I0
sg66
g1686
sg68
(lp3604
sg70
Nsg71
(lp3605
sbI1
sg1
(g12
g3
NtRp3606
(dp3607
S'e'
g15
(tRp3608
S'_3'
p3609
g18
(tRp3610
S'a/associate'
p3611
(lp3612
(tassS'_2'
p3613
g18
(tRp3614
S'm/mathematics'
p3615
(lp3616
(tassS'_1'
p3617
g18
(tRp3618
S'topic'
p3619
(lp3620
(g3613
tp3621
asS'p2/professor'
p3622
(lp3623
(tasS'mod'
p3624
(lp3625
(g3609
tp3626
assS'_0'
p3627
g18
(tRp3628
g1
(g214
g3
NtRp3629
(dp3630
g217
I1
sg218
S'A1-1'
p3631
sb(lp3632
(tasg1
(g214
g3
NtRp3633
(dp3634
g217
I0
sg218
S'A2-00'
p3635
sb(lp3636
(g3617
tp3637
ass(dp3638
g44
I00
sg45
I7
sg46
(dp3639
g3627
Nssg48
I0
sg49
Nsg50
(dp3640
sg52
(dp3641
sg54
Nsg55
(dp3642
sg57
(lp3643
g3627
asg60
(dp3644
sbsS'f'
(lp3645
g3420
aS'Associate'
p3646
aS'Professor'
p3647
aS'for'
p3648
aS'Mathematics'
p3649
ag165
asg64
I0
sg65
I0
sg66
g165
sg68
(lp3650
sg70
Nsg71
(lp3651
sbI1
sg1
(g12
g3
NtRp3652
(dp3653
S'e'
g15
(tRp3654
S'_3'
p3655
g18
(tRp3656
sS'_2'
p3657
g18
(tRp3658
S'h/have-org-role-91'
p3659
(lp3660
(tasS'ARG2'
p3661
(lp3662
(g3655
tp3663
assS'_1'
p3664
g18
(tRp3665
S'p2/person'
p3666
(lp3667
(tasS'ARG0-of'
p3668
(lp3669
(g3657
tp3670
assS'_0'
p3671
g18
(tRp3672
S'r/resign-01'
p3673
(lp3674
(tasS'ARG0'
p3675
(lp3676
(g3664
tp3677
asS'ARG1'
p3678
(lp3679
(S'_3'
tp3680
ass(dp3681
g44
I00
sg45
I7
sg46
(dp3682
g3671
Nssg48
I0
sg49
Nsg50
(dp3683
sg52
(dp3684
g3655
I2
sg3664
I0
ssg54
Nsg55
(dp3685
I0
S'_1'
p3686
sI2
S'_3'
p3687
ssg57
(lp3688
g3671
asg60
(dp3689
sbsS'f'
(lp3690
S'resignation'
p3691
asg64
I0
sg65
I0
sg66
S'[A4-1100]'
p3692
sg68
(lp3693
sg70
Nsg71
(lp3694
sbI1
sg1
(g12
g3
NtRp3695
(dp3696
S'e'
g15
(tRp3697
S'_1'
p3698
g18
(tRp3699
g1
(g214
g3
NtRp3700
(dp3701
g217
I0
sg218
S'A1-1'
p3702
sb(lp3703
(tassS'_0'
p3704
g18
(tRp3705
g1
(g214
g3
NtRp3706
(dp3707
g217
I1
sg218
S'A2-10'
p3708
sb(lp3709
(g3698
tp3710
ass(dp3711
g44
I00
sg45
I2
sg46
(dp3712
g3704
Nssg48
I0
sg49
Nsg50
(dp3713
sg52
(dp3714
sg54
Nsg55
(dp3715
sg57
(lp3716
g3704
asg60
(dp3717
sbsS'f'
(lp3718
S'[A1-1]'
p3719
aS'[A2-10]'
p3720
asg64
I0
sg65
I0
sg66
g3719
sg68
(lp3721
sg70
Nsg71
(lp3722
sbI1
sg1
(g12
g3
NtRp3723
(dp3724
S'e'
g15
(tRp3725
S'_2'
p3726
g18
(tRp3727
sS'_1'
p3728
g18
(tRp3729
sS'_0'
p3730
g18
(tRp3731
S'a/and'
p3732
(lp3733
(tasS'op1'
p3734
(lp3735
(g3728
tp3736
asS'op2'
p3737
(lp3738
(g3726
tp3739
ass(dp3740
g44
I00
sg45
I3
sg46
(dp3741
sg48
I0
sg49
(dp3742
(S'_0'
p3743
g3734
g3736
tp3744
I0
s(g3743
g3737
g3739
tp3745
I0
s(g3743
g3732
(ttp3746
I0
ssg50
(dp3747
sg52
(dp3748
g3726
I1
sg3728
I0
ssg54
(lp3749
g3746
ag3744
ag3745
asg55
(dp3750
I0
g3728
sI1
g3726
ssg57
(lp3751
g3743
asg60
(dp3752
sbsS'f'
(lp3753
S'and'
p3754
asg64
I0
sg65
I0
sg66
S'[A3-100]'
p3755
sg68
(lp3756
sg70
Nsg71
(lp3757
F1
aF0
aF0
asbI1
sg1
(g12
g3
NtRp3758
(dp3759
S'e'
g15
(tRp3760
S'_7'
p3761
g18
(tRp3762
sS'_6'
p3763
g18
(tRp3764
sS'_5'
p3765
g18
(tRp3766
S'"Einstein"'
p3767
(lp3768
(tassS'_4'
p3769
g18
(tRp3770
S'"Albert"'
p3771
(lp3772
(tassS'_3'
p3773
g18
(tRp3774
S'n/name'
p3775
(lp3776
(tasS'op1'
p3777
(lp3778
(g3769
tp3779
asS'op2'
p3780
(lp3781
(g3765
tp3782
assS'_2'
p3783
g18
(tRp3784
S'"Albert_Einstein"'
p3785
(lp3786
(tassS'_1'
p3787
g18
(tRp3788
S'wiki'
p3789
(lp3790
(g3783
tp3791
asS'p2/person'
p3792
(lp3793
(tasS'name'
p3794
(lp3795
(g3773
tp3796
assS'_0'
p3797
g18
(tRp3798
g1
(g214
g3
NtRp3799
(dp3800
g217
I0
sg218
S'A4-1000'
p3801
sb(lp3802
(g3787
g3763
g3761
tp3803
ass(dp3804
g44
I00
sg45
I10
sg46
(dp3805
g3797
Nssg48
I0
sg49
Nsg50
(dp3806
sg52
(dp3807
S'_7'
p3808
I1
sS'_6'
p3809
I0
ssg54
Nsg55
(dp3810
I0
g3809
sI1
g3808
ssg57
(lp3811
g3797
asg60
(dp3812
sbsS'f'
(lp3813
S'Albert'
p3814
aS'Einstein'
p3815
aS':'
ag1686
asg64
I0
sg65
I0
sg66
g1183
sg68
(lp3816
sg70
Nsg71
(lp3817
sbI1
sg1
(g12
g3
NtRp3818
(dp3819
S'e'
g15
(tRp3820
S'_3'
p3821
g18
(tRp3822
S'f/fugitive'
p3823
(lp3824
(tassS'_2'
p3825
g18
(tRp3826
g1
(g214
g3
NtRp3827
(dp3828
g217
I0
sg218
S'A1-1'
p3829
sb(lp3830
(tassS'_1'
p3831
g18
(tRp3832
S'h/hide-01'
p3833
(lp3834
(tasS'ARG0'
p3835
(lp3836
(g3821
tp3837
asS'location'
p3838
(lp3839
(g3825
tp3840
assS'_0'
p3841
g18
(tRp3842
S'b/believe-01'
p3843
(lp3844
(tasS'ARG1'
p3845
(lp3846
(g3831
tp3847
ass(dp3848
g45
I7
sg54
Nsg50
(dp3849
sg60
(dp3850
sg44
I00
sg46
(dp3851
g3841
Nssg48
I0
sg49
Nsg57
(lp3852
g3841
asg52
(dp3853
sg55
(dp3854
sbsS'f'
(lp3855
S'fugitive'
p3856
aS'is'
p3857
aS'believed'
p3858
aS'to'
p3859
aS'hide'
p3860
aS'in'
p3861
aS'[A1-1]'
p3862
asg64
I0
sg65
I0
sg66
g3862
sg68
(lp3863
sg70
Nsg71
(lp3864
sbI-1
sg1
(g12
g3
NtRp3865
(dp3866
S'e'
g15
(tRp3867
S'_2'
p3868
g18
(tRp3869
g1
(g214
g3
NtRp3870
(dp3871
g217
I0
sg218
S'A1-1'
p3872
sb(lp3873
(tassS'_1'
p3874
g18
(tRp3875
S'b/bicycle'
p3876
(lp3877
(tassS'_0'
p3878
g18
(tRp3879
S'ARG1'
p3880
(lp3881
(g3874
tp3882
asS'ARG2'
p3883
(lp3884
(g3868
tp3885
asS'c/cost-01'
p3886
(lp3887
(tass(dp3888
g45
I5
sg54
Nsg50
(dp3889
sg60
(dp3890
sg44
I00
sg46
(dp3891
g3878
Nssg48
I0
sg49
Nsg57
(lp3892
g3878
asg52
(dp3893
sg55
(dp3894
sbsS'f'
(lp3895
S'bicycle'
p3896
aS'cost'
p3897
aS'as'
p3898
ag234
asg64
I0
sg65
I0
sg66
g234
sg68
(lp3899
sg70
Nsg71
(lp3900
sbI-1
sg1
(g12
g3
NtRp3901
(dp3902
S'e'
g15
(tRp3903
S'_2'
p3904
g18
(tRp3905
S'a/audience'
p3906
(lp3907
(tassS'_1'
p3908
g18
(tRp3909
sS'_0'
p3910
g18
(tRp3911
S'ARG0'
p3912
(lp3913
(g3908
tp3914
asS's/speak-01'
p3915
(lp3916
(tasS'ARG2'
p3917
(lp3918
(g3904
tp3919
ass(dp3920
g45
I4
sg54
Nsg50
(dp3921
sg60
(dp3922
sg44
I00
sg46
(dp3923
g3910
Nssg48
I0
sg49
Nsg57
(lp3924
g3910
asg52
(dp3925
g3908
I0
ssg55
(dp3926
I0
S'_1'
p3927
ssbsS'f'
(lp3928
S'spoke'
p3929
aS'to'
p3930
aS'the'
p3931
aS'audience'
p3932
asg64
I0
sg65
I0
sg66
g198
sg68
(lp3933
sg70
Nsg71
(lp3934
sbI-1
sg1
(g12
g3
NtRp3935
(dp3936
S'e'
g15
(tRp3937
S'_1'
p3938
g18
(tRp3939
S'd/door'
p3940
(lp3941
(tassS'_0'
p3942
g18
(tRp3943
S'c/close-01'
p3944
(lp3945
(tasg1
(g214
g3
NtRp3946
(dp3947
g217
I0
sg218
S'A2-00'
p3948
sb(lp3949
(g3938
tp3950
ass(dp3951
g45
I3
sg54
Nsg50
(dp3952
sg60
(dp3953
sg44
I00
sg46
(dp3954
g3942
Nssg48
I0
sg49
Nsg57
(lp3955
g3942
asg52
(dp3956
sg55
(dp3957
sbsS'f'
(lp3958
S'[A2-00]'
p3959
aS'close'
p3960
aS'the'
p3961
aS'door'
p3962
asg64
I0
sg65
I0
sg66
g1285
sg68
(lp3963
sg70
Nsg71
(lp3964
sbI-1
sg1
(g12
g3
NtRp3965
(dp3966
S'e'
g15
(tRp3967
S'_4'
p3968
g18
(tRp3969
sS'_3'
p3970
g18
(tRp3971
sS'_2'
p3972
g18
(tRp3973
S'h/have-org-role-91'
p3974
(lp3975
(tasS'ARG2'
p3976
(lp3977
(g3970
tp3978
assS'_1'
p3979
g18
(tRp3980
S'ARG0-of'
p3981
(lp3982
(g3972
tp3983
assS'_0'
p3984
g18
(tRp3985
S'ARG0'
p3986
(lp3987
(g3979
tp3988
asS'ARG2'
p3989
(lp3990
(g3968
tp3991
asS'o/order-02'
p3992
(lp3993
(tass(dp3994
g45
I6
sg54
Nsg50
(dp3995
sg60
(dp3996
sg44
I00
sg46
(dp3997
g3984
Nssg48
I0
sg49
Nsg57
(lp3998
g3984
asg52
(dp3999
g3968
I2
sg3970
I1
sg3979
I0
ssg55
(dp4000
I0
S'_1'
p4001
sI1
S'_3'
p4002
sI2
S'_4'
p4003
ssbsS'f'
(lp4004
S'ordered'
p4005
asg64
I0
sg65
I0
sg66
S'[A4-1000]'
p4006
sg68
(lp4007
sg70
Nsg71
(lp4008
sbI-1
sg1
(g12
g3
NtRp4009
(dp4010
S'e'
g15
(tRp4011
S'_5'
p4012
g18
(tRp4013
sS'_4'
p4014
g18
(tRp4015
S'"John"'
p4016
(lp4017
(tassS'_3'
p4018
g18
(tRp4019
S'n/name'
p4020
(lp4021
(tasS'op1'
p4022
(lp4023
(g4014
tp4024
assS'_2'
p4025
g18
(tRp4026
S'-'
(lp4027
(tassS'_1'
p4028
g18
(tRp4029
S'p/person'
p4030
(lp4031
(tasS'wiki'
p4032
(lp4033
(g4025
tp4034
asS'name'
p4035
(lp4036
(g4018
tp4037
assS'_0'
p4038
g18
(tRp4039
S'ARG0'
p4040
(lp4041
(g4028
tp4042
asS's/speak-01'
p4043
(lp4044
(tasS'ARG3'
p4045
(lp4046
(g4012
tp4047
ass(dp4048
g45
I10
sg54
Nsg50
(dp4049
sg60
(dp4050
sg44
I00
sg46
(dp4051
g4038
Nssg48
I0
sg49
Nsg57
(lp4052
g4038
asg52
(dp4053
g4012
I0
ssg55
(dp4054
I0
S'_5'
p4055
ssbsS'f'
(lp4056
S'John'
p4057
aS'speaks'
p4058
asg64
I0
sg65
I0
sg66
g198
sg68
(lp4059
sg70
Nsg71
(lp4060
sbI-1
sg1
(g12
g3
NtRp4061
(dp4062
S'e'
g15
(tRp4063
S'_6'
p4064
g18
(tRp4065
S't/trash'
p4066
(lp4067
(tassS'_5'
p4068
g18
(tRp4069
S'ARG0'
p4070
(lp4071
(S'_1'
tp4072
asS'ARG2'
p4073
(lp4074
(g4064
tp4075
asS'e/empty-01'
p4076
(lp4077
(tassS'_4'
p4078
g18
(tRp4079
S'b/bathroom'
p4080
(lp4081
(tassS'_3'
p4082
g18
(tRp4083
S'ARG0'
p4084
(lp4085
(S'_1'
tp4086
asS'c/clean-01'
p4087
(lp4088
(tasS'ARG1'
p4089
(lp4090
(g4078
tp4091
assS'_2'
p4092
g18
(tRp4093
S's/school'
p4094
(lp4095
(tassS'_1'
p4096
g18
(tRp4097
S'h2/he'
p4098
(lp4099
(tassS'_0'
p4100
g18
(tRp4101
g1
(g214
g3
NtRp4102
(dp4103
g217
I0
sg218
S'A5-10000'
p4104
sb(lp4105
(g4096
g4092
g4082
g4068
tp4106
ass(dp4107
g45
I11
sg54
Nsg50
(dp4108
sg60
(dp4109
sg44
I00
sg46
(dp4110
g4100
Nssg48
I0
sg49
Nsg57
(lp4111
g4100
asg52
(dp4112
sg55
(dp4113
sbsS'f'
(lp4114
S'He'
p4115
aS'cleans'
p4116
aS'bathrooms'
p4117
aS'[A5-10000]'
p4118
aS'empties'
p4119
aS'the'
p4120
aS'trash'
p4121
aS'for'
p4122
aS'the'
p4123
aS'school'
p4124
asg64
I0
sg65
I0
sg66
g234
sg68
(lp4125
sg70
Nsg71
(lp4126
sbI-1
sg1
(g12
g3
NtRp4127
(dp4128
S'e'
g15
(tRp4129
S'_3'
p4130
g18
(tRp4131
g1
(g214
g3
NtRp4132
(dp4133
g217
I1
sg218
S'A2-10'
p4134
sb(lp4135
(S'_2'
tp4136
assS'_2'
p4137
g18
(tRp4138
sS'_1'
p4139
g18
(tRp4140
S'ARG0'
p4141
(lp4142
(g4137
tp4143
asS'ARG1'
p4144
(lp4145
(g4130
tp4146
asS'r2/return-05'
p4147
(lp4148
(tassS'_0'
p4149
g18
(tRp4150
S'ARG3-of'
p4151
(lp4152
(g4139
tp4153
asg1
(g214
g3
NtRp4154
(dp4155
g217
I0
sg218
S'A2-10'
p4156
sb(lp4157
(S'_2'
tp4158
ass(dp4159
g45
I6
sg54
Nsg50
(dp4160
sg60
(dp4161
sg44
I00
sg46
(dp4162
g4149
Nssg48
I0
sg49
Nsg57
(lp4163
g4149
asg52
(dp4164
g4137
I0
ssg55
(dp4165
I0
S'_2'
p4166
ssbsS'f'
(lp4167
g198
aS'in'
p4168
aS'return'
p4169
aS'for'
p4170
ag198
asg64
I0
sg65
I0
sg66
g198
sg68
(lp4171
sg70
Nsg71
(lp4172
sbI-1
sg1
(g12
g3
NtRp4173
(dp4174
S'e'
g15
(tRp4175
S'_2'
p4176
g18
(tRp4177
sS'_1'
p4178
g18
(tRp4179
sS'_0'
p4180
g18
(tRp4181
S'h/hide-01'
p4182
(lp4183
(tasS'ARG0'
p4184
(lp4185
(g4176
tp4186
asS'location'
p4187
(lp4188
(g4178
tp4189
ass(dp4190
g44
I00
sg45
I3
sg46
(dp4191
g4180
Nssg48
I0
sg49
Nsg50
(dp4192
sg52
(dp4193
g4176
I0
sg4178
I1
ssg54
Nsg55
(dp4194
I0
S'_2'
p4195
sI1
S'_1'
p4196
ssg57
(lp4197
g4180
asg60
(dp4198
sbsS'f'
(lp4199
S'hide'
p4200
aS'in'
p4201
asg64
I0
sg65
I0
sg66
g1183
sg68
(lp4202
sg70
Nsg71
(lp4203
sbI1
sg1
(g12
g3
NtRp4204
(dp4205
S'e'
g15
(tRp4206
S'_3'
p4207
g18
(tRp4208
S's/several'
p4209
(lp4210
(tassS'_2'
p4211
g18
(tRp4212
S'quant'
p4213
(lp4214
(g4207
tp4215
asg1
(g214
g3
NtRp4216
(dp4217
g217
I0
sg218
S'A1-1'
p4218
sb(lp4219
(tassS'_1'
p4220
g18
(tRp4221
S'p/police'
p4222
(lp4223
(tassS'_0'
p4224
g18
(tRp4225
S'ARG0'
p4226
(lp4227
(g4220
tp4228
asS'ARG1'
p4229
(lp4230
(g4211
tp4231
asS'a/arrest-01'
p4232
(lp4233
(tass(dp4234
g44
I00
sg45
I7
sg46
(dp4235
g4224
Nssg48
I0
sg49
Nsg50
(dp4236
sg52
(dp4237
sg54
Nsg55
(dp4238
sg57
(lp4239
g4224
asg60
(dp4240
sbsS'f'
(lp4241
S'police'
p4242
aS'arrested'
p4243
aS'several'
p4244
aS'anti'
p4245
aS'@-@'
p4246
ag165
asg64
I0
sg65
I0
sg66
g165
sg68
(lp4247
sg70
Nsg71
(lp4248
sbI1
sg1
(g12
g3
NtRp4249
(dp4250
S'e'
g15
(tRp4251
S'_2'
p4252
g18
(tRp4253
S'c/company'
p4254
(lp4255
(tassS'_1'
p4256
g18
(tRp4257
S'h/he'
p4258
(lp4259
(tassS'_0'
p4260
g18
(tRp4261
S'ARG0'
p4262
(lp4263
(g4256
tp4264
asS'ARG1'
p4265
(lp4266
(g4252
tp4267
asS's/sell-01'
p4268
(lp4269
(tass(dp4270
g44
I00
sg45
I5
sg46
(dp4271
g4260
Nssg48
I0
sg49
Nsg50
(dp4272
sg52
(dp4273
sg54
Nsg55
(dp4274
sg57
(lp4275
g4260
asg60
(dp4276
sbsS'f'
(lp4277
S'He'
p4278
aS'sold'
p4279
aS'the'
p4280
aS'company'
p4281
asg64
I0
sg65
I0
sg66
g165
sg68
(lp4282
sg70
Nsg71
(lp4283
sbI1
sg1
(g12
g3
NtRp4284
(dp4285
S'e'
g15
(tRp4286
S'_4'
p4287
g18
(tRp4288
sS'_3'
p4289
g18
(tRp4290
S'b/boy'
p4291
(lp4292
(tassS'_2'
p4293
g18
(tRp4294
S'ARG0'
p4295
(lp4296
(g4289
tp4297
asS'l/leave-11'
p4298
(lp4299
(tassS'_1'
p4300
g18
(tRp4301
S'o/obligate-01'
p4302
(lp4303
(tasS'ARG2'
p4304
(lp4305
(g4293
tp4306
assS'_0'
p4307
g18
(tRp4308
S'snt2'
p4309
(lp4310
(g4287
tp4311
asS'snt1'
p4312
(lp4313
(g4300
tp4314
asS'm/multi-sentence'
p4315
(lp4316
(tass(dp4317
g45
I8
sg54
Nsg50
(dp4318
sg60
(dp4319
sg44
I00
sg46
(dp4320
g4307
Nssg48
I0
sg49
Nsg57
(lp4321
g4307
asg52
(dp4322
g4287
I0
ssg55
(dp4323
I0
S'_4'
p4324
ssbsS'f'
(lp4325
S'boy'
p4326
aS'who'
p4327
aS'must'
p4328
aS'leave'
p4329
asg64
I0
sg65
I0
sg66
g198
sg68
(lp4330
sg70
Nsg71
(lp4331
sbI-1
sg1
(g12
g3
NtRp4332
(dp4333
S'e'
g15
(tRp4334
S'_3'
p4335
g18
(tRp4336
S'18'
p4337
(lp4338
(tassS'_2'
p4339
g18
(tRp4340
S'ARG1'
p4341
(lp4342
(g4335
tp4343
asS's2/score-on-scale-91'
p4344
(lp4345
(tassS'_1'
p4346
g18
(tRp4347
sS'_0'
p4348
g18
(tRp4349
S'ARG1'
p4350
(lp4351
(g4346
tp4352
asS'ARG2'
p4353
(lp4354
(g4339
tp4355
asS's/score-01'
p4356
(lp4357
(tass(dp4358
g44
I00
sg45
I6
sg46
(dp4359
g4348
Nssg48
I0
sg49
Nsg50
(dp4360
sg52
(dp4361
g4339
I1
sg4346
I0
ssg54
Nsg55
(dp4362
I0
S'_1'
p4363
sI1
S'_2'
p4364
ssg57
(lp4365
g4348
asg60
(dp4366
sbsS'f'
(lp4367
S'scored'
p4368
aS'a'
aS'18'
p4369
asg64
I0
sg65
I0
sg66
S'[A3-101]'
p4370
sg68
(lp4371
sg70
Nsg71
(lp4372
sbI1
sg1
(g12
g3
NtRp4373
(dp4374
S'e'
g15
(tRp4375
S'_4'
p4376
g18
(tRp4377
S'd/door'
p4378
(lp4379
(tassS'_3'
p4380
g18
(tRp4381
S'y/you'
p4382
(lp4383
(tassS'_2'
p4384
g18
(tRp4385
S'+'
(lp4386
(tassS'_1'
p4387
g18
(tRp4388
S'imperative'
p4389
(lp4390
(tassS'_0'
p4391
g18
(tRp4392
S'c/close-01'
p4393
(lp4394
(tasS'ARG0'
p4395
(lp4396
(g4380
tp4397
asS'ARG1'
p4398
(lp4399
(g4376
tp4400
asS'mode'
p4401
(lp4402
(g4387
tp4403
asS'polite'
p4404
(lp4405
(g4384
tp4406
ass(dp4407
g44
I00
sg45
I9
sg46
(dp4408
g4391
Nssg48
I0
sg49
Nsg50
(dp4409
sg52
(dp4410
sg54
Nsg55
(dp4411
sg57
(lp4412
g4391
asg60
(dp4413
sbsS'f'
(lp4414
S'you'
p4415
aS'kindly'
p4416
aS'close'
p4417
aS'the'
p4418
aS'door'
p4419
aS'?'
asg64
I0
sg65
I0
sg66
g165
sg68
(lp4420
sg70
Nsg71
(lp4421
sbI1
sg1
(g12
g3
NtRp4422
(dp4423
S'e'
g15
(tRp4424
S'_2'
p4425
g18
(tRp4426
S's/she'
p4427
(lp4428
(tassS'_1'
p4429
g18
(tRp4430
sS'_0'
p4431
g18
(tRp4432
S'ARG0'
p4433
(lp4434
(g4429
tp4435
asS'ARG1'
p4436
(lp4437
(g4425
tp4438
asS'r/reply-01'
p4439
(lp4440
(tass(dp4441
g44
I00
sg45
I4
sg46
(dp4442
g4431
Nssg48
I0
sg49
Nsg50
(dp4443
sg52
(dp4444
g4429
I0
ssg54
Nsg55
(dp4445
I0
S'_1'
p4446
ssg57
(lp4447
g4431
asg60
(dp4448
sbsS'f'
(lp4449
S'replied'
p4450
aS'to'
p4451
aS'her'
p4452
asg64
I0
sg65
I0
sg66
g372
sg68
(lp4453
sg70
Nsg71
(lp4454
sbI1
sg1
(g12
g3
NtRp4455
(dp4456
S'e'
g15
(tRp4457
S'_5'
p4458
g18
(tRp4459
S'"Twitter"'
p4460
(lp4461
(tassS'_4'
p4462
g18
(tRp4463
S'n/name'
p4464
(lp4465
(tasS'op1'
p4466
(lp4467
(g4458
tp4468
assS'_3'
p4469
g18
(tRp4470
S'"Twitter"'
p4471
(lp4472
(tassS'_2'
p4473
g18
(tRp4474
S'wiki'
p4475
(lp4476
(g4469
tp4477
asS'p/product'
p4478
(lp4479
(tasS'name'
p4480
(lp4481
(g4462
tp4482
assS'_1'
p4483
g18
(tRp4484
S'm/mayor'
p4485
(lp4486
(tassS'_0'
p4487
g18
(tRp4488
g1
(g214
g3
NtRp4489
(dp4490
g217
I0
sg218
S'A3-100'
p4491
sb(lp4492
(g4483
g4473
tp4493
ass(dp4494
g45
I9
sg54
Nsg50
(dp4495
sg60
(dp4496
sg44
I00
sg46
(dp4497
g4487
Nssg48
I0
sg49
Nsg57
(lp4498
g4487
asg52
(dp4499
sg55
(dp4500
sbsS'f'
(lp4501
S'mayor'
p4502
aS'[A3-100]'
p4503
aS'Twitter'
p4504
asg64
I0
sg65
I0
sg66
g1229
sg68
(lp4505
sg70
Nsg71
(lp4506
sbI-1
sg1
(g12
g3
NtRp4507
(dp4508
S'e'
g15
(tRp4509
S'_5'
p4510
g18
(tRp4511
S'0.7943'
p4512
(lp4513
(tassS'_4'
p4514
g18
(tRp4515
S'quant'
p4516
(lp4517
(g4510
tp4518
assS'_3'
p4519
g18
(tRp4520
S'ARG3'
p4521
(lp4522
(g4514
tp4523
asS'u/up-02'
p4524
(lp4525
(tassS'_2'
p4526
g18
(tRp4527
S'e/euro'
p4528
(lp4529
(tassS'_1'
p4530
g18
(tRp4531
S'0.8012'
p4532
(lp4533
(tassS'_0'
p4534
g18
(tRp4535
S'ARG4-of'
p4536
(lp4537
(g4519
tp4538
asS'quant'
p4539
(lp4540
(g4530
tp4541
asS'm/monetary-quantity'
p4542
(lp4543
(tasS'unit'
p4544
(lp4545
(g4526
tp4546
ass(dp4547
g45
I10
sg54
Nsg50
(dp4548
sg60
(dp4549
sg44
I00
sg46
(dp4550
g4534
Nssg48
I0
sg49
Nsg57
(lp4551
g4534
asg52
(dp4552
g4514
I0
ssg55
(dp4553
I0
S'_4'
p4554
ssbsS'f'
(lp4555
S'0.8012'
p4556
aS'Euros'
p4557
aS','
aS'up'
p4558
aS'from'
p4559
aS'0.7943'
p4560
asg64
I0
sg65
I0
sg66
S'[A2-10]'
p4561
sg68
(lp4562
sg70
Nsg71
(lp4563
sbI-1
sg1
(g12
g3
NtRp4564
(dp4565
S'e'
g15
(tRp4566
S'_2'
p4567
g18
(tRp4568
S'b/banana'
p4569
(lp4570
(tassS'_1'
p4571
g18
(tRp4572
S'g/girl'
p4573
(lp4574
(tassS'_0'
p4575
g18
(tRp4576
g1
(g214
g3
NtRp4577
(dp4578
g217
I0
sg218
S'A3-100'
p4579
sb(lp4580
(g4571
g4567
tp4581
ass(dp4582
g45
I3
sg54
Nsg50
(dp4583
sg60
(dp4584
sg44
I00
sg46
(dp4585
g4575
Nssg48
I0
sg49
Nsg57
(lp4586
g4575
asg52
(dp4587
sg55
(dp4588
sbsS'f'
(lp4589
S'girl'
p4590
ag4503
aS'a'
aS'banana'
p4591
asg64
I0
sg65
I0
sg66
g1229
sg68
(lp4592
sg70
Nsg71
(lp4593
sbI-1
sg1
(g12
g3
NtRp4594
(dp4595
S'e'
g15
(tRp4596
S'_5'
p4597
g18
(tRp4598
S'l/lung'
p4599
(lp4600
(tassS'_4'
p4601
g18
(tRp4602
S'c/cancer'
p4603
(lp4604
(tasS'mod'
p4605
(lp4606
(g4597
tp4607
assS'_3'
p4608
g18
(tRp4609
S'ARG0'
p4610
(lp4611
(g4601
tp4612
asS'c2/cause-01'
p4613
(lp4614
(tassS'_2'
p4615
g18
(tRp4616
S'd/die-01'
p4617
(lp4618
(tasS'ARG1-of'
p4619
(lp4620
(g4608
tp4621
assS'_1'
p4622
g18
(tRp4623
S'p/person'
p4624
(lp4625
(tasS'ARG1-of'
p4626
(lp4627
(g4615
tp4628
assS'_0'
p4629
g18
(tRp4630
g1
(g214
g3
NtRp4631
(dp4632
g217
I0
sg218
S'A2-10'
p4633
sb(lp4634
(g4622
tp4635
ass(dp4636
g45
I10
sg54
Nsg50
(dp4637
sg60
(dp4638
sg44
I00
sg46
(dp4639
g4629
Nssg48
I0
sg49
Nsg57
(lp4640
g4629
asg52
(dp4641
sg55
(dp4642
sbsS'f'
(lp4643
g198
aS'die'
p4644
aS'of'
p4645
aS'lung'
p4646
aS'cancer'
p4647
asg64
I0
sg65
I0
sg66
g234
sg68
(lp4648
sg70
Nsg71
(lp4649
sbI-1
sg1
(g12
g3
NtRp4650
(dp4651
S'e'
g15
(tRp4652
S'_7'
p4653
g18
(tRp4654
S'm/math'
p4655
(lp4656
(tassS'_6'
p4657
g18
(tRp4658
S'20'
p4659
(lp4660
(tassS'_5'
p4661
g18
(tRp4662
S'ARG3'
p4663
(lp4664
(g4657
tp4665
assS'_4'
p4666
g18
(tRp4667
S'"Jacques"'
p4668
(lp4669
(tassS'_3'
p4670
g18
(tRp4671
S'n/name'
p4672
(lp4673
(tasS'op1'
p4674
(lp4675
(g4666
tp4676
assS'_2'
p4677
g18
(tRp4678
S'-'
(lp4679
(tassS'_1'
p4680
g18
(tRp4681
S'p/person'
p4682
(lp4683
(tasS'wiki'
p4684
(lp4685
(g4677
tp4686
asS'name'
p4687
(lp4688
(g4670
tp4689
assS'_0'
p4690
g18
(tRp4691
S'ARG3'
p4692
(lp4693
(g4653
tp4694
asg1
(g214
g3
NtRp4695
(dp4696
g217
I0
sg218
S'A3-101'
p4697
sb(lp4698
(g4680
g4661
tp4699
ass(dp4700
g44
I00
sg45
I12
sg46
(dp4701
g4690
Nssg48
I0
sg49
Nsg50
(dp4702
sg52
(dp4703
sg54
Nsg55
(dp4704
sg57
(lp4705
g4690
asg60
(dp4706
sbsS'f'
(lp4707
S'Jacques'
p4708
ag4370
aS'@/@'
p4709
aS'20'
p4710
aS'in'
p4711
aS'math'
p4712
asg64
I0
sg65
I0
sg66
g165
sg68
(lp4713
sg70
Nsg71
(lp4714
sbI1
sg1
(g12
g3
NtRp4715
(dp4716
S'e'
g15
(tRp4717
S'_3'
p4718
g18
(tRp4719
S'"Fujian"'
p4720
(lp4721
(tassS'_2'
p4722
g18
(tRp4723
S'n2/name'
p4724
(lp4725
(tasS'op1'
p4726
(lp4727
(g4718
tp4728
assS'_1'
p4729
g18
(tRp4730
S'"Fujian"'
p4731
(lp4732
(tassS'_0'
p4733
g18
(tRp4734
S'wiki'
p4735
(lp4736
(g4729
tp4737
asS'name'
p4738
(lp4739
(g4722
tp4740
asS'p2/province'
p4741
(lp4742
(tass(dp4743
g44
I00
sg45
I7
sg46
(dp4744
sg48
I0
sg49
Nsg50
(dp4745
sg52
(dp4746
sg54
Nsg55
(dp4747
sg57
(lp4748
S'_0'
p4749
asg60
(dp4750
sbsS'f'
(lp4751
S'Fujian'
p4752
asg64
I0
sg65
I0
sg66
g165
sg68
(lp4753
sg70
Nsg71
(lp4754
sbI1
sg1
(g12
g3
NtRp4755
(dp4756
S'e'
g15
(tRp4757
S'_4'
p4758
g18
(tRp4759
S'"Ave"'
p4760
(lp4761
(tassS'_3'
p4762
g18
(tRp4763
S'"Pennsylvania"'
p4764
(lp4765
(tassS'_2'
p4766
g18
(tRp4767
S'n/name'
p4768
(lp4769
(tasS'op1'
p4770
(lp4771
(g4762
tp4772
asS'op2'
p4773
(lp4774
(g4758
tp4775
assS'_1'
p4776
g18
(tRp4777
S'"Pennsylvania_Avenue"'
p4778
(lp4779
(tassS'_0'
p4780
g18
(tRp4781
S'wiki'
p4782
(lp4783
(g4776
tp4784
asS'r/road'
p4785
(lp4786
(tasS'name'
p4787
(lp4788
(g4766
tp4789
ass(dp4790
g45
I9
sg54
Nsg50
(dp4791
sg60
(dp4792
sg44
I00
sg46
(dp4793
sg48
I0
sg49
Nsg57
(lp4794
S'_0'
p4795
asg52
(dp4796
sg55
(dp4797
sbsS'f'
(lp4798
S'Pennsylvania'
p4799
aS'Ave'
p4800
asg64
I0
sg65
I0
sg66
g825
sg68
(lp4801
sg70
Nsg71
(lp4802
sbI-1
sg1
(g12
g3
NtRp4803
(dp4804
S'e'
g15
(tRp4805
S'_4'
p4806
g18
(tRp4807
S'p/pound'
p4808
(lp4809
(tassS'_3'
p4810
g18
(tRp4811
S'10'
p4812
(lp4813
(tassS'_2'
p4814
g18
(tRp4815
S'quant'
p4816
(lp4817
(g4810
tp4818
asS'm/mass-quantity'
p4819
(lp4820
(tasS'unit'
p4821
(lp4822
(g4806
tp4823
assS'_1'
p4824
g18
(tRp4825
sS'_0'
p4826
g18
(tRp4827
S'ARG0'
p4828
(lp4829
(g4824
tp4830
asS'ARG1'
p4831
(lp4832
(g4814
tp4833
asS'l/lose-02'
p4834
(lp4835
(tass(dp4836
g44
I00
sg45
I8
sg46
(dp4837
g4826
Nssg48
I0
sg49
Nsg50
(dp4838
sg52
(dp4839
g4824
I0
ssg54
Nsg55
(dp4840
I0
S'_1'
p4841
ssg57
(lp4842
g4826
asg60
(dp4843
sbsS'f'
(lp4844
S'lost'
p4845
aS'10'
p4846
aS'pounds'
p4847
asg64
I0
sg65
I0
sg66
g372
sg68
(lp4848
sg70
Nsg71
(lp4849
sbI1
sg1
(g12
g3
NtRp4850
(dp4851
S'e'
g15
(tRp4852
S'_7'
p4853
g18
(tRp4854
S'm/mayor'
p4855
(lp4856
(tassS'_6'
p4857
g18
(tRp4858
g1
(g214
g3
NtRp4859
(dp4860
g217
I0
sg218
S'A3-1100'
p4861
sb(lp4862
(S'_5'
g4853
S'_7'
tp4863
assS'_5'
p4864
g18
(tRp4865
sS'_4'
p4866
g18
(tRp4867
S'"Twitter"'
p4868
(lp4869
(tassS'_3'
p4870
g18
(tRp4871
S'n/name'
p4872
(lp4873
(tasS'op1'
p4874
(lp4875
(g4866
tp4876
assS'_2'
p4877
g18
(tRp4878
S'"Twitter"'
p4879
(lp4880
(tassS'_1'
p4881
g18
(tRp4882
S'wiki'
p4883
(lp4884
(g4877
tp4885
asS'p/product'
p4886
(lp4887
(tasS'name'
p4888
(lp4889
(g4870
tp4890
assS'_0'
p4891
g18
(tRp4892
S'ARG0'
p4893
(lp4894
(g4864
tp4895
asS'ARG1'
p4896
(lp4897
(g4857
tp4898
asS'medium'
p4899
(lp4900
(g4881
tp4901
asS'a/announce-01'
p4902
(lp4903
(tass(dp4904
g44
I00
sg45
I13
sg46
(dp4905
g4891
Nssg48
I0
sg49
Nsg50
(dp4906
sg52
(dp4907
sg54
Nsg55
(dp4908
sg57
(lp4909
g4891
asg60
(dp4910
sbsS'f'
(lp4911
S'mayor'
p4912
aS'announced'
p4913
aS'his'
p4914
aS'[A3-1100]'
p4915
aS'on'
p4916
aS'Twitter'
p4917
asg64
I0
sg65
I0
sg66
g165
sg68
(lp4918
sg70
Nsg71
(lp4919
sbI1
sg1
(g12
g3
NtRp4920
(dp4921
S'e'
g15
(tRp4922
S'_5'
p4923
g18
(tRp4924
S'h2/have-concession-91'
p4925
(lp4926
(tassS'_4'
p4927
g18
(tRp4928
S'ARG1-of'
p4929
(lp4930
(g4923
tp4931
assS'_3'
p4932
g18
(tRp4933
S'911'
p4934
(lp4935
(tassS'_2'
p4936
g18
(tRp4937
S'value'
p4938
(lp4939
(g4932
tp4940
asS'p/phone-number-entity'
p4941
(lp4942
(tassS'_1'
p4943
g18
(tRp4944
S'y/you'
p4945
(lp4946
(tassS'_0'
p4947
g18
(tRp4948
S'c/call-02'
p4949
(lp4950
(tasS'ARG0'
p4951
(lp4952
(g4943
tp4953
asS'ARG1'
p4954
(lp4955
(g4936
tp4956
asg1
(g214
g3
NtRp4957
(dp4958
g217
I0
sg218
S'A2-01'
p4959
sb(lp4960
(g4927
tp4961
ass(dp4962
g45
I10
sg54
Nsg50
(dp4963
sg60
(dp4964
sg44
I00
sg46
(dp4965
g4947
Nssg48
I0
sg49
Nsg57
(lp4966
g4947
asg52
(dp4967
sg55
(dp4968
sbsS'f'
(lp4969
S'Call'
p4970
aS'911'
p4971
aS'[A2-01]'
p4972
aS'anyway'
p4973
asg64
I0
sg65
I0
sg66
g234
sg68
(lp4974
sg70
Nsg71
(lp4975
sbI-1
sg1
(g12
g3
NtRp4976
(dp4977
S'e'
g15
(tRp4978
S'_4'
p4979
g18
(tRp4980
S'd/dollar'
p4981
(lp4982
(tassS'_3'
p4983
g18
(tRp4984
S'20000'
p4985
(lp4986
(tassS'_2'
p4987
g18
(tRp4988
S'quant'
p4989
(lp4990
(g4983
tp4991
asS'm/monetary-quantity'
p4992
(lp4993
(tasS'unit'
p4994
(lp4995
(g4979
tp4996
assS'_1'
p4997
g18
(tRp4998
S'c/company'
p4999
(lp5000
(tassS'_0'
p5001
g18
(tRp5002
S'ARG0'
p5003
(lp5004
(g4997
tp5005
asS'ARG1'
p5006
(lp5007
(g4987
tp5008
asg1
(g214
g3
NtRp5009
(dp5010
g217
I0
sg218
S'A2-00'
p5011
sb(lp5012
(S'_1'
tp5013
asS'p/pay-01'
p5014
(lp5015
(tass(dp5016
g45
I10
sg54
Nsg50
(dp5017
sg60
(dp5018
sg44
I00
sg46
(dp5019
g5001
Nssg48
I0
sg49
Nsg57
(lp5020
g5001
asg52
(dp5021
sg55
(dp5022
sbsS'f'
(lp5023
S'company'
p5024
aS'paid'
p5025
aS'$'
aS'20,000'
p5026
aS'in'
p5027
aS'return'
p5028
ag874
asg64
I0
sg65
I0
sg66
g234
sg68
(lp5029
sg70
Nsg71
(lp5030
sbI-1
sg1
(g12
g3
NtRp5031
(dp5032
S'e'
g15
(tRp5033
S'_2'
p5034
g18
(tRp5035
g1
(g214
g3
NtRp5036
(dp5037
g217
I0
sg218
S'A1-1'
p5038
sb(lp5039
(tassS'_1'
p5040
g18
(tRp5041
g1
(g214
g3
NtRp5042
(dp5043
g217
I1
sg218
S'A1-1'
p5044
sb(lp5045
(tassS'_0'
p5046
g18
(tRp5047
S'ARG1'
p5048
(lp5049
(g5034
tp5050
asS'd/discover-01'
p5051
(lp5052
(tasS'time'
p5053
(lp5054
(g5040
tp5055
ass(dp5056
g45
I5
sg54
Nsg50
(dp5057
sg60
(dp5058
sg44
I00
sg46
(dp5059
g5046
Nssg48
I0
sg49
Nsg57
(lp5060
g5046
asg52
(dp5061
sg55
(dp5062
sbsS'f'
(lp5063
g234
aS'was'
p5064
aS'discovered'
p5065
ag234
asg64
I0
sg65
I0
sg66
g234
sg68
(lp5066
sg70
Nsg71
(lp5067
sbI-1
sg1
(g12
g3
NtRp5068
(dp5069
S'e'
g15
(tRp5070
S'_6'
p5071
g18
(tRp5072
S's/sister'
p5073
(lp5074
(tassS'_5'
p5075
g18
(tRp5076
S'c3/city'
p5077
(lp5078
(tasS'mod'
p5079
(lp5080
(g5071
tp5081
assS'_4'
p5082
g18
(tRp5083
S'"Berlin"'
p5084
(lp5085
(tassS'_3'
p5086
g18
(tRp5087
S'n/name'
p5088
(lp5089
(tasS'op1'
p5090
(lp5091
(g5082
tp5092
assS'_2'
p5093
g18
(tRp5094
S'"Berlin"'
p5095
(lp5096
(tassS'_1'
p5097
g18
(tRp5098
S'wiki'
p5099
(lp5100
(g5093
tp5101
asS'c/city'
p5102
(lp5103
(tasS'name'
p5104
(lp5105
(g5086
tp5106
assS'_0'
p5107
g18
(tRp5108
g1
(g214
g3
NtRp5109
(dp5110
g217
I0
sg218
S'A3-100'
p5111
sb(lp5112
(g5097
g5075
tp5113
ass(dp5114
g45
I11
sg54
Nsg50
(dp5115
sg60
(dp5116
sg44
I00
sg46
(dp5117
g5107
Nssg48
I0
sg49
Nsg57
(lp5118
g5107
asg52
(dp5119
sg55
(dp5120
sbsS'f'
(lp5121
S'Berlin'
p5122
aS'is'
p5123
aS'a'
aS'sister'
p5124
aS'city'
p5125
aS'of'
p5126
ag231
asg64
I0
sg65
I0
sg66
g234
sg68
(lp5127
sg70
Nsg71
(lp5128
sbI-1
sg1
(g12
g3
NtRp5129
(dp5130
S'e'
g15
(tRp5131
S'_7'
p5132
g18
(tRp5133
S'h2/half'
p5134
(lp5135
(tassS'_6'
p5136
g18
(tRp5137
g1
(g214
g3
NtRp5138
(dp5139
g217
I0
sg218
S'A1-1'
p5140
sb(lp5141
(tassS'_5'
p5142
g18
(tRp5143
S'ARG2'
p5144
(lp5145
(g5136
tp5146
asS'h/have-mod-91'
p5147
(lp5148
(tasS'degree'
p5149
(lp5150
(g5132
tp5151
assS'_4'
p5152
g18
(tRp5153
S'"Victoria"'
p5154
(lp5155
(tassS'_3'
p5156
g18
(tRp5157
S'n2/name'
p5158
(lp5159
(tasS'op1'
p5160
(lp5161
(g5152
tp5162
assS'_2'
p5163
g18
(tRp5164
S'-'
(lp5165
(tassS'_1'
p5166
g18
(tRp5167
S'wiki'
p5168
(lp5169
(g5163
tp5170
asS'p2/person'
p5171
(lp5172
(tasS'name'
p5173
(lp5174
(g5156
tp5175
assS'_0'
p5176
g18
(tRp5177
S'p/person'
p5178
(lp5179
(tasS'domain'
p5180
(lp5181
(g5166
tp5182
asS'ARG1-of'
p5183
(lp5184
(g5142
tp5185
ass(dp5186
g45
I15
sg54
Nsg50
(dp5187
sg60
(dp5188
sg44
I00
sg46
(dp5189
g5176
Nssg48
I0
sg49
Nsg57
(lp5190
g5176
asg52
(dp5191
sg55
(dp5192
sbsS'f'
(lp5193
S'Victoria'
p5194
aS'is'
p5195
aS'half'
p5196
aS'[A1-1]'
p5197
asg64
I0
sg65
I0
sg66
g5197
sg68
(lp5198
sg70
Nsg71
(lp5199
sbI-1
sg1
(g12
g3
NtRp5200
(dp5201
S'e'
g15
(tRp5202
S'_3'
p5203
g18
(tRp5204
S'c/candidate'
p5205
(lp5206
(tassS'_2'
p5207
g18
(tRp5208
S'1'
(lp5209
(tassS'_1'
p5210
g18
(tRp5211
S'o/ordinal-entity'
p5212
(lp5213
(tasS'value'
p5214
(lp5215
(g5207
tp5216
assS'_0'
p5217
g18
(tRp5218
S'ord'
p5219
(lp5220
(g5210
tp5221
asg1
(g214
g3
NtRp5222
(dp5223
g217
I0
sg218
S'A2-10'
p5224
sb(lp5225
(g5203
tp5226
ass(dp5227
g45
I6
sg54
Nsg50
(dp5228
sg60
(dp5229
sg44
I00
sg46
(dp5230
g5217
Nssg48
I0
sg49
Nsg57
(lp5231
g5217
asg52
(dp5232
sg55
(dp5233
sbsS'f'
(lp5234
S'candidate'
p5235
aS"'s"
p5236
aS'first'
p5237
ag198
asg64
I0
sg65
I0
sg66
g234
sg68
(lp5238
sg70
Nsg71
(lp5239
sbI-1
sg1
(g12
g3
NtRp5240
(dp5241
S'e'
g15
(tRp5242
S'_4'
p5243
g18
(tRp5244
S'5'
(lp5245
(tassS'_3'
p5246
g18
(tRp5247
S'quant'
p5248
(lp5249
(g5243
tp5250
asS'l/language'
p5251
(lp5252
(tassS'_2'
p5253
g18
(tRp5254
g1
(g214
g3
NtRp5255
(dp5256
g217
I0
sg218
S'A2-10'
p5257
sb(lp5258
(g5246
tp5259
assS'_1'
p5260
g18
(tRp5261
S'ARG1'
p5262
(lp5263
(g5253
tp5264
asS'b/believe-01'
p5265
(lp5266
(tassS'_0'
p5267
g18
(tRp5268
S'ARG1'
p5269
(lp5270
(g5260
tp5271
asS'h/hard-02'
p5272
(lp5273
(tass(dp5274
g45
I8
sg54
Nsg50
(dp5275
sg60
(dp5276
sg44
I00
sg46
(dp5277
g5267
Nssg48
I0
sg49
Nsg57
(lp5278
g5267
asg52
(dp5279
sg55
(dp5280
sbsS'f'
(lp5281
S'Hard'
p5282
aS'to'
p5283
aS'believe'
p5284
aS'that'
p5285
ag198
aS'5'
aS'languages'
p5286
asg64
I0
sg65
I0
sg66
g234
sg68
(lp5287
sg70
Nsg71
(lp5288
sbI-1
sg1
(g12
g3
NtRp5289
(dp5290
S'e'
g15
(tRp5291
S'_7'
p5292
g18
(tRp5293
sS'_6'
p5294
g18
(tRp5295
sS'_5'
p5296
g18
(tRp5297
S'322'
p5298
(lp5299
(tassS'_4'
p5300
g18
(tRp5301
g1
(g214
g3
NtRp5302
(dp5303
g217
I2
sg218
S'A1-1'
p5304
sb(lp5305
(tassS'_3'
p5306
g18
(tRp5307
g1
(g214
g3
NtRp5308
(dp5309
g217
I0
sg218
S'A1-1'
p5310
sb(lp5311
(tassS'_2'
p5312
g18
(tRp5313
S'1905'
p5314
(lp5315
(tassS'_1'
p5316
g18
(tRp5317
S'd/date-entity'
p5318
(lp5319
(tasS'year'
p5320
(lp5321
(g5312
tp5322
assS'_0'
p5323
g18
(tRp5324
g1
(g214
g3
NtRp5325
(dp5326
g217
I1
sg218
S'A6-100000'
p5327
sb(lp5328
(g5306
g5300
g5296
g5294
g5292
tp5329
asS'time'
p5330
(lp5331
(g5316
tp5332
ass(dp5333
g45
I8
sg54
Nsg50
(dp5334
sg60
(dp5335
sg44
I00
sg46
(dp5336
g5323
Nssg48
I0
sg49
Nsg57
(lp5337
g5323
asg52
(dp5338
S'_7'
p5339
I1
sS'_6'
p5340
I0
ssg55
(dp5341
I0
g5340
sI1
g5339
ssbsS'f'
(lp5342
S'[A1-1]'
p5343
aS':'
aS'[A6-100000]'
p5344
aS'('
aS'1905'
p5345
aS')'
ag5343
aS','
aS'322'
p5346
asg64
I0
sg65
I0
sg66
S'[A3-100]'
p5347
sg68
(lp5348
sg70
Nsg71
(lp5349
sbI-1
sg1
(g12
g3
NtRp5350
(dp5351
S'e'
g15
(tRp5352
S'_3'
p5353
g18
(tRp5354
S'h/high-02'
p5355
(lp5356
(tassS'_2'
p5357
g18
(tRp5358
S't/tech'
p5359
(lp5360
(tasS'ARG1-of'
p5361
(lp5362
(g5353
tp5363
assS'_1'
p5364
g18
(tRp5365
sS'_0'
p5366
g18
(tRp5367
S'c/company'
p5368
(lp5369
(tasS'example'
p5370
(lp5371
(g5364
tp5372
asS'mod'
p5373
(lp5374
(g5357
tp5375
ass(dp5376
g45
I6
sg54
Nsg50
(dp5377
sg60
(dp5378
sg44
I00
sg46
(dp5379
g5366
Nssg48
I0
sg49
Nsg57
(lp5380
g5366
asg52
(dp5381
g5364
I0
ssg55
(dp5382
I0
S'_1'
p5383
ssbsS'f'
(lp5384
S'high'
p5385
aS'tech'
p5386
aS'companies'
p5387
aS'like'
p5388
asg64
I0
sg65
I0
sg66
g198
sg68
(lp5389
sg70
Nsg71
(lp5390
sbI-1
sg1
(g12
g3
NtRp5391
(dp5392
S'e'
g15
(tRp5393
S'_3'
p5394
g18
(tRp5395
sS'_2'
p5396
g18
(tRp5397
S'ARG0'
p5398
(lp5399
(S'_1'
tp5400
asS'ARG1'
p5401
(lp5402
(g5394
tp5403
asS'e/eat-01'
p5404
(lp5405
(tassS'_1'
p5406
g18
(tRp5407
sS'_0'
p5408
g18
(tRp5409
S'ARG0'
p5410
(lp5411
(g5406
tp5412
asS'w/want-01'
p5413
(lp5414
(tasS'ARG1'
p5415
(lp5416
(g5396
tp5417
ass(dp5418
g44
I00
sg45
I6
sg46
(dp5419
g5408
Nssg48
I0
sg49
Nsg50
(dp5420
sg52
(dp5421
g5394
I1
sg5406
I0
ssg54
Nsg55
(dp5422
I0
S'_1'
p5423
sI1
S'_3'
p5424
ssg57
(lp5425
g5408
asg60
(dp5426
sbsS'f'
(lp5427
S'wants'
p5428
aS'to'
p5429
aS'eat'
p5430
asg64
I0
sg65
I0
sg66
S'[A3-100]'
p5431
sg68
(lp5432
sg70
Nsg71
(lp5433
sbI-1
sg1
(g12
g3
NtRp5434
(dp5435
S'e'
g15
(tRp5436
S'_4'
p5437
g18
(tRp5438
S'0.7943'
p5439
(lp5440
(tassS'_3'
p5441
g18
(tRp5442
S'quant'
p5443
(lp5444
(g5437
tp5445
assS'_2'
p5446
g18
(tRp5447
S'ARG3'
p5448
(lp5449
(g5441
tp5450
assS'_1'
p5451
g18
(tRp5452
S'0.8012'
p5453
(lp5454
(tassS'_0'
p5455
g18
(tRp5456
g1
(g214
g3
NtRp5457
(dp5458
g217
I0
sg218
S'A2-11'
p5459
sb(lp5460
(g5446
tp5461
asS'quant'
p5462
(lp5463
(g5451
tp5464
ass(dp5465
g44
I00
sg45
I6
sg46
(dp5466
g5455
Nssg48
I0
sg49
Nsg50
(dp5467
sg52
(dp5468
g5441
I0
ssg54
Nsg55
(dp5469
I0
S'_3'
p5470
ssg57
(lp5471
g5455
asg60
(dp5472
sbsS'f'
(lp5473
S'0.8012'
p5474
aS'[A2-11]'
p5475
aS'from'
p5476
aS'0.7943'
p5477
asg64
I0
sg65
I0
sg66
g372
sg68
(lp5478
sg70
Nsg71
(lp5479
sbI1
sg1
(g12
g3
NtRp5480
(dp5481
S'e'
g15
(tRp5482
S'_4'
p5483
g18
(tRp5484
sS'_3'
p5485
g18
(tRp5486
S'ARG0'
p5487
(lp5488
(g5483
tp5489
asS'c/cause-01'
p5490
(lp5491
(tassS'_2'
p5492
g18
(tRp5493
S'o/old'
p5494
(lp5495
(tassS'_1'
p5496
g18
(tRp5497
S'm/man'
p5498
(lp5499
(tasS'mod'
p5500
(lp5501
(g5492
tp5502
assS'_0'
p5503
g18
(tRp5504
S'd/die-01'
p5505
(lp5506
(tasS'ARG1-of'
p5507
(lp5508
(g5485
tp5509
asS'ARG1'
p5510
(lp5511
(g5496
tp5512
ass(dp5513
g44
I00
sg45
I8
sg46
(dp5514
g5503
Nssg48
I0
sg49
Nsg50
(dp5515
sg52
(dp5516
g5483
I0
ssg54
Nsg55
(dp5517
I0
S'_4'
p5518
ssg57
(lp5519
g5503
asg60
(dp5520
sbsS'f'
(lp5521
S'old'
p5522
aS'man'
p5523
aS'died'
p5524
asg64
I0
sg65
I0
sg66
g372
sg68
(lp5525
sg70
Nsg71
(lp5526
sbI1
sg1
(g12
g3
NtRp5527
(dp5528
S'e'
g15
(tRp5529
S'_6'
p5530
g18
(tRp5531
S'1945'
p5532
(lp5533
(tassS'_5'
p5534
g18
(tRp5535
S'd/date-entity'
p5536
(lp5537
(tasS'year'
p5538
(lp5539
(g5530
tp5540
assS'_4'
p5541
g18
(tRp5542
S'b/bomb-01'
p5543
(lp5544
(tasS'time'
p5545
(lp5546
(g5534
tp5547
assS'_3'
p5548
g18
(tRp5549
g1
(g214
g3
NtRp5550
(dp5551
g217
I0
sg218
S'A1-1'
p5552
sb(lp5553
(tassS'_2'
p5554
g18
(tRp5555
S'ARG1-of'
p5556
(lp5557
(g5541
tp5558
asS'location'
p5559
(lp5560
(g5548
tp5561
asS't/town'
p5562
(lp5563
(tassS'_1'
p5564
g18
(tRp5565
S'd2/destroy-01'
p5566
(lp5567
(tassS'_0'
p5568
g18
(tRp5569
g1
(g214
g3
NtRp5570
(dp5571
g217
I1
sg218
S'A3-100'
p5572
sb(lp5573
(g5564
g5554
tp5574
ass(dp5575
g45
I11
sg54
Nsg50
(dp5576
sg60
(dp5577
sg44
I00
sg46
(dp5578
g5568
Nssg48
I0
sg49
Nsg57
(lp5579
g5568
asg52
(dp5580
sg55
(dp5581
sbsS'f'
(lp5582
g234
aS'town'
p5583
aS'bombed'
p5584
aS'in'
p5585
aS'1945'
p5586
aS'was'
p5587
ag231
aS'destruction'
p5588
asg64
I0
sg65
I0
sg66
g234
sg68
(lp5589
sg70
Nsg71
(lp5590
sbI-1
sg1
(g12
g3
NtRp5591
(dp5592
S'e'
g15
(tRp5593
S'_1'
p5594
g18
(tRp5595
g1
(g214
g3
NtRp5596
(dp5597
g217
I0
sg218
S'A1-1'
p5598
sb(lp5599
(tassS'_0'
p5600
g18
(tRp5601
S'r/resign-01'
p5602
(lp5603
(tasS'ARG0'
p5604
(lp5605
(g5594
tp5606
ass(dp5607
g45
I3
sg54
Nsg50
(dp5608
sg60
(dp5609
sg44
I00
sg46
(dp5610
g5600
Nssg48
I0
sg49
Nsg57
(lp5611
g5600
asg52
(dp5612
sg55
(dp5613
sbsS'f'
(lp5614
g234
aS"'s"
p5615
aS'resignation'
p5616
asg64
I0
sg65
I0
sg66
g234
sg68
(lp5617
sg70
Nsg71
(lp5618
sbI-1
sg1
(g12
g3
NtRp5619
(dp5620
S'e'
g15
(tRp5621
S'_9'
p5622
g18
(tRp5623
S'm2/more'
p5624
(lp5625
(tassS'_8'
p5626
g18
(tRp5627
S'o/officer'
p5628
(lp5629
(tassS'_7'
p5630
g18
(tRp5631
S'p2/police'
p5632
(lp5633
(tassS'_6'
p5634
g18
(tRp5635
S'ARG1'
p5636
(lp5637
(g5630
tp5638
asS'h3/have-org-role-91'
p5639
(lp5640
(tasS'ARG2'
p5641
(lp5642
(g5626
tp5643
assS'_5'
p5644
g18
(tRp5645
S'mod'
p5646
(lp5647
(g5622
tp5648
asS'p4/person'
p5649
(lp5650
(tasS'ARG0-of'
p5651
(lp5652
(g5634
tp5653
assS'_4'
p5654
g18
(tRp5655
S'h/hire-01'
p5656
(lp5657
(tasS'ARG2'
p5658
(lp5659
(g5644
tp5660
assS'_3'
p5661
g18
(tRp5662
S'm/mayor'
p5663
(lp5664
(tassS'_2'
p5665
g18
(tRp5666
S'h2/have-org-role-91'
p5667
(lp5668
(tasS'ARG2'
p5669
(lp5670
(g5661
tp5671
assS'_1'
p5672
g18
(tRp5673
S'p3/person'
p5674
(lp5675
(tasS'ARG0-of'
p5676
(lp5677
(g5665
tp5678
assS'_0'
p5679
g18
(tRp5680
g1
(g214
g3
NtRp5681
(dp5682
g217
I0
sg218
S'A3-100'
p5683
sb(lp5684
(g5672
g5654
tp5685
ass(dp5686
g45
I17
sg54
Nsg50
(dp5687
sg60
(dp5688
sg44
I00
sg46
(dp5689
g5679
Nssg48
I0
sg49
Nsg57
(lp5690
g5679
asg52
(dp5691
sg55
(dp5692
sbsS'f'
(lp5693
S'mayor'
p5694
aS'[A3-100]'
p5695
aS'hiring'
p5696
aS'more'
p5697
aS'police'
p5698
aS'officers'
p5699
asg64
I0
sg65
I0
sg66
g1285
sg68
(lp5700
sg70
Nsg71
(lp5701
sbI-1
sg1
(g12
g3
NtRp5702
(dp5703
S'e'
g15
(tRp5704
S'_3'
p5705
g18
(tRp5706
sS'_2'
p5707
g18
(tRp5708
S'e/export-01'
p5709
(lp5710
(tassS'_1'
p5711
g18
(tRp5712
S'ARG1-of'
p5713
(lp5714
(g5707
tp5715
asS't2/thing'
p5716
(lp5717
(tassS'_0'
p5718
g18
(tRp5719
S'ARG1'
p5720
(lp5721
(g5711
tp5722
asS'ARG2'
p5723
(lp5724
(g5705
tp5725
asS'f/fall-01'
p5726
(lp5727
(tass(dp5728
g45
I6
sg54
Nsg50
(dp5729
sg60
(dp5730
sg44
I00
sg46
(dp5731
g5718
Nssg48
I0
sg49
Nsg57
(lp5732
g5718
asg52
(dp5733
g5705
I0
ssg55
(dp5734
I0
S'_3'
p5735
ssbsS'f'
(lp5736
S'exports'
p5737
aS'fell'
p5738
asg64
I0
sg65
I0
sg66
g198
sg68
(lp5739
sg70
Nsg71
(lp5740
sbI-1
sg1
(g12
g3
NtRp5741
(dp5742
S'e'
g15
(tRp5743
S'_5'
p5744
g18
(tRp5745
S'a/associate'
p5746
(lp5747
(tassS'_4'
p5748
g18
(tRp5749
S'm/mathematics'
p5750
(lp5751
(tassS'_3'
p5752
g18
(tRp5753
S'topic'
p5754
(lp5755
(g5748
tp5756
asS'p2/professor'
p5757
(lp5758
(tasS'mod'
p5759
(lp5760
(g5744
tp5761
assS'_2'
p5762
g18
(tRp5763
g1
(g214
g3
NtRp5764
(dp5765
g217
I0
sg218
S'A1-1'
p5766
sb(lp5767
(tassS'_1'
p5768
g18
(tRp5769
S'ARG1'
p5770
(lp5771
(g5762
tp5772
asS'h/have-org-role-91'
p5773
(lp5774
(tasS'ARG2'
p5775
(lp5776
(g5752
tp5777
assS'_0'
p5778
g18
(tRp5779
g1
(g214
g3
NtRp5780
(dp5781
g217
I1
sg218
S'A1-1'
p5782
sb(lp5783
(tasS'ARG0-of'
p5784
(lp5785
(g5768
tp5786
ass(dp5787
g45
I11
sg54
Nsg50
(dp5788
sg60
(dp5789
sg44
I00
sg46
(dp5790
g5778
Nssg48
I0
sg49
Nsg57
(lp5791
g5778
asg52
(dp5792
sg55
(dp5793
sbsS'f'
(lp5794
g234
aS'Associate'
p5795
aS'Professor'
p5796
aS'for'
p5797
aS'Mathematics'
p5798
ag234
asg64
I0
sg65
I0
sg66
g234
sg68
(lp5799
sg70
Nsg71
(lp5800
sbI-1
sg1
(g12
g3
NtRp5801
(dp5802
S'e'
g15
(tRp5803
S'_4'
p5804
g18
(tRp5805
S's/sister'
p5806
(lp5807
(tassS'_3'
p5808
g18
(tRp5809
S'c3/city'
p5810
(lp5811
(tasS'mod'
p5812
(lp5813
(g5804
tp5814
assS'_2'
p5815
g18
(tRp5816
g1
(g214
g3
NtRp5817
(dp5818
g217
I1
sg218
S'A1-1'
p5819
sb(lp5820
(tassS'_1'
p5821
g18
(tRp5822
g1
(g214
g3
NtRp5823
(dp5824
g217
I0
sg218
S'A1-1'
p5825
sb(lp5826
(tassS'_0'
p5827
g18
(tRp5828
S'ARG0'
p5829
(lp5830
(g5821
tp5831
asS'ARG1'
p5832
(lp5833
(g5815
tp5834
asS'ARG2'
p5835
(lp5836
(g5808
tp5837
asS'h/have-rel-role-91'
p5838
(lp5839
(tass(dp5840
g44
I00
sg45
I9
sg46
(dp5841
g5827
Nssg48
I0
sg49
Nsg50
(dp5842
sg52
(dp5843
sg54
Nsg55
(dp5844
sg57
(lp5845
g5827
asg60
(dp5846
sbsS'f'
(lp5847
g165
aS'is'
p5848
aS'a'
aS'sister'
p5849
aS'city'
p5850
aS'of'
p5851
ag165
asg64
I0
sg65
I0
sg66
g165
sg68
(lp5852
sg70
Nsg71
(lp5853
sbI1
sg1
(g12
g3
NtRp5854
(dp5855
S'e'
g15
(tRp5856
S'_2'
p5857
g18
(tRp5858
sS'_1'
p5859
g18
(tRp5860
sS'_0'
p5861
g18
(tRp5862
S'ARG0'
p5863
(lp5864
(g5857
tp5865
asS'location'
p5866
(lp5867
(g5859
tp5868
asS'l/live-01'
p5869
(lp5870
(tass(dp5871
g45
I3
sg54
Nsg50
(dp5872
sg60
(dp5873
sg44
I00
sg46
(dp5874
g5861
Nssg48
I0
sg49
Nsg57
(lp5875
g5861
asg52
(dp5876
g5857
I0
sg5859
I1
ssg55
(dp5877
I0
S'_2'
p5878
sI1
S'_1'
p5879
ssbsS'f'
(lp5880
S'lives'
p5881
aS'in'
p5882
asg64
I0
sg65
I0
sg66
g231
sg68
(lp5883
sg70
Nsg71
(lp5884
sbI-1
sg1
(g12
g3
NtRp5885
(dp5886
S'e'
g15
(tRp5887
S'_2'
p5888
g18
(tRp5889
S'u/up-02'
p5890
(lp5891
(tassS'_1'
p5892
g18
(tRp5893
S'e/euro'
p5894
(lp5895
(tassS'_0'
p5896
g18
(tRp5897
S'ARG4-of'
p5898
(lp5899
(g5888
tp5900
asS'm/monetary-quantity'
p5901
(lp5902
(tasS'unit'
p5903
(lp5904
(g5892
tp5905
ass(dp5906
g44
I00
sg45
I5
sg46
(dp5907
g5896
Nssg48
I0
sg49
Nsg50
(dp5908
sg52
(dp5909
g5888
I0
ssg54
Nsg55
(dp5910
I0
S'_2'
p5911
ssg57
(lp5912
g5896
asg60
(dp5913
sbsS'f'
(lp5914
S'Euros'
p5915
aS','
aS'up'
p5916
asg64
I0
sg65
I0
sg66
g5475
sg68
(lp5917
sg70
Nsg71
(lp5918
sbI1
sg1
(g12
g3
NtRp5919
(dp5920
S'e'
g15
(tRp5921
S'_3'
p5922
g18
(tRp5923
sS'_2'
p5924
g18
(tRp5925
S's/speed'
p5926
(lp5927
(tasS'poss'
p5928
(lp5929
(g5922
tp5930
assS'_1'
p5931
g18
(tRp5932
S'3'
(lp5933
(tassS'_0'
p5934
g18
(tRp5935
S'op2'
p5936
(lp5937
(g5924
tp5938
asS'op1'
p5939
(lp5940
(g5931
tp5941
asS'p/product-of'
p5942
(lp5943
(tass(dp5944
g44
I00
sg45
I6
sg46
(dp5945
g5934
Nssg48
I0
sg49
Nsg50
(dp5946
sg52
(dp5947
g5922
I0
ssg54
Nsg55
(dp5948
I0
S'_3'
p5949
ssg57
(lp5950
g5934
asg60
(dp5951
sbsS'f'
(lp5952
S'three'
p5953
aS'times'
p5954
aS'the'
p5955
aS'speed'
p5956
aS'of'
p5957
asg64
I0
sg65
I0
sg66
g372
sg68
(lp5958
sg70
Nsg71
(lp5959
sbI1
sg1
(g12
g3
NtRp5960
(dp5961
S'e'
g15
(tRp5962
S'_4'
p5963
g18
(tRp5964
S'l/lightning'
p5965
(lp5966
(tassS'_3'
p5967
g18
(tRp5968
S'e/equal'
p5969
(lp5970
(tassS'_2'
p5971
g18
(tRp5972
S'compared-to'
p5973
(lp5974
(g5963
tp5975
asS'f/fast'
p5976
(lp5977
(tasS'degree'
p5978
(lp5979
(g5967
tp5980
assS'_1'
p5981
g18
(tRp5982
S'h/he'
p5983
(lp5984
(tassS'_0'
p5985
g18
(tRp5986
S'ARG0'
p5987
(lp5988
(g5981
tp5989
asS'r/run-02'
p5990
(lp5991
(tasS'manner'
p5992
(lp5993
(g5971
tp5994
ass(dp5995
g45
I9
sg54
Nsg50
(dp5996
sg60
(dp5997
sg44
I00
sg46
(dp5998
g5985
Nssg48
I0
sg49
Nsg57
(lp5999
g5985
asg52
(dp6000
sg55
(dp6001
sbsS'f'
(lp6002
S'He'
p6003
aS'runs'
p6004
aS'as'
p6005
aS'fast'
p6006
aS'as'
p6007
aS'lightning'
p6008
asg64
I0
sg65
I0
sg66
S'[A1-1]'
p6009
sg68
(lp6010
sg70
Nsg71
(lp6011
sbI-1
sg1
(g12
g3
NtRp6012
(dp6013
S'e'
g15
(tRp6014
S'_2'
p6015
g18
(tRp6016
S'n/next'
p6017
(lp6018
(tassS'_1'
p6019
g18
(tRp6020
S't/tuesday'
p6021
(lp6022
(tassS'_0'
p6023
g18
(tRp6024
S'd/date-entity'
p6025
(lp6026
(tasS'weekday'
p6027
(lp6028
(g6019
tp6029
asS'mod'
p6030
(lp6031
(g6015
tp6032
ass(dp6033
g44
I00
sg45
I5
sg46
(dp6034
g6023
Nssg48
I0
sg49
Nsg50
(dp6035
sg52
(dp6036
sg54
Nsg55
(dp6037
sg57
(lp6038
g6023
asg60
(dp6039
sbsS'f'
(lp6040
S'next'
p6041
aS'Tuesday'
p6042
asg64
I0
sg65
I0
sg66
S'[A1-1]'
p6043
sg68
(lp6044
sg70
Nsg71
(lp6045
sbI1
sg1
(g12
g3
NtRp6046
(dp6047
S'e'
g15
(tRp6048
S'_5'
p6049
g18
(tRp6050
S'"Assad"'
p6051
(lp6052
(tassS'_4'
p6053
g18
(tRp6054
S'n/name'
p6055
(lp6056
(tasS'op1'
p6057
(lp6058
(g6049
tp6059
assS'_3'
p6060
g18
(tRp6061
S'"Bashar_al-Assad"'
p6062
(lp6063
(tassS'_2'
p6064
g18
(tRp6065
S'wiki'
p6066
(lp6067
(g6060
tp6068
asS'p4/person'
p6069
(lp6070
(tasS'name'
p6071
(lp6072
(g6053
tp6073
assS'_1'
p6074
g18
(tRp6075
S'p3/protest-01'
p6076
(lp6077
(tasS'ARG1'
p6078
(lp6079
(g6064
tp6080
assS'_0'
p6081
g18
(tRp6082
S'p2/person'
p6083
(lp6084
(tasS'ARG0-of'
p6085
(lp6086
(g6074
tp6087
ass(dp6088
g44
I00
sg45
I11
sg46
(dp6089
g6081
Nssg48
I0
sg49
Nsg50
(dp6090
sg52
(dp6091
sg54
Nsg55
(dp6092
sg57
(lp6093
g6081
asg60
(dp6094
sbsS'f'
(lp6095
S'Assad'
p6096
aS'protesters'
p6097
asg64
I0
sg65
I0
sg66
g165
sg68
(lp6098
sg70
Nsg71
(lp6099
sbI1
sg1
(g12
g3
NtRp6100
(dp6101
S'e'
g15
(tRp6102
S'_2'
p6103
g18
(tRp6104
g1
(g214
g3
NtRp6105
(dp6106
g217
I0
sg218
S'A1-1'
p6107
sb(lp6108
(tassS'_1'
p6109
g18
(tRp6110
S'-'
(lp6111
(tassS'_0'
p6112
g18
(tRp6113
S'polarity'
p6114
(lp6115
(g6109
tp6116
asS'ARG1'
p6117
(lp6118
(g6103
tp6119
asS'p/possible-01'
p6120
(lp6121
(tass(dp6122
g44
I00
sg45
I5
sg46
(dp6123
g6112
Nssg48
I0
sg49
Nsg50
(dp6124
sg52
(dp6125
sg54
Nsg55
(dp6126
sg57
(lp6127
g6112
asg60
(dp6128
sbsS'f'
(lp6129
S'no'
p6130
aS'possibility'
p6131
aS'that'
p6132
aS'the'
p6133
ag165
asg64
I0
sg65
I0
sg66
g165
sg68
(lp6134
sg70
Nsg71
(lp6135
sbI1
sg1
(g12
g3
NtRp6136
(dp6137
S'e'
g15
(tRp6138
S'_6'
p6139
g18
(tRp6140
g1
(g214
g3
NtRp6141
(dp6142
g217
I0
sg218
S'A1-1'
p6143
sb(lp6144
(tassS'_5'
p6145
g18
(tRp6146
S'i/immigrate-01'
p6147
(lp6148
(tassS'_4'
p6149
g18
(tRp6150
S'ARG1'
p6151
(lp6152
(g6145
tp6153
asS'r/reform-01'
p6154
(lp6155
(tassS'_3'
p6156
g18
(tRp6157
S'c/candidate'
p6158
(lp6159
(tassS'_2'
p6160
g18
(tRp6161
S'1'
(lp6162
(tassS'_1'
p6163
g18
(tRp6164
S'o/ordinal-entity'
p6165
(lp6166
(tasS'value'
p6167
(lp6168
(g6160
tp6169
assS'_0'
p6170
g18
(tRp6171
S'ARG0'
p6172
(lp6173
(g6156
tp6174
asS'ARG1'
p6175
(lp6176
(g6149
tp6177
asS'ord'
p6178
(lp6179
(g6163
tp6180
asS'ARG3'
p6181
(lp6182
(g6139
tp6183
asS's/speak-01'
p6184
(lp6185
(tass(dp6186
g44
I00
sg45
I13
sg46
(dp6187
g6170
Nssg48
I0
sg49
Nsg50
(dp6188
sg52
(dp6189
sg54
Nsg55
(dp6190
sg57
(lp6191
g6170
asg60
(dp6192
sbsS'f'
(lp6193
S'candidate'
p6194
aS"'s"
p6195
aS'first'
p6196
aS'immigration'
p6197
aS'reform'
p6198
aS'speech'
p6199
aS'in'
p6200
ag165
asg64
I0
sg65
I0
sg66
g165
sg68
(lp6201
sg70
Nsg71
(lp6202
sbI1
sg1
(g12
g3
NtRp6203
(dp6204
S'e'
g15
(tRp6205
S'_4'
p6206
g18
(tRp6207
S'80'
p6208
(lp6209
(tassS'_3'
p6210
g18
(tRp6211
S'quant'
p6212
(lp6213
(g6206
tp6214
assS'_2'
p6215
g18
(tRp6216
g1
(g214
g3
NtRp6217
(dp6218
g217
I1
sg218
S'A1-1'
p6219
sb(lp6220
(tassS'_1'
p6221
g18
(tRp6222
g1
(g214
g3
NtRp6223
(dp6224
g217
I0
sg218
S'A3-101'
p6225
sb(lp6226
(g6215
g6210
tp6227
assS'_0'
p6228
g18
(tRp6229
S'location'
p6230
(lp6231
(g6221
tp6232
asS'e/explode-01'
p6233
(lp6234
(tass(dp6235
g45
I6
sg54
Nsg50
(dp6236
sg60
(dp6237
sg44
I00
sg46
(dp6238
g6228
Nssg48
I0
sg49
Nsg57
(lp6239
g6228
asg52
(dp6240
sg55
(dp6241
sbsS'f'
(lp6242
S'explosion'
p6243
aS'occured'
p6244
aS'80'
p6245
aS'[A3-101]'
p6246
aS'of'
p6247
ag234
asg64
I0
sg65
I0
sg66
g234
sg68
(lp6248
sg70
Nsg71
(lp6249
sbI-1
sg1
(g12
g3
NtRp6250
(dp6251
S'e'
g15
(tRp6252
S'_2'
p6253
g18
(tRp6254
S'l/last'
p6255
(lp6256
(tassS'_1'
p6257
g18
(tRp6258
S'w/week'
p6259
(lp6260
(tasS'mod'
p6261
(lp6262
(g6253
tp6263
assS'_0'
p6264
g18
(tRp6265
S'time'
p6266
(lp6267
(g6257
tp6268
asg1
(g214
g3
NtRp6269
(dp6270
g217
I0
sg218
S'A1-1'
p6271
sb(lp6272
(tass(dp6273
g44
I00
sg45
I5
sg46
(dp6274
g6264
Nssg48
I0
sg49
Nsg50
(dp6275
sg52
(dp6276
sg54
Nsg55
(dp6277
sg57
(lp6278
g6264
asg60
(dp6279
sbsS'f'
(lp6280
S'[A1-1]'
p6281
aS'last'
p6282
aS'week'
p6283
asg64
I0
sg65
I0
sg66
g6281
sg68
(lp6284
sg70
Nsg71
(lp6285
sbI1
sg1
(g12
g3
NtRp6286
(dp6287
S'e'
g15
(tRp6288
S'_2'
p6289
g18
(tRp6290
g1
(g214
g3
NtRp6291
(dp6292
g217
I2
sg218
S'A1-1'
p6293
sb(lp6294
(tassS'_1'
p6295
g18
(tRp6296
g1
(g214
g3
NtRp6297
(dp6298
g217
I0
sg218
S'A1-1'
p6299
sb(lp6300
(tassS'_0'
p6301
g18
(tRp6302
g1
(g214
g3
NtRp6303
(dp6304
g217
I1
sg218
S'A3-100'
p6305
sb(lp6306
(g6295
g6289
tp6307
ass(dp6308
g44
I00
sg45
I3
sg46
(dp6309
g6301
Nssg48
I0
sg49
(dp6310
(g6301
g6303
g6307
tp6311
I0
s(g6295
g6297
(ttp6312
I1
s(g6289
g6291
(ttp6313
I1
ssg50
(dp6314
sg52
(dp6315
sg54
(lp6316
g6311
ag6312
ag6313
asg55
(dp6317
sg57
(lp6318
g6301
asg60
(dp6319
sbsS'f'
(lp6320
S'[A1-1]'
p6321
aS'[A3-100]'
p6322
ag6321
asg64
I0
sg65
I0
sg66
g6321
sg68
(lp6323
sg70
Nsg71
(lp6324
F1
aF1
aF1
asbI-1
sg1
(g12
g3
NtRp6325
(dp6326
S'e'
g15
(tRp6327
S'_9'
p6328
g18
(tRp6329
S'10'
p6330
(lp6331
(tassS'_8'
p6332
g18
(tRp6333
S'p3/percentage-entity'
p6334
(lp6335
(tasS'value'
p6336
(lp6337
(g6328
tp6338
assS'_7'
p6339
g18
(tRp6340
S's2/smoke-02'
p6341
(lp6342
(tassS'_6'
p6343
g18
(tRp6344
S'p2/person'
p6345
(lp6346
(tasS'ARG0-of'
p6347
(lp6348
(g6339
tp6349
assS'_5'
p6350
g18
(tRp6351
S'l/lung'
p6352
(lp6353
(tassS'_4'
p6354
g18
(tRp6355
S'c/cancer'
p6356
(lp6357
(tasS'mod'
p6358
(lp6359
(g6350
tp6360
assS'_3'
p6361
g18
(tRp6362
S'ARG0'
p6363
(lp6364
(g6354
tp6365
asS'c2/cause-01'
p6366
(lp6367
(tassS'_2'
p6368
g18
(tRp6369
S'd/die-01'
p6370
(lp6371
(tasS'ARG1-of'
p6372
(lp6373
(g6361
tp6374
assS'_1'
p6375
g18
(tRp6376
S'p/person'
p6377
(lp6378
(tasS'ARG1-of'
p6379
(lp6380
(g6368
tp6381
assS'_0'
p6382
g18
(tRp6383
S'ARG1'
p6384
(lp6385
(g6375
tp6386
asS'ARG2'
p6387
(lp6388
(g6343
tp6389
asS'ARG3'
p6390
(lp6391
(g6332
tp6392
asS'i/include-91'
p6393
(lp6394
(tass(dp6395
g44
I00
sg45
I19
sg46
(dp6396
g6382
Nssg48
I0
sg49
Nsg50
(dp6397
sg52
(dp6398
sg54
Nsg55
(dp6399
sg57
(lp6400
g6382
asg60
(dp6401
sbsS'f'
(lp6402
S'10'
p6403
aS'%'
aS'of'
p6404
aS'smokers'
p6405
aS'die'
p6406
aS'of'
p6407
aS'lung'
p6408
aS'cancer'
p6409
asg64
I0
sg65
I0
sg66
g165
sg68
(lp6410
sg70
Nsg71
(lp6411
sbI1
sg1
(g12
g3
NtRp6412
(dp6413
S'e'
g15
(tRp6414
S'_3'
p6415
g18
(tRp6416
S'"Japan"'
p6417
(lp6418
(tassS'_2'
p6419
g18
(tRp6420
S'n/name'
p6421
(lp6422
(tasS'op1'
p6423
(lp6424
(g6415
tp6425
assS'_1'
p6426
g18
(tRp6427
S'"Japan"'
p6428
(lp6429
(tassS'_0'
p6430
g18
(tRp6431
S'wiki'
p6432
(lp6433
(g6426
tp6434
asS'c/country'
p6435
(lp6436
(tasS'name'
p6437
(lp6438
(g6419
tp6439
ass(dp6440
g44
I00
sg45
I7
sg46
(dp6441
sg48
I0
sg49
Nsg50
(dp6442
sg52
(dp6443
sg54
Nsg55
(dp6444
sg57
(lp6445
S'_0'
p6446
asg60
(dp6447
sbsS'f'
(lp6448
S'Japanese'
p6449
asg64
I0
sg65
I0
sg66
g67
sg68
(lp6450
sg70
Nsg71
(lp6451
sbI-1
sg1
(g12
g3
NtRp6452
(dp6453
S'e'
g15
(tRp6454
S'_5'
p6455
g18
(tRp6456
S'n2/now'
p6457
(lp6458
(tassS'_4'
p6459
g18
(tRp6460
S'y/year'
p6461
(lp6462
(tassS'_3'
p6463
g18
(tRp6464
S'100'
p6465
(lp6466
(tassS'_2'
p6467
g18
(tRp6468
S'quant'
p6469
(lp6470
(g6463
tp6471
asS'unit'
p6472
(lp6473
(g6459
tp6474
asS't/temporal-quantity'
p6475
(lp6476
(tassS'_1'
p6477
g18
(tRp6478
S's/several'
p6479
(lp6480
(tasS'op1'
p6481
(lp6482
(g6467
tp6483
assS'_0'
p6484
g18
(tRp6485
S'quant'
p6486
(lp6487
(g6477
tp6488
asS'b/before'
p6489
(lp6490
(tasS'op1'
p6491
(lp6492
(g6455
tp6493
ass(dp6494
g45
I11
sg54
Nsg50
(dp6495
sg60
(dp6496
sg44
I00
sg46
(dp6497
g6484
Nssg48
I0
sg49
Nsg57
(lp6498
g6484
asg52
(dp6499
sg55
(dp6500
sbsS'f'
(lp6501
S'several'
p6502
aS'hundred'
p6503
aS'years'
p6504
aS'ago'
p6505
asg64
I0
sg65
I0
sg66
g234
sg68
(lp6506
sg70
Nsg71
(lp6507
sbI-1
sg1
(g12
g3
NtRp6508
(dp6509
S'e'
g15
(tRp6510
S'_6'
p6511
g18
(tRp6512
S'o/officer'
p6513
(lp6514
(tassS'_5'
p6515
g18
(tRp6516
g1
(g214
g3
NtRp6517
(dp6518
g217
I1
sg218
S'A2-10'
p6519
sb(lp6520
(g6511
tp6521
assS'_4'
p6522
g18
(tRp6523
S'h/hire-01'
p6524
(lp6525
(tasS'ARG2'
p6526
(lp6527
(g6515
tp6528
assS'_3'
p6529
g18
(tRp6530
S'm/mayor'
p6531
(lp6532
(tassS'_2'
p6533
g18
(tRp6534
S'h2/have-org-role-91'
p6535
(lp6536
(tasS'ARG2'
p6537
(lp6538
(g6529
tp6539
assS'_1'
p6540
g18
(tRp6541
S'p3/person'
p6542
(lp6543
(tasS'ARG0-of'
p6544
(lp6545
(g6533
tp6546
assS'_0'
p6547
g18
(tRp6548
g1
(g214
g3
NtRp6549
(dp6550
g217
I0
sg218
S'A3-100'
p6551
sb(lp6552
(g6540
g6522
tp6553
ass(dp6554
g44
I00
sg45
I10
sg46
(dp6555
g6547
Nssg48
I0
sg49
Nsg50
(dp6556
sg52
(dp6557
sg54
Nsg55
(dp6558
sg57
(lp6559
g6547
asg60
(dp6560
sbsS'f'
(lp6561
S'mayor'
p6562
ag1183
aS'hiring'
p6563
ag372
aS'officers'
p6564
asg64
I0
sg65
I0
sg66
g165
sg68
(lp6565
sg70
Nsg71
(lp6566
sbI1
sg1
(g12
g3
NtRp6567
(dp6568
S'e'
g15
(tRp6569
S'_7'
p6570
g18
(tRp6571
S'c/climate'
p6572
(lp6573
(tassS'_6'
p6574
g18
(tRp6575
S'"dioxide"'
p6576
(lp6577
(tassS'_5'
p6578
g18
(tRp6579
S'"carbon"'
p6580
(lp6581
(tassS'_4'
p6582
g18
(tRp6583
S'n/name'
p6584
(lp6585
(tasS'op1'
p6586
(lp6587
(g6578
tp6588
asS'op2'
p6589
(lp6590
(g6574
tp6591
assS'_3'
p6592
g18
(tRp6593
S'"Carbon_dioxide"'
p6594
(lp6595
(tassS'_2'
p6596
g18
(tRp6597
S's/small-molecule'
p6598
(lp6599
(tasS'wiki'
p6600
(lp6601
(g6592
tp6602
asS'name'
p6603
(lp6604
(g6582
tp6605
assS'_1'
p6606
g18
(tRp6607
S'ARG1'
p6608
(lp6609
(g6596
tp6610
asS'e/emit-01'
p6611
(lp6612
(tassS'_0'
p6613
g18
(tRp6614
S'ARG0'
p6615
(lp6616
(g6606
tp6617
asS'ARG1'
p6618
(lp6619
(g6570
tp6620
asS'a/affect-01'
p6621
(lp6622
(tass(dp6623
g44
I00
sg45
I15
sg46
(dp6624
g6613
Nssg48
I0
sg49
Nsg50
(dp6625
sg52
(dp6626
sg54
Nsg55
(dp6627
sg57
(lp6628
g6613
asg60
(dp6629
sbsS'f'
(lp6630
S'Carbon'
p6631
aS'dioxide'
p6632
aS'emissions'
p6633
aS'have'
p6634
aS'an'
p6635
aS'effect'
p6636
aS'on'
p6637
aS'climate'
p6638
asg64
I0
sg65
I0
sg66
g165
sg68
(lp6639
sg70
Nsg71
(lp6640
sbI1
sg1
(g12
g3
NtRp6641
(dp6642
S'e'
g15
(tRp6643
S'_3'
p6644
g18
(tRp6645
S'o2/obligate-01'
p6646
(lp6647
(tassS'_2'
p6648
g18
(tRp6649
S'l2/leave-11'
p6650
(lp6651
(tasS'ARG2-of'
p6652
(lp6653
(g6644
tp6654
assS'_1'
p6655
g18
(tRp6656
S'ARG0-of'
p6657
(lp6658
(g6648
tp6659
asS'b2/boy'
p6660
(lp6661
(tassS'_0'
p6662
g18
(tRp6663
g1
(g214
g3
NtRp6664
(dp6665
g217
I0
sg218
S'A2-10'
p6666
sb(lp6667
(g6655
tp6668
ass(dp6669
g45
I6
sg54
Nsg50
(dp6670
sg60
(dp6671
sg44
I00
sg46
(dp6672
g6662
Nssg48
I0
sg49
Nsg57
(lp6673
g6662
asg52
(dp6674
sg55
(dp6675
sbsS'f'
(lp6676
S'boy'
p6677
aS'must'
p6678
aS'leave'
p6679
aS'.'
aS'A'
ag198
asg64
I0
sg65
I0
sg66
g234
sg68
(lp6680
sg70
Nsg71
(lp6681
sbI-1
sg1
(g12
g3
NtRp6682
(dp6683
S'e'
g15
(tRp6684
S'_3'
p6685
g18
(tRp6686
S'h/he'
p6687
(lp6688
(tassS'_2'
p6689
g18
(tRp6690
S'ARG1'
p6691
(lp6692
(g6685
tp6693
asS'r/return-01'
p6694
(lp6695
(tassS'_1'
p6696
g18
(tRp6697
S'imperative'
p6698
(lp6699
(tassS'_0'
p6700
g18
(tRp6701
S'mode'
p6702
(lp6703
(g6696
tp6704
asS'condition'
p6705
(lp6706
(g6689
tp6707
ass(dp6708
g45
I6
sg54
Nsg50
(dp6709
sg60
(dp6710
sg44
I00
sg46
(dp6711
g6700
Nssg48
I0
sg49
Nsg57
(lp6712
g6700
asg52
(dp6713
g6689
I0
ssg55
(dp6714
I0
S'_2'
p6715
ssbsS'f'
(lp6716
S'if'
p6717
aS'he'
p6718
aS'comes'
p6719
aS'back'
p6720
asg64
I0
sg65
I0
sg66
g4972
sg68
(lp6721
sg70
Nsg71
(lp6722
sbI-1
sg1
(g12
g3
NtRp6723
(dp6724
S'e'
g15
(tRp6725
S'_4'
p6726
g18
(tRp6727
S'm2/machine'
p6728
(lp6729
(tassS'_3'
p6730
g18
(tRp6731
S'2'
(lp6732
(tassS'_2'
p6733
g18
(tRp6734
S'g/gun'
p6735
(lp6736
(tasS'quant'
p6737
(lp6738
(g6730
tp6739
asS'mod'
p6740
(lp6741
(g6726
tp6742
assS'_1'
p6743
g18
(tRp6744
S'p/police'
p6745
(lp6746
(tassS'_0'
p6747
g18
(tRp6748
g1
(g214
g3
NtRp6749
(dp6750
g217
I0
sg218
S'A3-100'
p6751
sb(lp6752
(g6743
g6733
tp6753
ass(dp6754
g44
I00
sg45
I7
sg46
(dp6755
g6747
Nssg48
I0
sg49
Nsg50
(dp6756
sg52
(dp6757
sg54
Nsg55
(dp6758
sg57
(lp6759
g6747
asg60
(dp6760
sbsS'f'
(lp6761
S'Police'
p6762
ag1183
aS'two'
p6763
aS'machine'
p6764
aS'guns'
p6765
asg64
I0
sg65
I0
sg66
g165
sg68
(lp6766
sg70
Nsg71
(lp6767
sbI1
sg1
(g12
g3
NtRp6768
(dp6769
S'e'
g15
(tRp6770
S'_3'
p6771
g18
(tRp6772
S'm/mayor'
p6773
(lp6774
(tassS'_2'
p6775
g18
(tRp6776
g1
(g214
g3
NtRp6777
(dp6778
g217
I0
sg218
S'A1-1'
p6779
sb(lp6780
(tassS'_1'
p6781
g18
(tRp6782
S'ARG1'
p6783
(lp6784
(g6775
tp6785
asS'h/have-org-role-91'
p6786
(lp6787
(tasS'ARG2'
p6788
(lp6789
(g6771
tp6790
assS'_0'
p6791
g18
(tRp6792
g1
(g214
g3
NtRp6793
(dp6794
g217
I1
sg218
S'A1-1'
p6795
sb(lp6796
(tasS'ARG0-of'
p6797
(lp6798
(g6781
tp6799
ass(dp6800
g44
I00
sg45
I7
sg46
(dp6801
g6791
Nssg48
I0
sg49
Nsg50
(dp6802
sg52
(dp6803
sg54
Nsg55
(dp6804
sg57
(lp6805
g6791
asg60
(dp6806
sbsS'f'
(lp6807
g165
aS'Mayor'
p6808
ag165
asg64
I0
sg65
I0
sg66
g165
sg68
(lp6809
sg70
Nsg71
(lp6810
sbI1
sg1
(g12
g3
NtRp6811
(dp6812
S'e'
g15
(tRp6813
S'_2'
p6814
g18
(tRp6815
S'y/you'
p6816
(lp6817
(tassS'_1'
p6818
g18
(tRp6819
S'imperative'
p6820
(lp6821
(tassS'_0'
p6822
g18
(tRp6823
S'mode'
p6824
(lp6825
(g6818
tp6826
asg1
(g214
g3
NtRp6827
(dp6828
g217
I0
sg218
S'A2-10'
p6829
sb(lp6830
(g6814
tp6831
ass(dp6832
g45
I4
sg54
Nsg50
(dp6833
sg60
(dp6834
sg44
I00
sg46
(dp6835
g6822
Nssg48
I0
sg49
Nsg57
(lp6836
g6822
asg52
(dp6837
sg55
(dp6838
sbsS'f'
(lp6839
S'you'
p6840
ag198
aS'?'
asg64
I0
sg65
I0
sg66
g234
sg68
(lp6841
sg70
Nsg71
(lp6842
sbI-1
sg1
(g12
g3
NtRp6843
(dp6844
S'e'
g15
(tRp6845
S'_4'
p6846
g18
(tRp6847
S'd/door'
p6848
(lp6849
(tassS'_3'
p6850
g18
(tRp6851
S'y/you'
p6852
(lp6853
(tassS'_2'
p6854
g18
(tRp6855
S'+'
(lp6856
(tassS'_1'
p6857
g18
(tRp6858
S'imperative'
p6859
(lp6860
(tassS'_0'
p6861
g18
(tRp6862
S'c/close-01'
p6863
(lp6864
(tasS'ARG0'
p6865
(lp6866
(g6850
tp6867
asS'ARG1'
p6868
(lp6869
(g6846
tp6870
asS'mode'
p6871
(lp6872
(g6857
tp6873
asS'polite'
p6874
(lp6875
(g6854
tp6876
ass(dp6877
g44
I00
sg45
I9
sg46
(dp6878
g6861
Nssg48
I0
sg49
Nsg50
(dp6879
sg52
(dp6880
sg54
Nsg55
(dp6881
sg57
(lp6882
g6861
asg60
(dp6883
sbsS'f'
(lp6884
S'Please'
p6885
aS'close'
p6886
aS'the'
p6887
aS'door'
p6888
asg64
I0
sg65
I0
sg66
g165
sg68
(lp6889
sg70
Nsg71
(lp6890
sbI1
sg1
(g12
g3
NtRp6891
(dp6892
S'e'
g15
(tRp6893
S'_1'
p6894
g18
(tRp6895
S't/they'
p6896
(lp6897
(tassS'_0'
p6898
g18
(tRp6899
S'ARG1'
p6900
(lp6901
(g6894
tp6902
asS'm/marry-01'
p6903
(lp6904
(tass(dp6905
g44
I00
sg45
I3
sg46
(dp6906
g6898
Nssg48
I0
sg49
Nsg50
(dp6907
sg52
(dp6908
sg54
Nsg55
(dp6909
sg57
(lp6910
g6898
asg60
(dp6911
sbsS'f'
(lp6912
S'They'
p6913
aS'will'
p6914
aS'get'
p6915
aS'married'
p6916
asg64
I0
sg65
I0
sg66
g165
sg68
(lp6917
sg70
Nsg71
(lp6918
sbI1
sg1
(g12
g3
NtRp6919
(dp6920
S'e'
g15
(tRp6921
S'_4'
p6922
g18
(tRp6923
S'w/winter'
p6924
(lp6925
(tassS'_3'
p6926
g18
(tRp6927
S'c2/capital'
p6928
(lp6929
(tassS'_2'
p6930
g18
(tRp6931
g1
(g214
g3
NtRp6932
(dp6933
g217
I0
sg218
S'A1-1'
p6934
sb(lp6935
(tassS'_1'
p6936
g18
(tRp6937
S'ARG1'
p6938
(lp6939
(g6930
tp6940
asS'h/have-org-role-91'
p6941
(lp6942
(tasS'ARG2'
p6943
(lp6944
(g6926
tp6945
asS'time'
p6946
(lp6947
(g6922
tp6948
assS'_0'
p6949
g18
(tRp6950
g1
(g214
g3
NtRp6951
(dp6952
g217
I1
sg218
S'A1-1'
p6953
sb(lp6954
(tasS'ARG0-of'
p6955
(lp6956
(g6936
tp6957
ass(dp6958
g45
I9
sg54
Nsg50
(dp6959
sg60
(dp6960
sg44
I00
sg46
(dp6961
g6949
Nssg48
I0
sg49
Nsg57
(lp6962
g6949
asg52
(dp6963
sg55
(dp6964
sbsS'f'
(lp6965
g234
aS"'s"
p6966
aS'winter'
p6967
aS'capital'
p6968
ag234
asg64
I0
sg65
I0
sg66
g234
sg68
(lp6969
sg70
Nsg71
(lp6970
sbI-1
sg1
(g12
g3
NtRp6971
(dp6972
S'e'
g15
(tRp6973
S'_6'
p6974
g18
(tRp6975
g1
(g214
g3
NtRp6976
(dp6977
g217
I0
sg218
S'A1-1'
p6978
sb(lp6979
(tassS'_5'
p6980
g18
(tRp6981
S'"Pisa"'
p6982
(lp6983
(tassS'_4'
p6984
g18
(tRp6985
S'n/name'
p6986
(lp6987
(tasS'op1'
p6988
(lp6989
(g6980
tp6990
assS'_3'
p6991
g18
(tRp6992
S'"Pisa"'
p6993
(lp6994
(tassS'_2'
p6995
g18
(tRp6996
S'wiki'
p6997
(lp6998
(g6991
tp6999
asS'c/city'
p7000
(lp7001
(tasS'name'
p7002
(lp7003
(g6984
tp7004
assS'_1'
p7005
g18
(tRp7006
S'i/i'
p7007
(lp7008
(tassS'_0'
p7009
g18
(tRp7010
S'ARG0'
p7011
(lp7012
(g7005
tp7013
asS'ARG4'
p7014
(lp7015
(g6995
tp7016
asS'g/go-02'
p7017
(lp7018
(tasS'path'
p7019
(lp7020
(g6974
tp7021
ass(dp7022
g44
I00
sg45
I13
sg46
(dp7023
g7009
Nssg48
I0
sg49
Nsg50
(dp7024
sg52
(dp7025
sg54
Nsg55
(dp7026
sg57
(lp7027
g7009
asg60
(dp7028
sbsS'f'
(lp7029
S'I'
aS'went'
p7030
aS'to'
p7031
aS'Pisa'
p7032
aS'via'
p7033
ag165
asg64
I0
sg65
I0
sg66
g165
sg68
(lp7034
sg70
Nsg71
(lp7035
sbI1
sg1
(g12
g3
NtRp7036
(dp7037
S'e'
g15
(tRp7038
S'_7'
p7039
g18
(tRp7040
S'h2/have-concession-91'
p7041
(lp7042
(tassS'_6'
p7043
g18
(tRp7044
S'h/he'
p7045
(lp7046
(tassS'_5'
p7047
g18
(tRp7048
S'ARG1'
p7049
(lp7050
(g7043
tp7051
asS'ARG1-of'
p7052
(lp7053
(g7039
tp7054
asS'r/return-01'
p7055
(lp7056
(tassS'_4'
p7057
g18
(tRp7058
S'imperative'
p7059
(lp7060
(tassS'_3'
p7061
g18
(tRp7062
S'911'
p7063
(lp7064
(tassS'_2'
p7065
g18
(tRp7066
S'p/phone-number-entity'
p7067
(lp7068
(tasS'value'
p7069
(lp7070
(g7061
tp7071
assS'_1'
p7072
g18
(tRp7073
S'y/you'
p7074
(lp7075
(tassS'_0'
p7076
g18
(tRp7077
S'c/call-02'
p7078
(lp7079
(tasS'ARG0'
p7080
(lp7081
(g7072
tp7082
asS'mode'
p7083
(lp7084
(g7057
tp7085
asS'condition'
p7086
(lp7087
(g7047
tp7088
asS'ARG1'
p7089
(lp7090
(g7065
tp7091
ass(dp7092
g44
I00
sg45
I15
sg46
(dp7093
g7076
Nssg48
I0
sg49
Nsg50
(dp7094
sg52
(dp7095
sg54
Nsg55
(dp7096
sg57
(lp7097
g7076
asg60
(dp7098
sbsS'f'
(lp7099
S'Call'
p7100
aS'911'
p7101
aS'if'
p7102
aS'he'
p7103
aS'comes'
p7104
aS'back'
p7105
aS'anyway'
p7106
asg64
I0
sg65
I0
sg66
g165
sg68
(lp7107
sg70
Nsg71
(lp7108
sbI1
sg1
(g12
g3
NtRp7109
(dp7110
S'e'
g15
(tRp7111
S'_3'
p7112
g18
(tRp7113
sS'_2'
p7114
g18
(tRp7115
S'a/a'
p7116
(lp7117
(tassS'_1'
p7118
g18
(tRp7119
S'mod'
p7120
(lp7121
(g7114
tp7122
assS'_0'
p7123
g18
(tRp7124
S'ARG1'
p7125
(lp7126
(g7118
tp7127
asS'ARG2'
p7128
(lp7129
(g7112
tp7130
asS'c/consist-01'
p7131
(lp7132
(tass(dp7133
g45
I5
sg54
Nsg50
(dp7134
sg60
(dp7135
sg44
I00
sg46
(dp7136
g7123
Nssg48
I0
sg49
Nsg57
(lp7137
g7123
asg52
(dp7138
g7112
I1
sg7118
I0
ssg55
(dp7139
I0
S'_1'
p7140
sI1
S'_3'
p7141
ssbsS'f'
(lp7142
S'A'
asg64
I0
sg65
I0
sg66
g231
sg68
(lp7143
sg70
Nsg71
(lp7144
sbI-1
sg1
(g12
g3
NtRp7145
(dp7146
S'e'
g15
(tRp7147
S'_2'
p7148
g18
(tRp7149
S'm/mayor'
p7150
(lp7151
(tassS'_1'
p7152
g18
(tRp7153
g1
(g214
g3
NtRp7154
(dp7155
g217
I1
sg218
S'A1-1'
p7156
sb(lp7157
(tasg1
(g214
g3
NtRp7158
(dp7159
g217
I0
sg218
S'A2-00'
p7160
sb(lp7161
(g7148
tp7162
assS'_0'
p7163
g18
(tRp7164
S'ARG0'
p7165
(lp7166
(g7152
tp7167
asS'l/live-01'
p7168
(lp7169
(tass(dp7170
g45
I5
sg54
Nsg50
(dp7171
sg60
(dp7172
sg44
I00
sg46
(dp7173
g7163
Nssg48
I0
sg49
Nsg57
(lp7174
g7163
asg52
(dp7175
sg55
(dp7176
sbsS'f'
(lp7177
g874
aS'Mayor'
p7178
ag234
aS'lives'
p7179
asg64
I0
sg65
I0
sg66
g234
sg68
(lp7180
sg70
Nsg71
(lp7181
sbI-1
sg1
(g12
g3
NtRp7182
(dp7183
S'e'
g15
(tRp7184
S'_7'
p7185
g18
(tRp7186
sS'_6'
p7187
g18
(tRp7188
S'p2/pound'
p7189
(lp7190
(tassS'_5'
p7191
g18
(tRp7192
S'50'
p7193
(lp7194
(tassS'_4'
p7195
g18
(tRp7196
S'quant'
p7197
(lp7198
(g7191
tp7199
asS'm/mass-quantity'
p7200
(lp7201
(tasS'unit'
p7202
(lp7203
(g7187
tp7204
assS'_3'
p7205
g18
(tRp7206
S'quant'
p7207
(lp7208
(g7195
tp7209
asS'h/heroin'
p7210
(lp7211
(tassS'_2'
p7212
g18
(tRp7213
S'a/and'
p7214
(lp7215
(tasS'op1'
p7216
(lp7217
(g7205
tp7218
asS'op2'
p7219
(lp7220
(g7185
tp7221
assS'_1'
p7222
g18
(tRp7223
sS'_0'
p7224
g18
(tRp7225
S'ARG0'
p7226
(lp7227
(g7222
tp7228
asS'ARG1'
p7229
(lp7230
(g7212
tp7231
asS's/seize-01'
p7232
(lp7233
(tass(dp7234
g44
I00
sg45
I13
sg46
(dp7235
g7224
Nssg48
I0
sg49
Nsg50
(dp7236
sg52
(dp7237
g7185
I1
sg7222
I0
ssg54
Nsg55
(dp7238
I0
S'_1'
p7239
sI1
S'_7'
p7240
ssg57
(lp7241
g7224
asg60
(dp7242
sbsS'f'
(lp7243
S'seized'
p7244
aS'50'
p7245
aS'pounds'
p7246
aS'of'
p7247
aS'heroin'
p7248
aS'as'
p7249
aS'well'
p7250
aS'as'
p7251
asg64
I0
sg65
I0
sg66
g1183
sg68
(lp7252
sg70
Nsg71
(lp7253
sbI1
sg1
(g12
g3
NtRp7254
(dp7255
S'e'
g15
(tRp7256
S'_1'
p7257
g18
(tRp7258
S'b5/buffalo'
p7259
(lp7260
(tassS'_0'
p7261
g18
(tRp7262
g1
(g214
g3
NtRp7263
(dp7264
g217
I0
sg218
S'A2-10'
p7265
sb(lp7266
(g7257
tp7267
ass(dp7268
g44
I00
sg45
I2
sg46
(dp7269
g7261
Nssg48
I0
sg49
Nsg50
(dp7270
sg52
(dp7271
sg54
Nsg55
(dp7272
sg57
(lp7273
g7261
asg60
(dp7274
sbsS'f'
(lp7275
S'[A2-10]'
p7276
asg64
I0
sg65
I0
sg66
S'[A1-1]'
p7277
sg68
(lp7278
sg70
Nsg71
(lp7279
sbI1
sg1
(g12
g3
NtRp7280
(dp7281
S'e'
g15
(tRp7282
S'_6'
p7283
g18
(tRp7284
S'c/city'
p7285
(lp7286
(tassS'_5'
p7287
g18
(tRp7288
S'2'
(lp7289
(tassS'_4'
p7290
g18
(tRp7291
S'a2/acre'
p7292
(lp7293
(tassS'_3'
p7294
g18
(tRp7295
S'a/area-quantity'
p7296
(lp7297
(tasS'quant'
p7298
(lp7299
(g7287
tp7300
asS'unit'
p7301
(lp7302
(g7290
tp7303
assS'_2'
p7304
g18
(tRp7305
S'quant'
p7306
(lp7307
(g7294
tp7308
asS'location'
p7309
(lp7310
(g7283
tp7311
asS'l/land'
p7312
(lp7313
(tassS'_1'
p7314
g18
(tRp7315
S't/they'
p7316
(lp7317
(tassS'_0'
p7318
g18
(tRp7319
S'ARG0'
p7320
(lp7321
(g7314
tp7322
asS'ARG1'
p7323
(lp7324
(g7304
tp7325
asS'o/own-01'
p7326
(lp7327
(tass(dp7328
g45
I13
sg54
Nsg50
(dp7329
sg60
(dp7330
sg44
I00
sg46
(dp7331
g7318
Nssg48
I0
sg49
Nsg57
(lp7332
g7318
asg52
(dp7333
sg55
(dp7334
sbsS'f'
(lp7335
S'They'
p7336
aS'own'
p7337
aS'two'
p7338
aS'acres'
p7339
aS'of'
p7340
aS'land'
p7341
aS'within'
p7342
aS'the'
p7343
aS'city'
p7344
asg64
I0
sg65
I0
sg66
S'[A1-1]'
p7345
sg68
(lp7346
sg70
Nsg71
(lp7347
sbI-1
sg1
(g12
g3
NtRp7348
(dp7349
S'e'
g15
(tRp7350
S'_7'
p7351
g18
(tRp7352
S'w/we'
p7353
(lp7354
(tassS'_6'
p7355
g18
(tRp7356
g1
(g214
g3
NtRp7357
(dp7358
g217
I0
sg218
S'A1-1'
p7359
sb(lp7360
(tassS'_5'
p7361
g18
(tRp7362
S'"O\'Connor"'
p7363
(lp7364
(tassS'_4'
p7365
g18
(tRp7366
S'"Mrs."'
p7367
(lp7368
(tassS'_3'
p7369
g18
(tRp7370
S'n/name'
p7371
(lp7372
(tasS'op1'
p7373
(lp7374
(g7365
tp7375
asS'op2'
p7376
(lp7377
(g7361
tp7378
assS'_2'
p7379
g18
(tRp7380
S'-'
(lp7381
(tassS'_1'
p7382
g18
(tRp7383
S'p/person'
p7384
(lp7385
(tasS'wiki'
p7386
(lp7387
(g7379
tp7388
asS'name'
p7389
(lp7390
(g7369
tp7391
assS'_0'
p7392
g18
(tRp7393
S't/teach-01'
p7394
(lp7395
(tasS'ARG0'
p7396
(lp7397
(g7382
tp7398
asS'ARG2'
p7399
(lp7400
(g7351
tp7401
asS'ARG1'
p7402
(lp7403
(g7355
tp7404
ass(dp7405
g44
I00
sg45
I15
sg46
(dp7406
g7392
Nssg48
I0
sg49
Nsg50
(dp7407
sg52
(dp7408
sg54
Nsg55
(dp7409
sg57
(lp7410
g7392
asg60
(dp7411
sbsS'f'
(lp7412
S'Mrs.'
p7413
aS"O'Connor"
p7414
aS'is'
p7415
aS'our'
p7416
ag165
aS'teacher'
p7417
asg64
I0
sg65
I0
sg66
g165
sg68
(lp7418
sg70
Nsg71
(lp7419
sbI1
sg1
(g12
g3
NtRp7420
(dp7421
S'e'
g15
(tRp7422
S'_3'
p7423
g18
(tRp7424
S'b/banana'
p7425
(lp7426
(tassS'_2'
p7427
g18
(tRp7428
S'ARG0'
p7429
(lp7430
(S'_1'
tp7431
asS'ARG1'
p7432
(lp7433
(g7423
tp7434
asS'e/eat-01'
p7435
(lp7436
(tassS'_1'
p7437
g18
(tRp7438
S'g/girl'
p7439
(lp7440
(tassS'_0'
p7441
g18
(tRp7442
S'ARG0'
p7443
(lp7444
(g7437
tp7445
asS'w/want-01'
p7446
(lp7447
(tasS'ARG1'
p7448
(lp7449
(g7427
tp7450
ass(dp7451
g44
I00
sg45
I8
sg46
(dp7452
g7441
Nssg48
I0
sg49
Nsg50
(dp7453
sg52
(dp7454
sg54
Nsg55
(dp7455
sg57
(lp7456
g7441
asg60
(dp7457
sbsS'f'
(lp7458
S'girl'
p7459
aS'wants'
p7460
aS'to'
p7461
aS'eat'
p7462
aS'a'
aS'banana'
p7463
asg64
I0
sg65
I0
sg66
g165
sg68
(lp7464
sg70
Nsg71
(lp7465
sbI1
sg1
(g12
g3
NtRp7466
(dp7467
S'e'
g15
(tRp7468
S'_2'
p7469
g18
(tRp7470
S'w/waste'
p7471
(lp7472
(tassS'_1'
p7473
g18
(tRp7474
g1
(g214
g3
NtRp7475
(dp7476
g217
I0
sg218
S'A1-1'
p7477
sb(lp7478
(tassS'_0'
p7479
g18
(tRp7480
S'ARG1'
p7481
(lp7482
(g7469
tp7483
asS'ARG1-of'
p7484
(lp7485
(g7473
tp7486
asS'd/dispose-01'
p7487
(lp7488
(tass(dp7489
g44
I00
sg45
I5
sg46
(dp7490
g7479
Nssg48
I0
sg49
Nsg50
(dp7491
sg52
(dp7492
sg54
Nsg55
(dp7493
sg57
(lp7494
g7479
asg60
(dp7495
sbsS'f'
(lp7496
S'waste'
p7497
aS'was'
p7498
aS'disposed'
p7499
aS'of'
p7500
aS'in'
p7501
ag165
asg64
I0
sg65
I0
sg66
g165
sg68
(lp7502
sg70
Nsg71
(lp7503
sbI1
sg1
(g12
g3
NtRp7504
(dp7505
S'e'
g15
(tRp7506
S'_2'
p7507
g18
(tRp7508
S'g/girl'
p7509
(lp7510
(tassS'_1'
p7511
g18
(tRp7512
S'b/boy'
p7513
(lp7514
(tassS'_0'
p7515
g18
(tRp7516
S'a/and'
p7517
(lp7518
(tasS'op1'
p7519
(lp7520
(g7511
tp7521
asS'op2'
p7522
(lp7523
(g7507
tp7524
ass(dp7525
g44
I00
sg45
I5
sg46
(dp7526
g7515
Nssg48
I0
sg49
Nsg50
(dp7527
sg52
(dp7528
sg54
Nsg55
(dp7529
sg57
(lp7530
g7515
asg60
(dp7531
sbsS'f'
(lp7532
S'boy'
p7533
aS'and'
p7534
aS'the'
p7535
aS'girl'
p7536
asg64
I0
sg65
I0
sg66
g165
sg68
(lp7537
sg70
Nsg71
(lp7538
sbI1
sg1
(g12
g3
NtRp7539
(dp7540
S'e'
g15
(tRp7541
S'_4'
p7542
g18
(tRp7543
S'"Fujian"'
p7544
(lp7545
(tassS'_3'
p7546
g18
(tRp7547
S'n2/name'
p7548
(lp7549
(tasS'op1'
p7550
(lp7551
(g7542
tp7552
assS'_2'
p7553
g18
(tRp7554
S'"Fujian"'
p7555
(lp7556
(tassS'_1'
p7557
g18
(tRp7558
g1
(g214
g3
NtRp7559
(dp7560
g217
I0
sg218
S'A1-1'
p7561
sb(lp7562
(tassS'_0'
p7563
g18
(tRp7564
S'wiki'
p7565
(lp7566
(g7553
tp7567
asS'location'
p7568
(lp7569
(g7557
tp7570
asS'p2/province'
p7571
(lp7572
(tasS'name'
p7573
(lp7574
(g7546
tp7575
ass(dp7576
g45
I9
sg54
Nsg50
(dp7577
sg60
(dp7578
sg44
I00
sg46
(dp7579
g7563
Nssg48
I0
sg49
Nsg57
(lp7580
g7563
asg52
(dp7581
sg55
(dp7582
sbsS'f'
(lp7583
S'Fujian'
p7584
aS'in'
p7585
ag234
asg64
I0
sg65
I0
sg66
g234
sg68
(lp7586
sg70
Nsg71
(lp7587
sbI-1
sg1
(g12
g3
NtRp7588
(dp7589
S'e'
g15
(tRp7590
S'_4'
p7591
g18
(tRp7592
S'"Einstein"'
p7593
(lp7594
(tassS'_3'
p7595
g18
(tRp7596
S'"Albert"'
p7597
(lp7598
(tassS'_2'
p7599
g18
(tRp7600
S'n/name'
p7601
(lp7602
(tasS'op1'
p7603
(lp7604
(g7595
tp7605
asS'op2'
p7606
(lp7607
(g7591
tp7608
assS'_1'
p7609
g18
(tRp7610
S'"Albert_Einstein"'
p7611
(lp7612
(tassS'_0'
p7613
g18
(tRp7614
S'wiki'
p7615
(lp7616
(g7609
tp7617
asS'p2/person'
p7618
(lp7619
(tasS'name'
p7620
(lp7621
(g7599
tp7622
ass(dp7623
g45
I9
sg54
Nsg50
(dp7624
sg60
(dp7625
sg44
I00
sg46
(dp7626
sg48
I0
sg49
Nsg57
(lp7627
S'_0'
p7628
asg52
(dp7629
sg55
(dp7630
sbsS'f'
(lp7631
S'Albert'
p7632
aS'Einstein'
p7633
asg64
I0
sg65
I0
sg66
S'[A1-1]'
p7634
sg68
(lp7635
sg70
Nsg71
(lp7636
sbI-1
sg1
(g12
g3
NtRp7637
(dp7638
S'e'
g15
(tRp7639
S'_3'
p7640
g18
(tRp7641
S'1'
(lp7642
(tassS'_2'
p7643
g18
(tRp7644
S'2'
(lp7645
(tassS'_1'
p7646
g18
(tRp7647
S'op1'
p7648
(lp7649
(g7643
tp7650
asS'op2'
p7651
(lp7652
(g7640
tp7653
asS's2/score-entity'
p7654
(lp7655
(tassS'_0'
p7656
g18
(tRp7657
S'quant'
p7658
(lp7659
(g7646
tp7660
asg1
(g214
g3
NtRp7661
(dp7662
g217
I0
sg218
S'A1-1'
p7663
sb(lp7664
(tass(dp7665
g45
I7
sg54
Nsg50
(dp7666
sg60
(dp7667
sg44
I00
sg46
(dp7668
g7656
Nssg48
I0
sg49
Nsg57
(lp7669
g7656
asg52
(dp7670
sg55
(dp7671
sbsS'f'
(lp7672
g234
aS'2'
aS'@-@'
p7673
aS'1'
asg64
I0
sg65
I0
sg66
g234
sg68
(lp7674
sg70
Nsg71
(lp7675
sbI-1
sg1
(g12
g3
NtRp7676
(dp7677
S'e'
g15
(tRp7678
S'_3'
p7679
g18
(tRp7680
sS'_2'
p7681
g18
(tRp7682
S'y/you'
p7683
(lp7684
(tassS'_1'
p7685
g18
(tRp7686
S'+'
(lp7687
(tassS'_0'
p7688
g18
(tRp7689
S'ARG0'
p7690
(lp7691
(g7681
tp7692
asS'ARG1'
p7693
(lp7694
(g7679
tp7695
asS'polite'
p7696
(lp7697
(g7685
tp7698
ass(dp7699
g44
I00
sg45
I5
sg46
(dp7700
g7688
Nssg48
I0
sg49
Nsg50
(dp7701
sg52
(dp7702
g7679
I0
ssg54
Nsg55
(dp7703
I0
S'_3'
p7704
ssg57
(lp7705
g7688
asg60
(dp7706
sbsS'f'
(lp7707
S'Please'
p7708
asg64
I0
sg65
I0
sg66
S'[A2-00]'
p7709
sg68
(lp7710
sg70
Nsg71
(lp7711
sbI-1
sg1
(g12
g3
NtRp7712
(dp7713
S'e'
g15
(tRp7714
S'_4'
p7715
g18
(tRp7716
sS'_3'
p7717
g18
(tRp7718
g1
(g214
g3
NtRp7719
(dp7720
g217
I0
sg218
S'A1-1'
p7721
sb(lp7722
(tassS'_2'
p7723
g18
(tRp7724
S'ARG0'
p7725
(lp7726
(g7717
tp7727
asS'ARG1'
p7728
(lp7729
(g7715
tp7730
asS'r/repeal-01'
p7731
(lp7732
(tassS'_1'
p7733
g18
(tRp7734
sS'_0'
p7735
g18
(tRp7736
S'ARG0'
p7737
(lp7738
(g7733
tp7739
asS'l/lobby-01'
p7740
(lp7741
(tasS'ARG2'
p7742
(lp7743
(S'_3'
tp7744
asS'ARG1'
p7745
(lp7746
(g7723
tp7747
ass(dp7748
g45
I8
sg54
Nsg50
(dp7749
sg60
(dp7750
sg44
I00
sg46
(dp7751
g7735
Nssg48
I0
sg49
Nsg57
(lp7752
g7735
asg52
(dp7753
g7715
I1
sg7733
I0
ssg55
(dp7754
I0
S'_1'
p7755
sI1
S'_4'
p7756
ssbsS'f'
(lp7757
S'lobbied'
p7758
ag825
aS'to'
p7759
aS'repeal'
p7760
asg64
I0
sg65
I0
sg66
g817
sg68
(lp7761
sg70
Nsg71
(lp7762
sbI-1
sg1
(g12
g3
NtRp7763
(dp7764
S'e'
g15
(tRp7765
S'_6'
p7766
g18
(tRp7767
S'221'
p7768
(lp7769
(tassS'_5'
p7770
g18
(tRp7771
S'222'
p7772
(lp7773
(tassS'_4'
p7774
g18
(tRp7775
S's/score-entity'
p7776
(lp7777
(tasS'op1'
p7778
(lp7779
(g7770
tp7780
asS'op2'
p7781
(lp7782
(g7766
tp7783
assS'_3'
p7784
g18
(tRp7785
S'b/bill'
p7786
(lp7787
(tassS'_2'
p7788
g18
(tRp7789
S'a/adopt-01'
p7790
(lp7791
(tasS'ARG0'
p7792
(lp7793
(S'_1'
tp7794
asS'ARG1'
p7795
(lp7796
(g7784
tp7797
assS'_1'
p7798
g18
(tRp7799
S'p/parliament'
p7800
(lp7801
(tassS'_0'
p7802
g18
(tRp7803
S'ARG0'
p7804
(lp7805
(g7798
tp7806
asS'ARG1'
p7807
(lp7808
(g7788
tp7809
asS'v/vote-01'
p7810
(lp7811
(tasS'ARG2'
p7812
(lp7813
(g7774
tp7814
ass(dp7815
g45
I14
sg54
Nsg50
(dp7816
sg60
(dp7817
sg44
I00
sg46
(dp7818
g7802
Nssg48
I0
sg49
Nsg57
(lp7819
g7802
asg52
(dp7820
sg55
(dp7821
sbsS'f'
(lp7822
S'Parliament'
p7823
aS'voted'
p7824
aS'222'
p7825
aS'@-@'
p7826
aS'221'
p7827
aS'to'
p7828
aS'adopt'
p7829
aS'the'
p7830
aS'bill'
p7831
asg64
I0
sg65
I0
sg66
g234
sg68
(lp7832
sg70
Nsg71
(lp7833
sbI-1
sg1
(g12
g3
NtRp7834
(dp7835
S'e'
g15
(tRp7836
S'_4'
p7837
g18
(tRp7838
S'k/kill-01'
p7839
(lp7840
(tassS'_3'
p7841
g18
(tRp7842
S'w/wave'
p7843
(lp7844
(tasS'ARG0-of'
p7845
(lp7846
(g7837
tp7847
assS'_2'
p7848
g18
(tRp7849
sS'_1'
p7850
g18
(tRp7851
S'r/recent'
p7852
(lp7853
(tassS'_0'
p7854
g18
(tRp7855
S'ARG1'
p7856
(lp7857
(g7848
tp7858
asS'ARG2'
p7859
(lp7860
(g7841
tp7861
asS'h/hit-01'
p7862
(lp7863
(tasS'time'
p7864
(lp7865
(g7850
tp7866
ass(dp7867
g45
I8
sg54
Nsg50
(dp7868
sg60
(dp7869
sg44
I00
sg46
(dp7870
g7854
Nssg48
I0
sg49
Nsg57
(lp7871
g7854
asg52
(dp7872
g7848
I0
ssg55
(dp7873
I0
S'_2'
p7874
ssbsS'f'
(lp7875
S'recently'
p7876
aS'hit'
p7877
aS'by'
p7878
aS'deadly'
p7879
aS'waves'
p7880
asg64
I0
sg65
I0
sg66
g198
sg68
(lp7881
sg70
Nsg71
(lp7882
sbI-1
sg1
(g12
g3
NtRp7883
(dp7884
S'e'
g15
(tRp7885
S'_3'
p7886
g18
(tRp7887
S'l/lightning'
p7888
(lp7889
(tassS'_2'
p7890
g18
(tRp7891
S'e/equal'
p7892
(lp7893
(tassS'_1'
p7894
g18
(tRp7895
S'compared-to'
p7896
(lp7897
(g7886
tp7898
asS'f/fast'
p7899
(lp7900
(tasS'degree'
p7901
(lp7902
(g7890
tp7903
assS'_0'
p7904
g18
(tRp7905
S'manner'
p7906
(lp7907
(g7894
tp7908
ass(dp7909
g44
I00
sg45
I6
sg46
(dp7910
g7904
Nssg48
I0
sg49
Nsg50
(dp7911
sg52
(dp7912
sg54
Nsg55
(dp7913
sg57
(lp7914
g7904
asg60
(dp7915
sbsS'f'
(lp7916
S'as'
p7917
aS'fast'
p7918
aS'as'
p7919
aS'lightning'
p7920
asg64
I0
sg65
I0
sg66
S'[A1-0]'
p7921
sg68
(lp7922
sg70
Nsg71
(lp7923
sbI1
sg1
(g12
g3
NtRp7924
(dp7925
S'e'
g15
(tRp7926
S'_2'
p7927
g18
(tRp7928
S'g/golf'
p7929
(lp7930
(tassS'_1'
p7931
g18
(tRp7932
S'i/i'
p7933
(lp7934
(tassS'_0'
p7935
g18
(tRp7936
g1
(g214
g3
NtRp7937
(dp7938
g217
I0
sg218
S'A3-100'
p7939
sb(lp7940
(g7931
g7927
tp7941
ass(dp7942
g45
I3
sg54
Nsg50
(dp7943
sg60
(dp7944
sg44
I00
sg46
(dp7945
g7935
Nssg48
I0
sg49
Nsg57
(lp7946
g7935
asg52
(dp7947
sg55
(dp7948
sbsS'f'
(lp7949
S'I'
aS'would'
p7950
aS'rather'
p7951
aS'go'
p7952
ag231
aS'golf'
p7953
asg64
I0
sg65
I0
sg66
g234
sg68
(lp7954
sg70
Nsg71
(lp7955
sbI-1
sg1
(g12
g3
NtRp7956
(dp7957
S'e'
g15
(tRp7958
S'_3'
p7959
g18
(tRp7960
S'h/high-02'
p7961
(lp7962
(tassS'_2'
p7963
g18
(tRp7964
S't/tech'
p7965
(lp7966
(tasS'ARG1-of'
p7967
(lp7968
(g7959
tp7969
assS'_1'
p7970
g18
(tRp7971
g1
(g214
g3
NtRp7972
(dp7973
g217
I0
sg218
S'A1-1'
p7974
sb(lp7975
(tassS'_0'
p7976
g18
(tRp7977
S'c/company'
p7978
(lp7979
(tasS'example'
p7980
(lp7981
(g7970
tp7982
asS'mod'
p7983
(lp7984
(g7963
tp7985
ass(dp7986
g44
I00
sg45
I7
sg46
(dp7987
g7976
Nssg48
I0
sg49
Nsg50
(dp7988
sg52
(dp7989
sg54
Nsg55
(dp7990
sg57
(lp7991
g7976
asg60
(dp7992
sbsS'f'
(lp7993
S'high'
p7994
aS'tech'
p7995
aS'companies'
p7996
aS'like'
p7997
ag165
asg64
I0
sg65
I0
sg66
g165
sg68
(lp7998
sg70
Nsg71
(lp7999
sbI1
sg1
(g12
g3
NtRp8000
(dp8001
S'e'
g15
(tRp8002
S'_4'
p8003
g18
(tRp8004
sS'_3'
p8005
g18
(tRp8006
S'ARG0'
p8007
(lp8008
(g8003
tp8009
asS'r/revolution-03'
p8010
(lp8011
(tassS'_2'
p8012
g18
(tRp8013
S'j/julian'
p8014
(lp8015
(tassS'_1'
p8016
g18
(tRp8017
S'calendar'
p8018
(lp8019
(g8012
tp8020
assS'_0'
p8021
g18
(tRp8022
S'ARG1'
p8023
(lp8024
(g8005
tp8025
asS's/start-01'
p8026
(lp8027
(tasS'time'
p8028
(lp8029
(g8016
tp8030
ass(dp8031
g44
I00
sg45
I7
sg46
(dp8032
g8021
Nssg48
I0
sg49
Nsg50
(dp8033
sg52
(dp8034
g8003
I0
sg8016
I1
ssg54
Nsg55
(dp8035
I0
S'_4'
p8036
sI1
S'_1'
p8037
ssg57
(lp8038
g8021
asg60
(dp8039
sbsS'f'
(lp8040
S'revolution'
p8041
aS'started'
p8042
aS'on'
p8043
asg64
I0
sg65
I0
sg66
g1183
sg68
(lp8044
sg70
Nsg71
(lp8045
sbI1
sg1
(g12
g3
NtRp8046
(dp8047
S'e'
g15
(tRp8048
S'_7'
p8049
g18
(tRp8050
sS'_6'
p8051
g18
(tRp8052
sS'_5'
p8053
g18
(tRp8054
S'322'
p8055
(lp8056
(tassS'_4'
p8057
g18
(tRp8058
g1
(g214
g3
NtRp8059
(dp8060
g217
I1
sg218
S'A1-1'
p8061
sb(lp8062
(tassS'_3'
p8063
g18
(tRp8064
sS'_2'
p8065
g18
(tRp8066
S'1905'
p8067
(lp8068
(tassS'_1'
p8069
g18
(tRp8070
S'd/date-entity'
p8071
(lp8072
(tasS'year'
p8073
(lp8074
(g8065
tp8075
assS'_0'
p8076
g18
(tRp8077
g1
(g214
g3
NtRp8078
(dp8079
g217
I0
sg218
S'A6-100000'
p8080
sb(lp8081
(g8063
g8057
g8053
g8051
g8049
tp8082
asS'time'
p8083
(lp8084
(g8069
tp8085
ass(dp8086
g44
I00
sg45
I7
sg46
(dp8087
g8076
Nssg48
I0
sg49
Nsg50
(dp8088
sg52
(dp8089
S'_7'
p8090
I2
sS'_6'
p8091
I1
sS'_3'
p8092
I0
ssg54
Nsg55
(dp8093
I0
g8092
sI1
g8091
sI2
g8090
ssg57
(lp8094
g8076
asg60
(dp8095
sbsS'f'
(lp8096
g3603
aS'('
aS'1905'
p8097
aS')'
ag165
aS','
aS'322'
p8098
asg64
I0
sg65
I0
sg66
g1686
sg68
(lp8099
sg70
Nsg71
(lp8100
sbI1
sg1
(g12
g3
NtRp8101
(dp8102
S'e'
g15
(tRp8103
S'_4'
p8104
g18
(tRp8105
S'"Nixon"'
p8106
(lp8107
(tassS'_3'
p8108
g18
(tRp8109
S'n/name'
p8110
(lp8111
(tasS'op1'
p8112
(lp8113
(g8104
tp8114
assS'_2'
p8115
g18
(tRp8116
S'"Richard_Nixon"'
p8117
(lp8118
(tassS'_1'
p8119
g18
(tRp8120
S'p/person'
p8121
(lp8122
(tasS'wiki'
p8123
(lp8124
(g8115
tp8125
asS'name'
p8126
(lp8127
(g8108
tp8128
assS'_0'
p8129
g18
(tRp8130
S'r/resign-01'
p8131
(lp8132
(tasS'ARG0'
p8133
(lp8134
(g8119
tp8135
ass(dp8136
g44
I00
sg45
I9
sg46
(dp8137
g8129
Nssg48
I0
sg49
Nsg50
(dp8138
sg52
(dp8139
sg54
Nsg55
(dp8140
sg57
(lp8141
g8129
asg60
(dp8142
sbsS'f'
(lp8143
S'Nixon'
p8144
aS"'s"
p8145
aS'resignation'
p8146
asg64
I0
sg65
I0
sg66
g165
sg68
(lp8147
sg70
Nsg71
(lp8148
sbI1
sg1
(g12
g3
NtRp8149
(dp8150
S'e'
g15
(tRp8151
S'_5'
p8152
g18
(tRp8153
S'"O\'Connor"'
p8154
(lp8155
(tassS'_4'
p8156
g18
(tRp8157
S'"Mrs."'
p8158
(lp8159
(tassS'_3'
p8160
g18
(tRp8161
S'n/name'
p8162
(lp8163
(tasS'op1'
p8164
(lp8165
(g8156
tp8166
asS'op2'
p8167
(lp8168
(g8152
tp8169
assS'_2'
p8170
g18
(tRp8171
S'-'
(lp8172
(tassS'_1'
p8173
g18
(tRp8174
S'p/person'
p8175
(lp8176
(tasS'wiki'
p8177
(lp8178
(g8170
tp8179
asS'name'
p8180
(lp8181
(g8160
tp8182
assS'_0'
p8183
g18
(tRp8184
S't/teach-01'
p8185
(lp8186
(tasS'ARG0'
p8187
(lp8188
(g8173
tp8189
asg1
(g214
g3
NtRp8190
(dp8191
g217
I0
sg218
S'A1-0'
p8192
sb(lp8193
(tass(dp8194
g45
I12
sg54
Nsg50
(dp8195
sg60
(dp8196
sg44
I00
sg46
(dp8197
g8183
Nssg48
I0
sg49
Nsg57
(lp8198
g8183
asg52
(dp8199
sg55
(dp8200
sbsS'f'
(lp8201
S'Mrs.'
p8202
aS"O'Connor"
p8203
aS'is'
p8204
ag1010
aS'teacher'
p8205
asg64
I0
sg65
I0
sg66
g234
sg68
(lp8206
sg70
Nsg71
(lp8207
sbI-1
sg1
(g12
g3
NtRp8208
(dp8209
S'e'
g15
(tRp8210
S'_5'
p8211
g18
(tRp8212
S'l/lung'
p8213
(lp8214
(tassS'_4'
p8215
g18
(tRp8216
S'c2/cancer'
p8217
(lp8218
(tasS'mod'
p8219
(lp8220
(g8211
tp8221
assS'_3'
p8222
g18
(tRp8223
S'ARG0'
p8224
(lp8225
(g8215
tp8226
asS'c/cause-01'
p8227
(lp8228
(tassS'_2'
p8229
g18
(tRp8230
S'o/old'
p8231
(lp8232
(tassS'_1'
p8233
g18
(tRp8234
S'm/man'
p8235
(lp8236
(tasS'mod'
p8237
(lp8238
(g8229
tp8239
assS'_0'
p8240
g18
(tRp8241
S'd/die-01'
p8242
(lp8243
(tasS'ARG1-of'
p8244
(lp8245
(g8222
tp8246
asS'ARG1'
p8247
(lp8248
(g8233
tp8249
ass(dp8250
g45
I11
sg54
Nsg50
(dp8251
sg60
(dp8252
sg44
I00
sg46
(dp8253
g8240
Nssg48
I0
sg49
Nsg57
(lp8254
g8240
asg52
(dp8255
sg55
(dp8256
sbsS'f'
(lp8257
S'old'
p8258
aS'man'
p8259
aS'died'
p8260
aS'of'
p8261
aS'lung'
p8262
aS'cancer'
p8263
asg64
I0
sg65
I0
sg66
S'[A1-1]'
p8264
sg68
(lp8265
sg70
Nsg71
(lp8266
sbI-1
sg1
(g12
g3
NtRp8267
(dp8268
S'e'
g15
(tRp8269
S'_4'
p8270
g18
(tRp8271
g1
(g214
g3
NtRp8272
(dp8273
g217
I0
sg218
S'A1-1'
p8274
sb(lp8275
(tassS'_3'
p8276
g18
(tRp8277
S'i/immigrate-01'
p8278
(lp8279
(tassS'_2'
p8280
g18
(tRp8281
S'ARG1'
p8282
(lp8283
(g8276
tp8284
asS'r/reform-01'
p8285
(lp8286
(tassS'_1'
p8287
g18
(tRp8288
sS'_0'
p8289
g18
(tRp8290
S'ARG0'
p8291
(lp8292
(g8287
tp8293
asS'ARG1'
p8294
(lp8295
(g8280
tp8296
asS's/speak-01'
p8297
(lp8298
(tasS'ARG3'
p8299
(lp8300
(g8270
tp8301
ass(dp8302
g45
I8
sg54
Nsg50
(dp8303
sg60
(dp8304
sg44
I00
sg46
(dp8305
g8289
Nssg48
I0
sg49
Nsg57
(lp8306
g8289
asg52
(dp8307
g8287
I0
ssg55
(dp8308
I0
S'_1'
p8309
ssbsS'f'
(lp8310
S'immigration'
p8311
aS'reform'
p8312
aS'speech'
p8313
aS'in'
p8314
ag234
asg64
I0
sg65
I0
sg66
g198
sg68
(lp8315
sg70
Nsg71
(lp8316
sbI-1
sg1
(g12
g3
NtRp8317
(dp8318
S'e'
g15
(tRp8319
S'_5'
p8320
g18
(tRp8321
S'5'
(lp8322
(tassS'_4'
p8323
g18
(tRp8324
S'quant'
p8325
(lp8326
(g8320
tp8327
asS'l/language'
p8328
(lp8329
(tassS'_3'
p8330
g18
(tRp8331
g1
(g214
g3
NtRp8332
(dp8333
g217
I0
sg218
S'A1-1'
p8334
sb(lp8335
(tassS'_2'
p8336
g18
(tRp8337
S'ARG0'
p8338
(lp8339
(g8330
tp8340
asS's/speak-01'
p8341
(lp8342
(tasS'ARG3'
p8343
(lp8344
(g8323
tp8345
assS'_1'
p8346
g18
(tRp8347
S'ARG1'
p8348
(lp8349
(g8336
tp8350
asS'b/believe-01'
p8351
(lp8352
(tassS'_0'
p8353
g18
(tRp8354
S'ARG1'
p8355
(lp8356
(g8346
tp8357
asS'h/hard-02'
p8358
(lp8359
(tass(dp8360
g44
I00
sg45
I11
sg46
(dp8361
g8353
Nssg48
I0
sg49
Nsg50
(dp8362
sg52
(dp8363
sg54
Nsg55
(dp8364
sg57
(lp8365
g8353
asg60
(dp8366
sbsS'f'
(lp8367
S'Hard'
p8368
aS'to'
p8369
aS'believe'
p8370
aS'that'
p8371
ag165
aS'speaks'
p8372
aS'5'
aS'languages'
p8373
asg64
I0
sg65
I0
sg66
g165
sg68
(lp8374
sg70
Nsg71
(lp8375
sbI1
sg1
(g12
g3
NtRp8376
(dp8377
S'e'
g15
(tRp8378
S'_4'
p8379
g18
(tRp8380
sS'_3'
p8381
g18
(tRp8382
S'ARG0'
p8383
(lp8384
(S'_1'
tp8385
asS'ARG1'
p8386
(lp8387
(g8379
tp8388
asS'w/watch-01'
p8389
(lp8390
(tassS'_2'
p8391
g18
(tRp8392
S'ARG0'
p8393
(lp8394
(S'_1'
tp8395
asS's/swim-01'
p8396
(lp8397
(tassS'_1'
p8398
g18
(tRp8399
sS'_0'
p8400
g18
(tRp8401
S'p/prefer-01'
p8402
(lp8403
(tasS'ARG0'
p8404
(lp8405
(g8398
tp8406
asS'ARG2'
p8407
(lp8408
(g8381
tp8409
asS'ARG1'
p8410
(lp8411
(g8391
tp8412
ass(dp8413
g45
I9
sg54
Nsg50
(dp8414
sg60
(dp8415
sg44
I00
sg46
(dp8416
g8400
Nssg48
I0
sg49
Nsg57
(lp8417
g8400
asg52
(dp8418
g8379
I1
sg8398
I0
ssg55
(dp8419
I0
S'_1'
p8420
sI1
S'_4'
p8421
ssbsS'f'
(lp8422
S'swimming'
p8423
aS'than'
p8424
aS'watch'
p8425
asg64
I0
sg65
I0
sg66
g231
sg68
(lp8426
sg70
Nsg71
(lp8427
sbI-1
sg1
(g12
g3
NtRp8428
(dp8429
S'e'
g15
(tRp8430
S'_3'
p8431
g18
(tRp8432
g1
(g214
g3
NtRp8433
(dp8434
g217
I0
sg218
S'A1-1'
p8435
sb(lp8436
(tassS'_2'
p8437
g18
(tRp8438
g1
(g214
g3
NtRp8439
(dp8440
g217
I1
sg218
S'A2-10'
p8441
sb(lp8442
(g8431
tp8443
assS'_1'
p8444
g18
(tRp8445
S't/they'
p8446
(lp8447
(tassS'_0'
p8448
g18
(tRp8449
S'ARG0'
p8450
(lp8451
(g8444
tp8452
asS'l/lobby-01'
p8453
(lp8454
(tasS'ARG2'
p8455
(lp8456
(S'_3'
tp8457
asS'ARG1'
p8458
(lp8459
(g8437
tp8460
ass(dp8461
g44
I00
sg45
I7
sg46
(dp8462
g8448
Nssg48
I0
sg49
Nsg50
(dp8463
sg52
(dp8464
sg54
Nsg55
(dp8465
sg57
(lp8466
g8448
asg60
(dp8467
sbsS'f'
(lp8468
S'They'
p8469
aS'lobbied'
p8470
ag165
aS'to'
p8471
ag372
asg64
I0
sg65
I0
sg66
g165
sg68
(lp8472
sg70
Nsg71
(lp8473
sbI1
sg1
(g12
g3
NtRp8474
(dp8475
S'e'
g15
(tRp8476
S'_5'
p8477
g18
(tRp8478
S'c/company'
p8479
(lp8480
(tassS'_4'
p8481
g18
(tRp8482
S'h/he'
p8483
(lp8484
(tassS'_3'
p8485
g18
(tRp8486
S'l/last'
p8487
(lp8488
(tassS'_2'
p8489
g18
(tRp8490
S'10'
p8491
(lp8492
(tassS'_1'
p8493
g18
(tRp8494
S'month'
p8495
(lp8496
(g8489
tp8497
asS'd/date-entity'
p8498
(lp8499
(tasS'mod'
p8500
(lp8501
(g8485
tp8502
assS'_0'
p8503
g18
(tRp8504
S'ARG0'
p8505
(lp8506
(g8481
tp8507
asS'ARG1'
p8508
(lp8509
(g8477
tp8510
asS'time'
p8511
(lp8512
(g8493
tp8513
asS's/sell-01'
p8514
(lp8515
(tass(dp8516
g45
I11
sg54
Nsg50
(dp8517
sg60
(dp8518
sg44
I00
sg46
(dp8519
g8503
Nssg48
I0
sg49
Nsg57
(lp8520
g8503
asg52
(dp8521
sg55
(dp8522
sbsS'f'
(lp8523
S'He'
p8524
aS'sold'
p8525
aS'the'
p8526
aS'company'
p8527
aS'last'
p8528
aS'October'
p8529
asg64
I0
sg65
I0
sg66
S'[A1-1]'
p8530
sg68
(lp8531
sg70
Nsg71
(lp8532
sbI-1
sg1
(g12
g3
NtRp8533
(dp8534
S'e'
g15
(tRp8535
S'_5'
p8536
g18
(tRp8537
g1
(g214
g3
NtRp8538
(dp8539
g217
I1
sg218
S'A1-1'
p8540
sb(lp8541
(tassS'_4'
p8542
g18
(tRp8543
S'"Augustus"'
p8544
(lp8545
(tassS'_3'
p8546
g18
(tRp8547
S'n/name'
p8548
(lp8549
(tasS'op1'
p8550
(lp8551
(g8542
tp8552
assS'_2'
p8553
g18
(tRp8554
S'"Augustus"'
p8555
(lp8556
(tassS'_1'
p8557
g18
(tRp8558
S'p/person'
p8559
(lp8560
(tasS'wiki'
p8561
(lp8562
(g8553
tp8563
asS'name'
p8564
(lp8565
(g8546
tp8566
assS'_0'
p8567
g18
(tRp8568
g1
(g214
g3
NtRp8569
(dp8570
g217
I0
sg218
S'A3-100'
p8571
sb(lp8572
(g8557
g8536
tp8573
ass(dp8574
g44
I00
sg45
I9
sg46
(dp8575
g8567
Nssg48
I0
sg49
Nsg50
(dp8576
sg52
(dp8577
sg54
Nsg55
(dp8578
sg57
(lp8579
g8567
asg60
(dp8580
sbsS'f'
(lp8581
S'Augustus'
p8582
ag1183
ag165
asg64
I0
sg65
I0
sg66
g165
sg68
(lp8583
sg70
Nsg71
(lp8584
sbI1
sg1
(g12
g3
NtRp8585
(dp8586
S'e'
g15
(tRp8587
S'_3'
p8588
g18
(tRp8589
S'"Augustus"'
p8590
(lp8591
(tassS'_2'
p8592
g18
(tRp8593
S'n/name'
p8594
(lp8595
(tasS'op1'
p8596
(lp8597
(g8588
tp8598
assS'_1'
p8599
g18
(tRp8600
S'"Augustus"'
p8601
(lp8602
(tassS'_0'
p8603
g18
(tRp8604
S'p/person'
p8605
(lp8606
(tasS'wiki'
p8607
(lp8608
(g8599
tp8609
asS'name'
p8610
(lp8611
(g8592
tp8612
ass(dp8613
g45
I7
sg54
Nsg50
(dp8614
sg60
(dp8615
sg44
I00
sg46
(dp8616
sg48
I0
sg49
Nsg57
(lp8617
S'_0'
p8618
asg52
(dp8619
sg55
(dp8620
sbsS'f'
(lp8621
S'Augustus'
p8622
asg64
I0
sg65
I0
sg66
g234
sg68
(lp8623
sg70
Nsg71
(lp8624
sbI-1
sg1
(g12
g3
NtRp8625
(dp8626
S'e'
g15
(tRp8627
S'_5'
p8628
g18
(tRp8629
S'd/dollar'
p8630
(lp8631
(tassS'_4'
p8632
g18
(tRp8633
S'42000'
p8634
(lp8635
(tassS'_3'
p8636
g18
(tRp8637
S'quant'
p8638
(lp8639
(g8632
tp8640
asS'unit'
p8641
(lp8642
(g8628
tp8643
asS'm/monetary-quantity'
p8644
(lp8645
(tassS'_2'
p8646
g18
(tRp8647
g1
(g214
g3
NtRp8648
(dp8649
g217
I0
sg218
S'A2-10'
p8650
sb(lp8651
(g8636
tp8652
assS'_1'
p8653
g18
(tRp8654
S'h/he'
p8655
(lp8656
(tassS'_0'
p8657
g18
(tRp8658
S'ARG0'
p8659
(lp8660
(g8653
tp8661
asS'ARG1'
p8662
(lp8663
(g8646
tp8664
asS'e/earn-01'
p8665
(lp8666
(tass(dp8667
g44
I00
sg45
I10
sg46
(dp8668
g8657
Nssg48
I0
sg49
Nsg50
(dp8669
sg52
(dp8670
sg54
Nsg55
(dp8671
sg57
(lp8672
g8657
asg60
(dp8673
sbsS'f'
(lp8674
S'He'
p8675
aS'earns'
p8676
aS'$'
aS'42,000'
p8677
aS'per'
p8678
ag372
asg64
I0
sg65
I0
sg66
g165
sg68
(lp8679
sg70
Nsg71
(lp8680
sbI1
sg1
(g12
g3
NtRp8681
(dp8682
S'e'
g15
(tRp8683
S'_4'
p8684
g18
(tRp8685
S'm2/month'
p8686
(lp8687
(tassS'_3'
p8688
g18
(tRp8689
S'3'
(lp8690
(tassS'_2'
p8691
g18
(tRp8692
S'quant'
p8693
(lp8694
(g8688
tp8695
asS't/temporal-quantity'
p8696
(lp8697
(tasS'unit'
p8698
(lp8699
(g8684
tp8700
assS'_1'
p8701
g18
(tRp8702
S'n/now'
p8703
(lp8704
(tassS'_0'
p8705
g18
(tRp8706
S'duration'
p8707
(lp8708
(g8691
tp8709
asS'b/before'
p8710
(lp8711
(tasS'op1'
p8712
(lp8713
(g8701
tp8714
ass(dp8715
g44
I00
sg45
I9
sg46
(dp8716
g8705
Nssg48
I0
sg49
Nsg50
(dp8717
sg52
(dp8718
sg54
Nsg55
(dp8719
sg57
(lp8720
g8705
asg60
(dp8721
sbsS'f'
(lp8722
S'last'
p8723
aS'3'
aS'months'
p8724
asg64
I0
sg65
I0
sg66
g165
sg68
(lp8725
sg70
Nsg71
(lp8726
sbI1
sg1
(g12
g3
NtRp8727
(dp8728
S'e'
g15
(tRp8729
S'_3'
p8730
g18
(tRp8731
g1
(g214
g3
NtRp8732
(dp8733
g217
I1
sg218
S'A1-1'
p8734
sb(lp8735
(tassS'_2'
p8736
g18
(tRp8737
g1
(g214
g3
NtRp8738
(dp8739
g217
I0
sg218
S'A1-1'
p8740
sb(lp8741
(tassS'_1'
p8742
g18
(tRp8743
S'i/i'
p8744
(lp8745
(tassS'_0'
p8746
g18
(tRp8747
S'ARG0'
p8748
(lp8749
(g8742
tp8750
asS'g/go-02'
p8751
(lp8752
(tasS'ARG4'
p8753
(lp8754
(g8736
tp8755
asS'path'
p8756
(lp8757
(g8730
tp8758
ass(dp8759
g45
I7
sg54
Nsg50
(dp8760
sg60
(dp8761
sg44
I00
sg46
(dp8762
g8746
Nssg48
I0
sg49
Nsg57
(lp8763
g8746
asg52
(dp8764
sg55
(dp8765
sbsS'f'
(lp8766
S'I'
aS'went'
p8767
aS'to'
p8768
ag234
aS'via'
p8769
ag234
asg64
I0
sg65
I0
sg66
g234
sg68
(lp8770
sg70
Nsg71
(lp8771
sbI-1
sg1
(g12
g3
NtRp8772
(dp8773
S'e'
g15
(tRp8774
S'_5'
p8775
g18
(tRp8776
sS'_4'
p8777
g18
(tRp8778
S'222'
p8779
(lp8780
(tassS'_3'
p8781
g18
(tRp8782
S'op2'
p8783
(lp8784
(g8775
tp8785
asS'op1'
p8786
(lp8787
(g8777
tp8788
asS's/score-entity'
p8789
(lp8790
(tassS'_2'
p8791
g18
(tRp8792
sS'_1'
p8793
g18
(tRp8794
sS'_0'
p8795
g18
(tRp8796
S'ARG0'
p8797
(lp8798
(g8793
tp8799
asS'ARG1'
p8800
(lp8801
(g8791
tp8802
asS'v/vote-01'
p8803
(lp8804
(tasS'ARG2'
p8805
(lp8806
(g8781
tp8807
ass(dp8808
g44
I00
sg45
I8
sg46
(dp8809
g8795
Nssg48
I0
sg49
Nsg50
(dp8810
sg52
(dp8811
g8775
I2
sg8791
I1
sg8793
I0
ssg54
Nsg55
(dp8812
I0
S'_1'
p8813
sI1
S'_2'
p8814
sI2
S'_5'
p8815
ssg57
(lp8816
g8795
asg60
(dp8817
sbsS'f'
(lp8818
S'voted'
p8819
aS'222'
p8820
asg64
I0
sg65
I0
sg66
g1686
sg68
(lp8821
sg70
Nsg71
(lp8822
sbI1
sg1
(g12
g3
NtRp8823
(dp8824
S'e'
g15
(tRp8825
S'_6'
p8826
g18
(tRp8827
S'"Victoria"'
p8828
(lp8829
(tassS'_5'
p8830
g18
(tRp8831
S'n2/name'
p8832
(lp8833
(tasS'op1'
p8834
(lp8835
(g8826
tp8836
assS'_4'
p8837
g18
(tRp8838
S'-'
(lp8839
(tassS'_3'
p8840
g18
(tRp8841
S'wiki'
p8842
(lp8843
(g8837
tp8844
asS'p2/person'
p8845
(lp8846
(tasS'name'
p8847
(lp8848
(g8830
tp8849
assS'_2'
p8850
g18
(tRp8851
S'h2/half'
p8852
(lp8853
(tassS'_1'
p8854
g18
(tRp8855
S'degree'
p8856
(lp8857
(g8850
tp8858
assS'_0'
p8859
g18
(tRp8860
S'p/person'
p8861
(lp8862
(tasg1
(g214
g3
NtRp8863
(dp8864
g217
I0
sg218
S'A2-01'
p8865
sb(lp8866
(g8854
tp8867
asS'domain'
p8868
(lp8869
(g8840
tp8870
ass(dp8871
g44
I00
sg45
I12
sg46
(dp8872
g8859
Nssg48
I0
sg49
Nsg50
(dp8873
sg52
(dp8874
sg54
Nsg55
(dp8875
sg57
(lp8876
g8859
asg60
(dp8877
sbsS'f'
(lp8878
S'Victoria'
p8879
aS'is'
p8880
aS'half'
p8881
aS'[A2-01]'
p8882
asg64
I0
sg65
I0
sg66
g165
sg68
(lp8883
sg70
Nsg71
(lp8884
sbI1
sg1
(g12
g3
NtRp8885
(dp8886
S'e'
g15
(tRp8887
S'_5'
p8888
g18
(tRp8889
S'3000'
p8890
(lp8891
(tassS'_4'
p8892
g18
(tRp8893
S'm/mile'
p8894
(lp8895
(tassS'_3'
p8896
g18
(tRp8897
S'quant'
p8898
(lp8899
(g8888
tp8900
asS'unit'
p8901
(lp8902
(g8892
tp8903
asS'd/distance-quantity'
p8904
(lp8905
(tassS'_2'
p8906
g18
(tRp8907
S'ARG3'
p8908
(lp8909
(g8896
tp8910
asS'r2/rate-entity-91'
p8911
(lp8912
(tassS'_1'
p8913
g18
(tRp8914
S'o/oil'
p8915
(lp8916
(tassS'_0'
p8917
g18
(tRp8918
S'c/change-01'
p8919
(lp8920
(tasS'frequency'
p8921
(lp8922
(g8906
tp8923
asS'ARG1'
p8924
(lp8925
(g8913
tp8926
ass(dp8927
g44
I00
sg45
I11
sg46
(dp8928
g8917
Nssg48
I0
sg49
Nsg50
(dp8929
sg52
(dp8930
sg54
Nsg55
(dp8931
sg57
(lp8932
g8917
asg60
(dp8933
sbsS'f'
(lp8934
S'oil'
p8935
aS'change'
p8936
aS'every'
p8937
aS'3,000'
p8938
aS'miles'
p8939
asg64
I0
sg65
I0
sg66
g165
sg68
(lp8940
sg70
Nsg71
(lp8941
sbI1
sg1
(g12
g3
NtRp8942
(dp8943
S'e'
g15
(tRp8944
S'_2'
p8945
g18
(tRp8946
g1
(g214
g3
NtRp8947
(dp8948
g217
I0
sg218
S'A1-1'
p8949
sb(lp8950
(tassS'_1'
p8951
g18
(tRp8952
g1
(g214
g3
NtRp8953
(dp8954
g217
I1
sg218
S'A1-1'
p8955
sb(lp8956
(tasS'poss'
p8957
(lp8958
(g8945
tp8959
assS'_0'
p8960
g18
(tRp8961
g1
(g214
g3
NtRp8962
(dp8963
g217
I2
sg218
S'A2-10'
p8964
sb(lp8965
(g8951
tp8966
ass(dp8967
g44
I00
sg45
I4
sg46
(dp8968
g8960
Nssg48
I0
sg49
Nsg50
(dp8969
sg52
(dp8970
sg54
Nsg55
(dp8971
sg57
(lp8972
g8960
asg60
(dp8973
sbsS'f'
(lp8974
g6281
ag6281
aS'[A2-10]'
p8975
asg64
I0
sg65
I0
sg66
g6281
sg68
(lp8976
sg70
Nsg71
(lp8977
sbI1
sg1
(g12
g3
NtRp8978
(dp8979
S'e'
g15
(tRp8980
S'_7'
p8981
g18
(tRp8982
S'd2/date-entity'
p8983
(lp8984
(tassS'_6'
p8985
g18
(tRp8986
S'"800"'
p8987
(lp8988
(tassS'_5'
p8989
g18
(tRp8990
S'd/date-entity'
p8991
(lp8992
(tasS'time'
p8993
(lp8994
(g8985
tp8995
assS'_4'
p8996
g18
(tRp8997
g1
(g214
g3
NtRp8998
(dp8999
g217
I1
sg218
S'A3-100'
p9000
sb(lp9001
(g8989
g8981
tp9002
assS'_3'
p9003
g18
(tRp9004
g1
(g214
g3
NtRp9005
(dp9006
g217
I0
sg218
S'A2-10'
p9007
sb(lp9008
(g8996
tp9009
assS'_2'
p9010
g18
(tRp9011
S'i/i'
p9012
(lp9013
(tassS'_1'
p9014
g18
(tRp9015
S'h/he'
p9016
(lp9017
(tassS'_0'
p9018
g18
(tRp9019
S'c/call-02'
p9020
(lp9021
(tasS'ARG0'
p9022
(lp9023
(g9014
tp9024
asS'frequency'
p9025
(lp9026
(g9003
tp9027
asS'ARG1'
p9028
(lp9029
(g9010
tp9030
ass(dp9031
g45
I12
sg54
Nsg50
(dp9032
sg60
(dp9033
sg44
I00
sg46
(dp9034
g9018
Nssg48
I0
sg49
Nsg57
(lp9035
g9018
asg52
(dp9036
sg55
(dp9037
sbsS'f'
(lp9038
S'He'
p9039
aS'calls'
p9040
aS'me'
p9041
aS'every'
p9042
ag198
aS'at'
p9043
aS'8'
aS'am'
p9044
ag231
asg64
I0
sg65
I0
sg66
g234
sg68
(lp9045
sg70
Nsg71
(lp9046
sbI-1
sg1
(g12
g3
NtRp9047
(dp9048
S'e'
g15
(tRp9049
S'_8'
p9050
g18
(tRp9051
S'20006'
p9052
(lp9053
(tassS'_7'
p9054
g18
(tRp9055
S'"DC"'
p9056
(lp9057
(tassS'_6'
p9058
g18
(tRp9059
S'n3/name'
p9060
(lp9061
(tasS'op1'
p9062
(lp9063
(g9054
tp9064
assS'_5'
p9065
g18
(tRp9066
S'"Washington,_D.C."'
p9067
(lp9068
(tassS'_4'
p9069
g18
(tRp9070
S'wiki'
p9071
(lp9072
(g9065
tp9073
asS'd/district'
p9074
(lp9075
(tasS'name'
p9076
(lp9077
(g9058
tp9078
assS'_3'
p9079
g18
(tRp9080
g1
(g214
g3
NtRp9081
(dp9082
g217
I1
sg218
S'A1-1'
p9083
sb(lp9084
(tassS'_2'
p9085
g18
(tRp9086
g1
(g214
g3
NtRp9087
(dp9088
g217
I0
sg218
S'A1-1'
p9089
sb(lp9090
(tassS'_1'
p9091
g18
(tRp9092
S'1600'
p9093
(lp9094
(tassS'_0'
p9095
g18
(tRp9096
g1
(g214
g3
NtRp9097
(dp9098
g217
I2
sg218
S'A6-100000'
p9099
sb(lp9100
(g9091
g9085
g9079
g9069
g9050
tp9101
ass(dp9102
g45
I12
sg54
Nsg50
(dp9103
sg60
(dp9104
sg44
I00
sg46
(dp9105
g9095
Nssg48
I0
sg49
Nsg57
(lp9106
g9095
asg52
(dp9107
sg55
(dp9108
sbsS'f'
(lp9109
S'1600'
p9110
ag234
aS','
ag234
aS','
aS'DC'
p9111
aS'[A6-100000]'
p9112
aS'20006'
p9113
asg64
I0
sg65
I0
sg66
g234
sg68
(lp9114
sg70
Nsg71
(lp9115
sbI-1
sg1
(g12
g3
NtRp9116
(dp9117
S'e'
g15
(tRp9118
S'_6'
p9119
g18
(tRp9120
sS'_5'
p9121
g18
(tRp9122
S'x3/3'
p9123
(lp9124
(tassS'_4'
p9125
g18
(tRp9126
g1
(g214
g3
NtRp9127
(dp9128
g217
I2
sg218
S'A1-1'
p9129
sb(lp9130
(tasS'li'
p9131
(lp9132
(g9121
tp9133
assS'_3'
p9134
g18
(tRp9135
g1
(g214
g3
NtRp9136
(dp9137
g217
I1
sg218
S'A1-1'
p9138
sb(lp9139
(tassS'_2'
p9140
g18
(tRp9141
S'x/1'
p9142
(lp9143
(tassS'_1'
p9144
g18
(tRp9145
S'li'
p9146
(lp9147
(g9140
tp9148
assS'_0'
p9149
g18
(tRp9150
g1
(g214
g3
NtRp9151
(dp9152
g217
I0
sg218
S'A5-11000'
p9153
sb(lp9154
(g9144
g9134
g9125
g9119
tp9155
ass(dp9156
g44
I00
sg45
I7
sg46
(dp9157
g9149
Nssg48
I0
sg49
Nsg50
(dp9158
sg52
(dp9159
S'_6'
p9160
I0
ssg54
Nsg55
(dp9161
I0
g9160
ssg57
(lp9162
g9149
asg60
(dp9163
sbsS'f'
(lp9164
S'1'
aS')'
ag3051
aS')'
ag165
aS'('
aS'3'
aS')'
ag165
asg64
I0
sg65
I0
sg66
g372
sg68
(lp9165
sg70
Nsg71
(lp9166
sbI1
sg1
(g12
g3
NtRp9167
(dp9168
S'e'
g15
(tRp9169
S'_7'
p9170
g18
(tRp9171
S'g/governor'
p9172
(lp9173
(tassS'_6'
p9174
g18
(tRp9175
sS'_5'
p9176
g18
(tRp9177
S'ARG1'
p9178
(lp9179
(g9174
tp9180
asS'h/have-org-role-91'
p9181
(lp9182
(tasS'ARG2'
p9183
(lp9184
(g9170
tp9185
assS'_4'
p9186
g18
(tRp9187
S'"Brown"'
p9188
(lp9189
(tassS'_3'
p9190
g18
(tRp9191
S'"Jerry"'
p9192
(lp9193
(tassS'_2'
p9194
g18
(tRp9195
S'n/name'
p9196
(lp9197
(tasS'op1'
p9198
(lp9199
(g9190
tp9200
asS'op2'
p9201
(lp9202
(g9186
tp9203
assS'_1'
p9204
g18
(tRp9205
S'"Jerry_Brown"'
p9206
(lp9207
(tassS'_0'
p9208
g18
(tRp9209
S'p/person'
p9210
(lp9211
(tasS'wiki'
p9212
(lp9213
(g9204
tp9214
asS'name'
p9215
(lp9216
(g9194
tp9217
asS'ARG0-of'
p9218
(lp9219
(g9176
tp9220
ass(dp9221
g44
I00
sg45
I14
sg46
(dp9222
g9208
Nssg48
I0
sg49
Nsg50
(dp9223
sg52
(dp9224
g9174
I0
ssg54
Nsg55
(dp9225
I0
S'_6'
p9226
ssg57
(lp9227
g9208
asg60
(dp9228
sbsS'f'
(lp9229
S'governor'
p9230
aS'Jerry'
p9231
aS'Brown'
p9232
asg64
I0
sg65
I0
sg66
g372
sg68
(lp9233
sg70
Nsg71
(lp9234
sbI1
sg1
(g12
g3
NtRp9235
(dp9236
S'e'
g15
(tRp9237
S'_6'
p9238
g18
(tRp9239
S'm2/machine'
p9240
(lp9241
(tassS'_5'
p9242
g18
(tRp9243
S'2'
(lp9244
(tassS'_4'
p9245
g18
(tRp9246
S'g/gun'
p9247
(lp9248
(tasS'quant'
p9249
(lp9250
(g9242
tp9251
asS'mod'
p9252
(lp9253
(g9238
tp9254
assS'_3'
p9255
g18
(tRp9256
g1
(g214
g3
NtRp9257
(dp9258
g217
I0
sg218
S'A1-1'
p9259
sb(lp9260
(tassS'_2'
p9261
g18
(tRp9262
S'a/and'
p9263
(lp9264
(tasS'op1'
p9265
(lp9266
(g9255
tp9267
asS'op2'
p9268
(lp9269
(g9245
tp9270
assS'_1'
p9271
g18
(tRp9272
S'p/police'
p9273
(lp9274
(tassS'_0'
p9275
g18
(tRp9276
S'ARG0'
p9277
(lp9278
(g9271
tp9279
asS'ARG1'
p9280
(lp9281
(g9261
tp9282
asS's/seize-01'
p9283
(lp9284
(tass(dp9285
g45
I13
sg54
Nsg50
(dp9286
sg60
(dp9287
sg44
I00
sg46
(dp9288
g9275
Nssg48
I0
sg49
Nsg57
(lp9289
g9275
asg52
(dp9290
sg55
(dp9291
sbsS'f'
(lp9292
S'Police'
p9293
aS'seized'
p9294
ag234
aS'as'
p9295
aS'well'
p9296
aS'as'
p9297
aS'two'
p9298
aS'machine'
p9299
aS'guns'
p9300
asg64
I0
sg65
I0
sg66
g234
sg68
(lp9301
sg70
Nsg71
(lp9302
sbI-1
sg1
(g12
g3
NtRp9303
(dp9304
S'e'
g15
(tRp9305
S'_3'
p9306
g18
(tRp9307
S'1945'
p9308
(lp9309
(tassS'_2'
p9310
g18
(tRp9311
S'd3/date-entity'
p9312
(lp9313
(tasS'year'
p9314
(lp9315
(g9306
tp9316
assS'_1'
p9317
g18
(tRp9318
S'w/war'
p9319
(lp9320
(tassS'_0'
p9321
g18
(tRp9322
S'ARG0'
p9323
(lp9324
(g9317
tp9325
asg1
(g214
g3
NtRp9326
(dp9327
g217
I0
sg218
S'A2-00'
p9328
sb(lp9329
(g9310
tp9330
asS'r/rage-02'
p9331
(lp9332
(tass(dp9333
g44
I00
sg45
I7
sg46
(dp9334
g9321
Nssg48
I0
sg49
Nsg50
(dp9335
sg52
(dp9336
sg54
Nsg55
(dp9337
sg57
(lp9338
g9321
asg60
(dp9339
sbsS'f'
(lp9340
S'war'
p9341
aS'raged'
p9342
ag3420
aS'through'
p9343
aS'1945'
p9344
asg64
I0
sg65
I0
sg66
g165
sg68
(lp9345
sg70
Nsg71
(lp9346
sbI1
sg1
(g12
g3
NtRp9347
(dp9348
S'e'
g15
(tRp9349
S'_4'
p9350
g18
(tRp9351
sS'_3'
p9352
g18
(tRp9353
S'ARG0'
p9354
(lp9355
(g9350
tp9356
asS'r/revolution-03'
p9357
(lp9358
(tassS'_2'
p9359
g18
(tRp9360
S'11'
p9361
(lp9362
(tassS'_1'
p9363
g18
(tRp9364
S'month'
p9365
(lp9366
(g9359
tp9367
assS'_0'
p9368
g18
(tRp9369
S'ARG1'
p9370
(lp9371
(g9352
tp9372
asS's/start-01'
p9373
(lp9374
(tasS'time'
p9375
(lp9376
(g9363
tp9377
ass(dp9378
g45
I7
sg54
Nsg50
(dp9379
sg60
(dp9380
sg44
I00
sg46
(dp9381
g9368
Nssg48
I0
sg49
Nsg57
(lp9382
g9368
asg52
(dp9383
g9350
I0
sg9363
I1
ssg55
(dp9384
I0
S'_4'
p9385
sI1
S'_1'
p9386
ssbsS'f'
(lp9387
S'revolution'
p9388
aS'started'
p9389
aS'on'
p9390
aS'Novmber'
p9391
asg64
I0
sg65
I0
sg66
S'[A3-100]'
p9392
sg68
(lp9393
sg70
Nsg71
(lp9394
sbI-1
sg1
(g12
g3
NtRp9395
(dp9396
S'e'
g15
(tRp9397
S'_3'
p9398
g18
(tRp9399
S'ARG0'
p9400
(lp9401
(S'_2'
tp9402
asS'l/leave-11'
p9403
(lp9404
(tassS'_2'
p9405
g18
(tRp9406
S'b/boy'
p9407
(lp9408
(tassS'_1'
p9409
g18
(tRp9410
S'ARG1'
p9411
(lp9412
(g9405
tp9413
asS'c/come-01'
p9414
(lp9415
(tassS'_0'
p9416
g18
(tRp9417
S'a/and'
p9418
(lp9419
(tasS'op1'
p9420
(lp9421
(g9409
tp9422
asS'op2'
p9423
(lp9424
(g9398
tp9425
ass(dp9426
g45
I8
sg54
Nsg50
(dp9427
sg60
(dp9428
sg44
I00
sg46
(dp9429
g9416
Nssg48
I0
sg49
Nsg57
(lp9430
g9416
asg52
(dp9431
sg55
(dp9432
sbsS'f'
(lp9433
S'boy'
p9434
aS'came'
p9435
aS'and'
p9436
aS'left'
p9437
asg64
I0
sg65
I0
sg66
g234
sg68
(lp9438
sg70
Nsg71
(lp9439
sbI-1
sg1
(g12
g3
NtRp9440
(dp9441
S'e'
g15
(tRp9442
S'_6'
p9443
g18
(tRp9444
S'"Manx"'
p9445
(lp9446
(tassS'_5'
p9447
g18
(tRp9448
S'n/name'
p9449
(lp9450
(tasS'op1'
p9451
(lp9452
(g9443
tp9453
assS'_4'
p9454
g18
(tRp9455
S'"Manx_language"'
p9456
(lp9457
(tassS'_3'
p9458
g18
(tRp9459
S'wiki'
p9460
(lp9461
(g9454
tp9462
asS'name'
p9463
(lp9464
(g9447
tp9465
asS'l/language'
p9466
(lp9467
(tassS'_2'
p9468
g18
(tRp9469
S'a/audience'
p9470
(lp9471
(tassS'_1'
p9472
g18
(tRp9473
S'h/he'
p9474
(lp9475
(tassS'_0'
p9476
g18
(tRp9477
S'ARG0'
p9478
(lp9479
(g9472
tp9480
asS'ARG1'
p9481
(lp9482
(g9458
tp9483
asS's/speak-01'
p9484
(lp9485
(tasS'ARG2'
p9486
(lp9487
(g9468
tp9488
ass(dp9489
g44
I00
sg45
I13
sg46
(dp9490
g9476
Nssg48
I0
sg49
Nsg50
(dp9491
sg52
(dp9492
sg54
Nsg55
(dp9493
sg57
(lp9494
g9476
asg60
(dp9495
sbsS'f'
(lp9496
S'He'
p9497
aS'spoke'
p9498
aS'to'
p9499
aS'the'
p9500
aS'audience'
p9501
aS'about'
p9502
aS'Manx'
p9503
asg64
I0
sg65
I0
sg66
g165
sg68
(lp9504
sg70
Nsg71
(lp9505
sbI1
sg1
(g12
g3
NtRp9506
(dp9507
S'e'
g15
(tRp9508
S'_4'
p9509
g18
(tRp9510
S's2/sound'
p9511
(lp9512
(tassS'_3'
p9513
g18
(tRp9514
g1
(g214
g3
NtRp9515
(dp9516
g217
I0
sg218
S'A2-10'
p9517
sb(lp9518
(g9509
tp9519
assS'_2'
p9520
g18
(tRp9521
S'a/aircraft'
p9522
(lp9523
(tassS'_1'
p9524
g18
(tRp9525
S'v/velocity'
p9526
(lp9527
(tasS'poss'
p9528
(lp9529
(g9520
tp9530
assS'_0'
p9531
g18
(tRp9532
S'ARG0'
p9533
(lp9534
(g9524
tp9535
asS'ARG1'
p9536
(lp9537
(g9513
tp9538
asS'r/reach-01'
p9539
(lp9540
(tass(dp9541
g44
I00
sg45
I8
sg46
(dp9542
g9531
Nssg48
I0
sg49
Nsg50
(dp9543
sg52
(dp9544
sg54
Nsg55
(dp9545
sg57
(lp9546
g9531
asg60
(dp9547
sbsS'f'
(lp9548
S'aircraft'
p9549
aS"'s"
p9550
aS'velocity'
p9551
aS'reached'
p9552
ag372
aS'sound'
p9553
asg64
I0
sg65
I0
sg66
g165
sg68
(lp9554
sg70
Nsg71
(lp9555
sbI1
sg1
(g12
g3
NtRp9556
(dp9557
S'e'
g15
(tRp9558
S'_6'
p9559
g18
(tRp9560
S's/special-02'
p9561
(lp9562
(tassS'_5'
p9563
g18
(tRp9564
S'h/have-org-role-91'
p9565
(lp9566
(tassS'_4'
p9567
g18
(tRp9568
S'g/governor'
p9569
(lp9570
(tasS'ARG2-of'
p9571
(lp9572
(g9563
tp9573
assS'_3'
p9574
g18
(tRp9575
S'n/next'
p9576
(lp9577
(tassS'_2'
p9578
g18
(tRp9579
S't/tuesday'
p9580
(lp9581
(tassS'_1'
p9582
g18
(tRp9583
S'd/date-entity'
p9584
(lp9585
(tasS'weekday'
p9586
(lp9587
(g9578
tp9588
asS'mod'
p9589
(lp9590
(g9574
tp9591
assS'_0'
p9592
g18
(tRp9593
S'ARG2'
p9594
(lp9595
(g9567
tp9596
asS'e/elect-01'
p9597
(lp9598
(tasS'ARG1-of'
p9599
(lp9600
(g9559
tp9601
asS'time'
p9602
(lp9603
(g9582
tp9604
ass(dp9605
g45
I13
sg54
Nsg50
(dp9606
sg60
(dp9607
sg44
I00
sg46
(dp9608
g9592
Nssg48
I0
sg49
Nsg57
(lp9609
g9592
asg52
(dp9610
sg55
(dp9611
sbsS'f'
(lp9612
S'special'
p9613
aS'gubernatorial'
p9614
aS'election'
p9615
aS'will'
p9616
aS'take'
p9617
aS'place'
p9618
aS'next'
p9619
aS'Tuesday'
p9620
asg64
I0
sg65
I0
sg66
g234
sg68
(lp9621
sg70
Nsg71
(lp9622
sbI-1
sg1
(g12
g3
NtRp9623
(dp9624
S'e'
g15
(tRp9625
S'_5'
p9626
g18
(tRp9627
S't2/tomorrow'
p9628
(lp9629
(tassS'_4'
p9630
g18
(tRp9631
S'2'
(lp9632
(tassS'_3'
p9633
g18
(tRp9634
S'w/week'
p9635
(lp9636
(tassS'_2'
p9637
g18
(tRp9638
S't3/temporal-quantity'
p9639
(lp9640
(tasS'quant'
p9641
(lp9642
(g9630
tp9643
asS'unit'
p9644
(lp9645
(g9633
tp9646
assS'_1'
p9647
g18
(tRp9648
S'quant'
p9649
(lp9650
(g9637
tp9651
asS'a/after'
p9652
(lp9653
(tasS'op1'
p9654
(lp9655
(g9626
tp9656
assS'_0'
p9657
g18
(tRp9658
g1
(g214
g3
NtRp9659
(dp9660
g217
I0
sg218
S'A1-1'
p9661
sb(lp9662
(tasS'time'
p9663
(lp9664
(g9647
tp9665
ass(dp9666
g44
I00
sg45
I11
sg46
(dp9667
g9657
Nssg48
I0
sg49
Nsg50
(dp9668
sg52
(dp9669
sg54
Nsg55
(dp9670
sg57
(lp9671
g9657
asg60
(dp9672
sbsS'f'
(lp9673
g165
aS'two'
p9674
aS'weeks'
p9675
aS'from'
p9676
aS'tomorrow'
p9677
asg64
I0
sg65
I0
sg66
g165
sg68
(lp9678
sg70
Nsg71
(lp9679
sbI1
sg1
(g12
g3
NtRp9680
(dp9681
S'e'
g15
(tRp9682
S'_6'
p9683
g18
(tRp9684
S'n/nacho'
p9685
(lp9686
(tassS'_5'
p9687
g18
(tRp9688
S'p2/president'
p9689
(lp9690
(tassS'_4'
p9691
g18
(tRp9692
S'52'
p9693
(lp9694
(tassS'_3'
p9695
g18
(tRp9696
S'y/year'
p9697
(lp9698
(tassS'_2'
p9699
g18
(tRp9700
S'quant'
p9701
(lp9702
(g9691
tp9703
asS'unit'
p9704
(lp9705
(g9695
tp9706
asS't/temporal-quantity'
p9707
(lp9708
(tassS'_1'
p9709
g18
(tRp9710
S'p/person'
p9711
(lp9712
(tasS'age'
p9713
(lp9714
(g9699
tp9715
assS'_0'
p9716
g18
(tRp9717
g1
(g214
g3
NtRp9718
(dp9719
g217
I0
sg218
S'A4-1000'
p9720
sb(lp9721
(g9709
g9687
g9683
tp9722
ass(dp9723
g45
I10
sg54
Nsg50
(dp9724
sg60
(dp9725
sg44
I00
sg46
(dp9726
g9716
Nssg48
I0
sg49
Nsg57
(lp9727
g9716
asg52
(dp9728
sg55
(dp9729
sbsS'f'
(lp9730
S'52'
p9731
aS'@-@'
p9732
aS'year'
p9733
aS'@-@'
p9734
aS'old'
p9735
aS'president'
p9736
ag4006
aS'nachos'
p9737
asg64
I0
sg65
I0
sg66
g234
sg68
(lp9738
sg70
Nsg71
(lp9739
sbI-1
sg1
(g12
g3
NtRp9740
(dp9741
S'e'
g15
(tRp9742
S'_5'
p9743
g18
(tRp9744
S'r/resign-01'
p9745
(lp9746
(tasS'ARG0'
p9747
(lp9748
(S'_2'
tp9749
asS'ARG1'
p9750
(lp9751
(S'_4'
tp9752
assS'_4'
p9753
g18
(tRp9754
sS'_3'
p9755
g18
(tRp9756
S'h/have-org-role-91'
p9757
(lp9758
(tasS'ARG2'
p9759
(lp9760
(g9753
tp9761
assS'_2'
p9762
g18
(tRp9763
S'p2/person'
p9764
(lp9765
(tasS'ARG0-of'
p9766
(lp9767
(g9755
tp9768
assS'_1'
p9769
g18
(tRp9770
sS'_0'
p9771
g18
(tRp9772
S'ARG0'
p9773
(lp9774
(g9762
tp9775
asS'ARG1'
p9776
(lp9777
(g9743
tp9778
asS'medium'
p9779
(lp9780
(g9769
tp9781
asS'a/announce-01'
p9782
(lp9783
(tass(dp9784
g45
I11
sg54
Nsg50
(dp9785
sg60
(dp9786
sg44
I00
sg46
(dp9787
g9771
Nssg48
I0
sg49
Nsg57
(lp9788
g9771
asg52
(dp9789
g9753
I0
sg9769
I1
ssg55
(dp9790
I0
S'_4'
p9791
sI1
S'_1'
p9792
ssbsS'f'
(lp9793
S'announced'
p9794
aS'his'
p9795
aS'resignation'
p9796
aS'on'
p9797
asg64
I0
sg65
I0
sg66
g4503
sg68
(lp9798
sg70
Nsg71
(lp9799
sbI-1
sg1
(g12
g3
NtRp9800
(dp9801
S'e'
g15
(tRp9802
S'_5'
p9803
g18
(tRp9804
S'"China"'
p9805
(lp9806
(tassS'_4'
p9807
g18
(tRp9808
S'n/name'
p9809
(lp9810
(tasS'op1'
p9811
(lp9812
(g9803
tp9813
assS'_3'
p9814
g18
(tRp9815
S'"China"'
p9816
(lp9817
(tassS'_2'
p9818
g18
(tRp9819
S'wiki'
p9820
(lp9821
(g9814
tp9822
asS'c/country'
p9823
(lp9824
(tasS'name'
p9825
(lp9826
(g9807
tp9827
assS'_1'
p9828
g18
(tRp9829
S'ARG2'
p9830
(lp9831
(g9818
tp9832
asS'h/have-mod-91'
p9833
(lp9834
(tassS'_0'
p9835
g18
(tRp9836
S'ARG1-of'
p9837
(lp9838
(g9828
tp9839
ass(dp9840
g44
I00
sg45
I10
sg46
(dp9841
g9835
Nssg48
I0
sg49
Nsg50
(dp9842
sg52
(dp9843
g9828
I0
ssg54
Nsg55
(dp9844
I0
S'_1'
p9845
ssg57
(lp9846
g9835
asg60
(dp9847
sbsS'f'
(lp9848
S'Chinese'
p9849
asg64
I0
sg65
I0
sg66
g8882
sg68
(lp9850
sg70
Nsg71
(lp9851
sbI1
sg1
(g12
g3
NtRp9852
(dp9853
S'e'
g15
(tRp9854
S'_3'
p9855
g18
(tRp9856
g1
(g214
g3
NtRp9857
(dp9858
g217
I0
sg218
S'A1-1'
p9859
sb(lp9860
(tassS'_2'
p9861
g18
(tRp9862
S'2008'
p9863
(lp9864
(tassS'_1'
p9865
g18
(tRp9866
S'd/date-entity'
p9867
(lp9868
(tasS'year'
p9869
(lp9870
(g9861
tp9871
assS'_0'
p9872
g18
(tRp9873
g1
(g214
g3
NtRp9874
(dp9875
g217
I1
sg218
S'A2-10'
p9876
sb(lp9877
(g9855
tp9878
asS'time'
p9879
(lp9880
(g9865
tp9881
ass(dp9882
g45
I6
sg54
Nsg50
(dp9883
sg60
(dp9884
sg44
I00
sg46
(dp9885
g9872
Nssg48
I0
sg49
Nsg57
(lp9886
g9872
asg52
(dp9887
sg55
(dp9888
sbsS'f'
(lp9889
g234
aS'was'
p9890
ag198
aS'in'
p9891
aS'2008'
p9892
asg64
I0
sg65
I0
sg66
g234
sg68
(lp9893
sg70
Nsg71
(lp9894
sbI-1
sg1
(g12
g3
NtRp9895
(dp9896
S'e'
g15
(tRp9897
S'_4'
p9898
g18
(tRp9899
S'p2/possible-01'
p9900
(lp9901
(tassS'_3'
p9902
g18
(tRp9903
S'ARG1-of'
p9904
(lp9905
(g9898
tp9906
asS'c2/come-01'
p9907
(lp9908
(tassS'_2'
p9909
g18
(tRp9910
S'ARG1-of'
p9911
(lp9912
(g9902
tp9913
asS'b2/boy'
p9914
(lp9915
(tassS'_1'
p9916
g18
(tRp9917
S'b/boy'
p9918
(lp9919
(tassS'_0'
p9920
g18
(tRp9921
g1
(g214
g3
NtRp9922
(dp9923
g217
I0
sg218
S'A3-100'
p9924
sb(lp9925
(g9916
g9909
tp9926
ass(dp9927
g45
I7
sg54
Nsg50
(dp9928
sg60
(dp9929
sg44
I00
sg46
(dp9930
g9920
Nssg48
I0
sg49
Nsg57
(lp9931
g9920
asg52
(dp9932
sg55
(dp9933
sbsS'f'
(lp9934
S'boy'
p9935
aS'might'
p9936
aS'come'
p9937
aS'.'
aS'A'
aS'boy'
p9938
aS'who'
p9939
ag231
asg64
I0
sg65
I0
sg66
g234
sg68
(lp9940
sg70
Nsg71
(lp9941
sbI-1
sg1
(g12
g3
NtRp9942
(dp9943
S'e'
g15
(tRp9944
S'_4'
p9945
g18
(tRp9946
S'ARG1'
p9947
(lp9948
(S'_2'
tp9949
asS'ARG3'
p9950
(lp9951
(S'_3'
tp9952
asS'r/return-01'
p9953
(lp9954
(tassS'_3'
p9955
g18
(tRp9956
S's/store'
p9957
(lp9958
(tassS'_2'
p9959
g18
(tRp9960
S'i/i'
p9961
(lp9962
(tassS'_1'
p9963
g18
(tRp9964
S'ARG0'
p9965
(lp9966
(g9959
tp9967
asS'ARG4'
p9968
(lp9969
(g9955
tp9970
asS'g/go-02'
p9971
(lp9972
(tassS'_0'
p9973
g18
(tRp9974
g1
(g214
g3
NtRp9975
(dp9976
g217
I0
sg218
S'A3-100'
p9977
sb(lp9978
(g9963
g9945
tp9979
ass(dp9980
g44
I00
sg45
I9
sg46
(dp9981
g9973
Nssg48
I0
sg49
Nsg50
(dp9982
sg52
(dp9983
sg54
Nsg55
(dp9984
sg57
(lp9985
g9973
asg60
(dp9986
sbsS'f'
(lp9987
S'I'
aS'went'
p9988
aS'to'
p9989
aS'the'
p9990
aS'store'
p9991
ag1183
aS'back'
p9992
asg64
I0
sg65
I0
sg66
g165
sg68
(lp9993
sg70
Nsg71
(lp9994
sbI1
sg1
(g12
g3
NtRp9995
(dp9996
S'e'
g15
(tRp9997
S'_3'
p9998
g18
(tRp9999
S'd2/date-entity'
p10000
(lp10001
(tassS'_2'
p10002
g18
(tRp10003
S'"800"'
p10004
(lp10005
(tassS'_1'
p10006
g18
(tRp10007
S'd/date-entity'
p10008
(lp10009
(tasS'time'
p10010
(lp10011
(g10002
tp10012
assS'_0'
p10013
g18
(tRp10014
g1
(g214
g3
NtRp10015
(dp10016
g217
I0
sg218
S'A3-100'
p10017
sb(lp10018
(g10006
g9998
tp10019
ass(dp10020
g44
I00
sg45
I5
sg46
(dp10021
g10013
Nssg48
I0
sg49
Nsg50
(dp10022
sg52
(dp10023
sg54
Nsg55
(dp10024
sg57
(lp10025
g10013
asg60
(dp10026
sbsS'f'
(lp10027
S'8'
aS'am'
p10028
ag1183
asg64
I0
sg65
I0
sg66
g165
sg68
(lp10029
sg70
Nsg71
(lp10030
sbI1
sg1
(g12
g3
NtRp10031
(dp10032
S'e'
g15
(tRp10033
S'_1'
p10034
g18
(tRp10035
g1
(g214
g3
NtRp10036
(dp10037
g217
I1
sg218
S'A1-1'
p10038
sb(lp10039
(tassS'_0'
p10040
g18
(tRp10041
S'unit'
p10042
(lp10043
(g10034
tp10044
asg1
(g214
g3
NtRp10045
(dp10046
g217
I0
sg218
S'A1-1'
p10047
sb(lp10048
(tass(dp10049
g44
I00
sg45
I3
sg46
(dp10050
g10040
Nssg48
I0
sg49
Nsg50
(dp10051
sg52
(dp10052
sg54
Nsg55
(dp10053
sg57
(lp10054
g10040
asg60
(dp10055
sbsS'f'
(lp10056
g67
ag67
asg64
I0
sg65
I0
sg66
g67
sg68
(lp10057
sg70
Nsg71
(lp10058
sbI-1
sg1
(g12
g3
NtRp10059
(dp10060
S'e'
g15
(tRp10061
S'_3'
p10062
g18
(tRp10063
g1
(g214
g3
NtRp10064
(dp10065
g217
I1
sg218
S'A1-1'
p10066
sb(lp10067
(tassS'_2'
p10068
g18
(tRp10069
S'f/fugitive'
p10070
(lp10071
(tassS'_1'
p10072
g18
(tRp10073
g1
(g214
g3
NtRp10074
(dp10075
g217
I0
sg218
S'A3-100'
p10076
sb(lp10077
(g10068
g10062
tp10078
assS'_0'
p10079
g18
(tRp10080
S'b/believe-01'
p10081
(lp10082
(tasS'ARG1'
p10083
(lp10084
(g10072
tp10085
ass(dp10086
g44
I00
sg45
I5
sg46
(dp10087
g10079
Nssg48
I0
sg49
Nsg50
(dp10088
sg52
(dp10089
sg54
Nsg55
(dp10090
sg57
(lp10091
g10079
asg60
(dp10092
sbsS'f'
(lp10093
S'fugitive'
p10094
aS'is'
p10095
aS'believed'
p10096
aS'to'
p10097
ag1183
ag165
asg64
I0
sg65
I0
sg66
g165
sg68
(lp10098
sg70
Nsg71
(lp10099
sbI1
sg1
(g12
g3
NtRp10100
(dp10101
S'e'
g15
(tRp10102
S'_7'
p10103
g18
(tRp10104
sS'_6'
p10105
g18
(tRp10106
S'"Army"'
p10107
(lp10108
(tassS'_5'
p10109
g18
(tRp10110
S'"U.S."'
p10111
(lp10112
(tassS'_4'
p10113
g18
(tRp10114
S'n2/name'
p10115
(lp10116
(tasS'op2'
p10117
(lp10118
(g10105
tp10119
asS'op1'
p10120
(lp10121
(g10109
tp10122
assS'_3'
p10123
g18
(tRp10124
S'"United_States_Army"'
p10125
(lp10126
(tassS'_2'
p10127
g18
(tRp10128
S'wiki'
p10129
(lp10130
(g10123
tp10131
asS'm/military'
p10132
(lp10133
(tasS'name'
p10134
(lp10135
(g10113
tp10136
assS'_1'
p10137
g18
(tRp10138
S'ARG1'
p10139
(lp10140
(g10127
tp10141
asS'h/have-org-role-91'
p10142
(lp10143
(tasS'ARG2'
p10144
(lp10145
(g10103
tp10146
assS'_0'
p10147
g18
(tRp10148
S'ARG0-of'
p10149
(lp10150
(g10137
tp10151
ass(dp10152
g45
I13
sg54
Nsg50
(dp10153
sg60
(dp10154
sg44
I00
sg46
(dp10155
g10147
Nssg48
I0
sg49
Nsg57
(lp10156
g10147
asg52
(dp10157
g10103
I0
ssg55
(dp10158
I0
S'_7'
p10159
ssbsS'f'
(lp10160
S'U.S.'
p10161
aS'Army'
p10162
asg64
I0
sg65
I0
sg66
g874
sg68
(lp10163
sg70
Nsg71
(lp10164
sbI-1
sg1
(g12
g3
NtRp10165
(dp10166
S'e'
g15
(tRp10167
S'_6'
p10168
g18
(tRp10169
sS'_5'
p10170
g18
(tRp10171
sS'_4'
p10172
g18
(tRp10173
S'x2/2'
p10174
(lp10175
(tassS'_3'
p10176
g18
(tRp10177
g1
(g214
g3
NtRp10178
(dp10179
g217
I1
sg218
S'A1-1'
p10180
sb(lp10181
(tasS'li'
p10182
(lp10183
(g10172
tp10184
assS'_2'
p10185
g18
(tRp10186
S'x/1'
p10187
(lp10188
(tassS'_1'
p10189
g18
(tRp10190
g1
(g214
g3
NtRp10191
(dp10192
g217
I0
sg218
S'A1-1'
p10193
sb(lp10194
(tasS'li'
p10195
(lp10196
(g10185
tp10197
assS'_0'
p10198
g18
(tRp10199
S'op4'
p10200
(lp10201
(g10168
tp10202
asS'a2/and'
p10203
(lp10204
(tasS'op1'
p10205
(lp10206
(g10189
tp10207
asS'op2'
p10208
(lp10209
(g10176
tp10210
asS'op3'
p10211
(lp10212
(g10170
tp10213
ass(dp10214
g45
I11
sg54
Nsg50
(dp10215
sg60
(dp10216
sg44
I00
sg46
(dp10217
g10198
Nssg48
I0
sg49
Nsg57
(lp10218
g10198
asg52
(dp10219
g10168
I1
sg10170
I0
ssg55
(dp10220
I0
S'_5'
p10221
sI1
S'_6'
p10222
ssbsS'f'
(lp10223
S'1'
aS')'
ag1285
aS'('
aS'2'
aS')'
ag1285
asg64
I0
sg65
I0
sg66
g5695
sg68
(lp10224
sg70
Nsg71
(lp10225
sbI-1
sg1
(g12
g3
NtRp10226
(dp10227
S'e'
g15
(tRp10228
S'_1'
p10229
g18
(tRp10230
g1
(g214
g3
NtRp10231
(dp10232
g217
I1
sg218
S'A1-1'
p10233
sb(lp10234
(tassS'_0'
p10235
g18
(tRp10236
g1
(g214
g3
NtRp10237
(dp10238
g217
I0
sg218
S'A2-10'
p10239
sb(lp10240
(g10229
tp10241
ass(dp10242
g44
I00
sg45
I2
sg46
(dp10243
g10235
Nssg48
I0
sg49
Nsg50
(dp10244
sg52
(dp10245
sg54
Nsg55
(dp10246
sg57
(lp10247
g10235
asg60
(dp10248
sbsS'f'
(lp10249
S'[A2-10]'
p10250
ag67
asg64
I0
sg65
I0
sg66
g67
sg68
(lp10251
sg70
Nsg71
(lp10252
sbI-1
sg1
(g12
g3
NtRp10253
(dp10254
S'e'
g15
(tRp10255
S'_5'
p10256
g18
(tRp10257
S'w2/wednesday'
p10258
(lp10259
(tassS'_4'
p10260
g18
(tRp10261
S'd/date-entity'
p10262
(lp10263
(tasS'weekday'
p10264
(lp10265
(g10256
tp10266
assS'_3'
p10267
g18
(tRp10268
S'w/week'
p10269
(lp10270
(tassS'_2'
p10271
g18
(tRp10272
S'2'
(lp10273
(tassS'_1'
p10274
g18
(tRp10275
S'quant'
p10276
(lp10277
(g10271
tp10278
asS'unit'
p10279
(lp10280
(g10267
tp10281
asS't/temporal-quantity'
p10282
(lp10283
(tassS'_0'
p10284
g18
(tRp10285
S'ARG4'
p10286
(lp10287
(g10260
tp10288
asS'ARG3'
p10289
(lp10290
(g10274
tp10291
asS'r/rate-entity-91'
p10292
(lp10293
(tass(dp10294
g45
I11
sg54
Nsg50
(dp10295
sg60
(dp10296
sg44
I00
sg46
(dp10297
g10284
Nssg48
I0
sg49
Nsg57
(lp10298
g10284
asg52
(dp10299
sg55
(dp10300
sbsS'f'
(lp10301
S'Wednesday'
p10302
asg64
I0
sg65
I0
sg66
g1229
sg68
(lp10303
sg70
Nsg71
(lp10304
sbI-1
sg1
(g12
g3
NtRp10305
(dp10306
S'e'
g15
(tRp10307
S'_2'
p10308
g18
(tRp10309
g1
(g214
g3
NtRp10310
(dp10311
g217
I0
sg218
S'A1-1'
p10312
sb(lp10313
(tassS'_1'
p10314
g18
(tRp10315
g1
(g214
g3
NtRp10316
(dp10317
g217
I1
sg218
S'A1-1'
p10318
sb(lp10319
(tassS'_0'
p10320
g18
(tRp10321
S'ARG0'
p10322
(lp10323
(g10308
tp10324
asS'location'
p10325
(lp10326
(g10314
tp10327
asS'l/live-01'
p10328
(lp10329
(tass(dp10330
g44
I00
sg45
I5
sg46
(dp10331
g10320
Nssg48
I0
sg49
Nsg50
(dp10332
sg52
(dp10333
sg54
Nsg55
(dp10334
sg57
(lp10335
g10320
asg60
(dp10336
sbsS'f'
(lp10337
g165
aS'lives'
p10338
aS'in'
p10339
ag165
asg64
I0
sg65
I0
sg66
g165
sg68
(lp10340
sg70
Nsg71
(lp10341
sbI2
sg1
(g12
g3
NtRp10342
(dp10343
S'e'
g15
(tRp10344
S'_3'
p10345
g18
(tRp10346
g1
(g214
g3
NtRp10347
(dp10348
g217
I0
sg218
S'A1-1'
p10349
sb(lp10350
(tassS'_2'
p10351
g18
(tRp10352
S'i/i'
p10353
(lp10354
(tassS'_1'
p10355
g18
(tRp10356
S't/too'
p10357
(lp10358
(tassS'_0'
p10359
g18
(tRp10360
g1
(g214
g3
NtRp10361
(dp10362
g217
I1
sg218
S'A3-000'
p10363
sb(lp10364
(g10351
g10345
tp10365
asS'w/worry-02'
p10366
(lp10367
(tasS'degree'
p10368
(lp10369
(g10355
tp10370
ass(dp10371
g44
I00
sg45
I6
sg46
(dp10372
g10359
Nssg48
I0
sg49
Nsg50
(dp10373
sg52
(dp10374
sg54
Nsg55
(dp10375
sg57
(lp10376
g10359
asg60
(dp10377
sbsS'f'
(lp10378
g165
aS'is'
p10379
aS'concerned'
p10380
aS','
aS'I'
aS"'m"
p10381
aS'[A3-000]'
p10382
aS'too'
p10383
aS'worried'
p10384
asg64
I0
sg65
I0
sg66
g165
sg68
(lp10385
sg70
Nsg71
(lp10386
sbI1
sg1
(g12
g3
NtRp10387
(dp10388
S'e'
g15
(tRp10389
S'_7'
p10390
g18
(tRp10391
S'3000'
p10392
(lp10393
(tassS'_6'
p10394
g18
(tRp10395
S'm/mile'
p10396
(lp10397
(tassS'_5'
p10398
g18
(tRp10399
S'quant'
p10400
(lp10401
(g10390
tp10402
asS'unit'
p10403
(lp10404
(g10394
tp10405
asS'd/distance-quantity'
p10406
(lp10407
(tassS'_4'
p10408
g18
(tRp10409
S'ARG3'
p10410
(lp10411
(g10398
tp10412
asS'r2/rate-entity-91'
p10413
(lp10414
(tassS'_3'
p10415
g18
(tRp10416
S'o/oil'
p10417
(lp10418
(tassS'_2'
p10419
g18
(tRp10420
S'c/change-01'
p10421
(lp10422
(tasS'frequency'
p10423
(lp10424
(g10408
tp10425
asS'ARG1'
p10426
(lp10427
(g10415
tp10428
assS'_1'
p10429
g18
(tRp10430
S'w/we'
p10431
(lp10432
(tassS'_0'
p10433
g18
(tRp10434
S'ARG0'
p10435
(lp10436
(g10429
tp10437
asS'ARG1'
p10438
(lp10439
(g10419
tp10440
asS'r/recommend-01'
p10441
(lp10442
(tass(dp10443
g45
I15
sg54
Nsg50
(dp10444
sg60
(dp10445
sg44
I00
sg46
(dp10446
g10433
Nssg48
I0
sg49
Nsg57
(lp10447
g10433
asg52
(dp10448
sg55
(dp10449
sbsS'f'
(lp10450
S'We'
p10451
aS'recommend'
p10452
aS'an'
p10453
aS'oil'
p10454
aS'change'
p10455
aS'every'
p10456
aS'3,000'
p10457
aS'miles'
p10458
asg64
I0
sg65
I0
sg66
g1285
sg68
(lp10459
sg70
Nsg71
(lp10460
sbI-1
sg1
(g12
g3
NtRp10461
(dp10462
S'e'
g15
(tRp10463
S'_4'
p10464
g18
(tRp10465
sS'_3'
p10466
g18
(tRp10467
S'1939'
p10468
(lp10469
(tassS'_2'
p10470
g18
(tRp10471
S'd2/date-entity'
p10472
(lp10473
(tasS'year'
p10474
(lp10475
(g10466
tp10476
assS'_1'
p10477
g18
(tRp10478
S'd/date-interval'
p10479
(lp10480
(tasS'op1'
p10481
(lp10482
(g10470
tp10483
asS'op2'
p10484
(lp10485
(g10464
tp10486
assS'_0'
p10487
g18
(tRp10488
S'time'
p10489
(lp10490
(g10477
tp10491
ass(dp10492
g44
I00
sg45
I7
sg46
(dp10493
g10487
Nssg48
I0
sg49
Nsg50
(dp10494
sg52
(dp10495
g10464
I0
ssg54
Nsg55
(dp10496
I0
S'_4'
p10497
ssg57
(lp10498
g10487
asg60
(dp10499
sbsS'f'
(lp10500
S'from'
p10501
aS'1939'
p10502
asg64
I0
sg65
I0
sg66
g3420
sg68
(lp10503
sg70
Nsg71
(lp10504
sbI1
sg1
(g12
g3
NtRp10505
(dp10506
S'e'
g15
(tRp10507
S'_6'
p10508
g18
(tRp10509
S'"EPA"'
p10510
(lp10511
(tassS'_5'
p10512
g18
(tRp10513
S'n/name'
p10514
(lp10515
(tasS'op1'
p10516
(lp10517
(g10508
tp10518
assS'_4'
p10519
g18
(tRp10520
S'"United_States_Environmental_Protection_Agency"'
p10521
(lp10522
(tassS'_3'
p10523
g18
(tRp10524
S'wiki'
p10525
(lp10526
(g10519
tp10527
asS'g/government-organization'
p10528
(lp10529
(tasS'name'
p10530
(lp10531
(g10512
tp10532
assS'_2'
p10533
g18
(tRp10534
S'ARG0'
p10535
(lp10536
(g10523
tp10537
asS'r/regulate-01'
p10538
(lp10539
(tassS'_1'
p10540
g18
(tRp10541
S'ARG2'
p10542
(lp10543
(g10533
tp10544
asS'a/accord-02'
p10545
(lp10546
(tassS'_0'
p10547
g18
(tRp10548
g1
(g214
g3
NtRp10549
(dp10550
g217
I0
sg218
S'A2-10'
p10551
sb(lp10552
(g10540
tp10553
ass(dp10554
g45
I12
sg54
Nsg50
(dp10555
sg60
(dp10556
sg44
I00
sg46
(dp10557
g10547
Nssg48
I0
sg49
Nsg57
(lp10558
g10547
asg52
(dp10559
sg55
(dp10560
sbsS'f'
(lp10561
g2885
aS'accordance'
p10562
aS'with'
p10563
aS'EPA'
p10564
aS'regulations'
p10565
asg64
I0
sg65
I0
sg66
g1285
sg68
(lp10566
sg70
Nsg71
(lp10567
sbI-1
sg1
(g12
g3
NtRp10568
(dp10569
S'e'
g15
(tRp10570
S'_5'
p10571
g18
(tRp10572
S'18'
p10573
(lp10574
(tassS'_4'
p10575
g18
(tRp10576
S'20'
p10577
(lp10578
(tassS'_3'
p10579
g18
(tRp10580
S'ARG1'
p10581
(lp10582
(g10571
tp10583
asS's2/score-on-scale-91'
p10584
(lp10585
(tasS'ARG3'
p10586
(lp10587
(g10575
tp10588
assS'_2'
p10589
g18
(tRp10590
g1
(g214
g3
NtRp10591
(dp10592
g217
I0
sg218
S'A1-1'
p10593
sb(lp10594
(tassS'_1'
p10595
g18
(tRp10596
S'm/math'
p10597
(lp10598
(tassS'_0'
p10599
g18
(tRp10600
S'ARG1'
p10601
(lp10602
(g10589
tp10603
asS'ARG2'
p10604
(lp10605
(g10579
tp10606
asS'ARG3'
p10607
(lp10608
(g10595
tp10609
asS's/score-01'
p10610
(lp10611
(tass(dp10612
g45
I11
sg54
Nsg50
(dp10613
sg60
(dp10614
sg44
I00
sg46
(dp10615
g10599
Nssg48
I0
sg49
Nsg57
(lp10616
g10599
asg52
(dp10617
sg55
(dp10618
sbsS'f'
(lp10619
g234
aS'scored'
p10620
aS'a'
aS'18'
p10621
aS'@/@'
p10622
aS'20'
p10623
aS'in'
p10624
aS'math'
p10625
asg64
I0
sg65
I0
sg66
g234
sg68
(lp10626
sg70
Nsg71
(lp10627
sbI-1
sg1
(g12
g3
NtRp10628
(dp10629
S'e'
g15
(tRp10630
S'_5'
p10631
g18
(tRp10632
S'"Manx"'
p10633
(lp10634
(tassS'_4'
p10635
g18
(tRp10636
S'n/name'
p10637
(lp10638
(tasS'op1'
p10639
(lp10640
(g10631
tp10641
assS'_3'
p10642
g18
(tRp10643
S'"Manx_language"'
p10644
(lp10645
(tassS'_2'
p10646
g18
(tRp10647
S'wiki'
p10648
(lp10649
(g10642
tp10650
asS'name'
p10651
(lp10652
(g10635
tp10653
asS'l/language'
p10654
(lp10655
(tassS'_1'
p10656
g18
(tRp10657
S'h/he'
p10658
(lp10659
(tassS'_0'
p10660
g18
(tRp10661
S'ARG1'
p10662
(lp10663
(g10646
tp10664
asg1
(g214
g3
NtRp10665
(dp10666
g217
I0
sg218
S'A2-10'
p10667
sb(lp10668
(g10656
tp10669
ass(dp10670
g45
I10
sg54
Nsg50
(dp10671
sg60
(dp10672
sg44
I00
sg46
(dp10673
g10660
Nssg48
I0
sg49
Nsg57
(lp10674
g10660
asg52
(dp10675
sg55
(dp10676
sbsS'f'
(lp10677
S'He'
p10678
ag198
aS'about'
p10679
aS'Manx'
p10680
asg64
I0
sg65
I0
sg66
g234
sg68
(lp10681
sg70
Nsg71
(lp10682
sbI-1
sg1
(g12
g3
NtRp10683
(dp10684
S'e'
g15
(tRp10685
S'_3'
p10686
g18
(tRp10687
S'"Pisa"'
p10688
(lp10689
(tassS'_2'
p10690
g18
(tRp10691
S'n/name'
p10692
(lp10693
(tasS'op1'
p10694
(lp10695
(g10686
tp10696
assS'_1'
p10697
g18
(tRp10698
S'"Pisa"'
p10699
(lp10700
(tassS'_0'
p10701
g18
(tRp10702
S'wiki'
p10703
(lp10704
(g10697
tp10705
asS'c/city'
p10706
(lp10707
(tasS'name'
p10708
(lp10709
(g10690
tp10710
ass(dp10711
g45
I7
sg54
Nsg50
(dp10712
sg60
(dp10713
sg44
I00
sg46
(dp10714
sg48
I0
sg49
Nsg57
(lp10715
S'_0'
p10716
asg52
(dp10717
sg55
(dp10718
sbsS'f'
(lp10719
S'Pisa'
p10720
asg64
I0
sg65
I0
sg66
g234
sg68
(lp10721
sg70
Nsg71
(lp10722
sbI-1
sg1
(g12
g3
NtRp10723
(dp10724
S'e'
g15
(tRp10725
S'_4'
p10726
g18
(tRp10727
S'e2/economy'
p10728
(lp10729
(tassS'_3'
p10730
g18
(tRp10731
S'ARG1'
p10732
(lp10733
(g10726
tp10734
asS'ARG2'
p10735
(lp10736
(S'_2'
tp10737
asS'a2/aid-01'
p10738
(lp10739
(tassS'_2'
p10740
g18
(tRp10741
sS'_1'
p10742
g18
(tRp10743
S'ARG0'
p10744
(lp10745
(g10740
tp10746
asS'ARG1'
p10747
(lp10748
(g10730
tp10749
asS'r2/return-05'
p10750
(lp10751
(tassS'_0'
p10752
g18
(tRp10753
S'ARG3-of'
p10754
(lp10755
(g10742
tp10756
asg1
(g214
g3
NtRp10757
(dp10758
g217
I0
sg218
S'A2-10'
p10759
sb(lp10760
(S'_2'
tp10761
ass(dp10762
g44
I00
sg45
I9
sg46
(dp10763
g10752
Nssg48
I0
sg49
Nsg50
(dp10764
sg52
(dp10765
g10740
I0
ssg54
Nsg55
(dp10766
I0
S'_2'
p10767
ssg57
(lp10768
g10752
asg60
(dp10769
sbsS'f'
(lp10770
g372
aS'in'
p10771
aS'return'
p10772
aS'for'
p10773
aS'economic'
p10774
aS'aid'
p10775
asg64
I0
sg65
I0
sg66
g372
sg68
(lp10776
sg70
Nsg71
(lp10777
sbI1
sg1
(g12
g3
NtRp10778
(dp10779
S'e'
g15
(tRp10780
S'_5'
p10781
g18
(tRp10782
S'5000'
p10783
(lp10784
(tassS'_4'
p10785
g18
(tRp10786
S'm2/much'
p10787
(lp10788
(tassS'_3'
p10789
g18
(tRp10790
S'd/dollar'
p10791
(lp10792
(tassS'_2'
p10793
g18
(tRp10794
S'quant'
p10795
(lp10796
(g10781
tp10797
asS'm/monetary-quantity'
p10798
(lp10799
(tasS'unit'
p10800
(lp10801
(g10789
tp10802
asS'mod'
p10803
(lp10804
(g10785
tp10805
assS'_1'
p10806
g18
(tRp10807
S'b/bicycle'
p10808
(lp10809
(tassS'_0'
p10810
g18
(tRp10811
S'ARG1'
p10812
(lp10813
(g10806
tp10814
asS'ARG2'
p10815
(lp10816
(g10793
tp10817
asS'c/cost-01'
p10818
(lp10819
(tass(dp10820
g44
I00
sg45
I11
sg46
(dp10821
g10810
Nssg48
I0
sg49
Nsg50
(dp10822
sg52
(dp10823
sg54
Nsg55
(dp10824
sg57
(lp10825
g10810
asg60
(dp10826
sbsS'f'
(lp10827
S'bicycle'
p10828
aS'cost'
p10829
aS'as'
p10830
aS'much'
p10831
aS'as'
p10832
aS'$'
aS'5,000'
p10833
asg64
I0
sg65
I0
sg66
g165
sg68
(lp10834
sg70
Nsg71
(lp10835
sbI1
sg1
(g12
g3
NtRp10836
(dp10837
S'e'
g15
(tRp10838
S'_3'
p10839
g18
(tRp10840
S'"China"'
p10841
(lp10842
(tassS'_2'
p10843
g18
(tRp10844
S'n2/name'
p10845
(lp10846
(tasS'op1'
p10847
(lp10848
(g10839
tp10849
assS'_1'
p10850
g18
(tRp10851
S'"China"'
p10852
(lp10853
(tassS'_0'
p10854
g18
(tRp10855
S'wiki'
p10856
(lp10857
(g10850
tp10858
asS'c/country'
p10859
(lp10860
(tasS'name'
p10861
(lp10862
(g10843
tp10863
ass(dp10864
g44
I00
sg45
I7
sg46
(dp10865
sg48
I0
sg49
Nsg50
(dp10866
sg52
(dp10867
sg54
Nsg55
(dp10868
sg57
(lp10869
S'_0'
p10870
asg60
(dp10871
sbsS'f'
(lp10872
S'Chinese'
p10873
asg64
I0
sg65
I0
sg66
g67
sg68
(lp10874
sg70
Nsg71
(lp10875
sbI-1
sg1
(g12
g3
NtRp10876
(dp10877
S'e'
g15
(tRp10878
S'_7'
p10879
g18
(tRp10880
S'n/nacho'
p10881
(lp10882
(tassS'_6'
p10883
g18
(tRp10884
S'p2/president'
p10885
(lp10886
(tassS'_5'
p10887
g18
(tRp10888
S'h/have-org-role-91'
p10889
(lp10890
(tasS'ARG2'
p10891
(lp10892
(g10883
tp10893
assS'_4'
p10894
g18
(tRp10895
S'52'
p10896
(lp10897
(tassS'_3'
p10898
g18
(tRp10899
S'y/year'
p10900
(lp10901
(tassS'_2'
p10902
g18
(tRp10903
S'quant'
p10904
(lp10905
(g10894
tp10906
asS't/temporal-quantity'
p10907
(lp10908
(tasS'unit'
p10909
(lp10910
(g10898
tp10911
assS'_1'
p10912
g18
(tRp10913
S'p/person'
p10914
(lp10915
(tasS'age'
p10916
(lp10917
(g10902
tp10918
asS'ARG0-of'
p10919
(lp10920
(g10887
tp10921
assS'_0'
p10922
g18
(tRp10923
S'ARG0'
p10924
(lp10925
(g10912
tp10926
asS'ARG2'
p10927
(lp10928
(g10879
tp10929
asS'o/order-02'
p10930
(lp10931
(tass(dp10932
g44
I00
sg45
I15
sg46
(dp10933
g10922
Nssg48
I0
sg49
Nsg50
(dp10934
sg52
(dp10935
sg54
Nsg55
(dp10936
sg57
(lp10937
g10922
asg60
(dp10938
sbsS'f'
(lp10939
S'52'
p10940
aS'@-@'
p10941
aS'year'
p10942
aS'@-@'
p10943
aS'old'
p10944
aS'president'
p10945
aS'ordered'
p10946
aS'nachos'
p10947
asg64
I0
sg65
I0
sg66
g165
sg68
(lp10948
sg70
Nsg71
(lp10949
sbI1
sg1
(g12
g3
NtRp10950
(dp10951
S'e'
g15
(tRp10952
S'_4'
p10953
g18
(tRp10954
sS'_3'
p10955
g18
(tRp10956
S'd3/devastate-01'
p10957
(lp10958
(tassS'_2'
p10959
g18
(tRp10960
S'ARG0-of'
p10961
(lp10962
(g10955
tp10963
assS'_1'
p10964
g18
(tRp10965
S'ARG1'
p10966
(lp10967
(g10959
tp10968
asS'c2/cause-01'
p10969
(lp10970
(tassS'_0'
p10971
g18
(tRp10972
S'ARG0-of'
p10973
(lp10974
(g10964
tp10975
asg1
(g214
g3
NtRp10976
(dp10977
g217
I0
sg218
S'A2-10'
p10978
sb(lp10979
(g10953
tp10980
ass(dp10981
g45
I6
sg54
Nsg50
(dp10982
sg60
(dp10983
sg44
I00
sg46
(dp10984
g10971
Nssg48
I0
sg49
Nsg57
(lp10985
g10971
asg52
(dp10986
S'_4'
p10987
I1
sg10959
I0
ssg55
(dp10988
I0
S'_2'
p10989
sI1
g10987
ssbsS'f'
(lp10990
g198
aS','
aS'causing'
p10991
aS'devastating'
p10992
asg64
I0
sg65
I0
sg66
g231
sg68
(lp10993
sg70
Nsg71
(lp10994
sbI-1
sg1
(g12
g3
NtRp10995
(dp10996
S'e'
g15
(tRp10997
S'_4'
p10998
g18
(tRp10999
S's/snow-01'
p11000
(lp11001
(tassS'_3'
p11002
g18
(tRp11003
S'd2/distance-quantity'
p11004
(lp11005
(tassS'_2'
p11006
g18
(tRp11007
sS'_1'
p11008
g18
(tRp11009
sS'_0'
p11010
g18
(tRp11011
S'ARG1'
p11012
(lp11013
(g11008
tp11014
asS'ARG2'
p11015
(lp11016
(g11006
tp11017
asS'ARG3'
p11018
(lp11019
(g11002
tp11020
asS'r/rate-entity-91'
p11021
(lp11022
(tasS'ARG4'
p11023
(lp11024
(g10998
tp11025
ass(dp11026
g45
I7
sg54
Nsg50
(dp11027
sg60
(dp11028
sg44
I00
sg46
(dp11029
g11010
Nssg48
I0
sg49
Nsg57
(lp11030
g11010
asg52
(dp11031
g11002
I2
sg11006
I1
sg11008
I0
ssg55
(dp11032
I0
S'_1'
p11033
sI1
S'_2'
p11034
sI2
S'_3'
p11035
ssbsS'f'
(lp11036
S'snows'
p11037
asg64
I0
sg65
I0
sg66
S'[A4-1001]'
p11038
sg68
(lp11039
sg70
Nsg71
(lp11040
sbI-1
sg1
(g12
g3
NtRp11041
(dp11042
S'e'
g15
(tRp11043
S'_5'
p11044
g18
(tRp11045
S's/soccer'
p11046
(lp11047
(tassS'_4'
p11048
g18
(tRp11049
S'1974'
p11050
(lp11051
(tassS'_3'
p11052
g18
(tRp11053
S'd/date-entity'
p11054
(lp11055
(tasS'year'
p11056
(lp11057
(g11048
tp11058
assS'_2'
p11059
g18
(tRp11060
S'time'
p11061
(lp11062
(g11052
tp11063
asg1
(g214
g3
NtRp11064
(dp11065
g217
I0
sg218
S'A1-1'
p11066
sb(lp11067
(tasS'mod'
p11068
(lp11069
(g11044
tp11070
assS'_1'
p11071
g18
(tRp11072
S'f/final'
p11073
(lp11074
(tasS'subevent-of'
p11075
(lp11076
(g11059
tp11077
assS'_0'
p11078
g18
(tRp11079
g1
(g214
g3
NtRp11080
(dp11081
g217
I1
sg218
S'A2-10'
p11082
sb(lp11083
(g11071
tp11084
ass(dp11085
g45
I10
sg54
Nsg50
(dp11086
sg60
(dp11087
sg44
I00
sg46
(dp11088
g11078
Nssg48
I0
sg49
Nsg57
(lp11089
g11078
asg52
(dp11090
sg55
(dp11091
sbsS'f'
(lp11092
S'1974'
p11093
aS'soccer'
p11094
ag234
aS'final'
p11095
aS','
ag198
asg64
I0
sg65
I0
sg66
g234
sg68
(lp11096
sg70
Nsg71
(lp11097
sbI-1
sg1
(g12
g3
NtRp11098
(dp11099
S'e'
g15
(tRp11100
S'_3'
p11101
g18
(tRp11102
sS'_2'
p11103
g18
(tRp11104
S'x3/3'
p11105
(lp11106
(tassS'_1'
p11107
g18
(tRp11108
g1
(g214
g3
NtRp11109
(dp11110
g217
I1
sg218
S'A1-1'
p11111
sb(lp11112
(tasS'li'
p11113
(lp11114
(g11103
tp11115
assS'_0'
p11116
g18
(tRp11117
g1
(g214
g3
NtRp11118
(dp11119
g217
I0
sg218
S'A3-100'
p11120
sb(lp11121
(g11107
g11101
tp11122
ass(dp11123
g45
I4
sg54
Nsg50
(dp11124
sg60
(dp11125
sg44
I00
sg46
(dp11126
g11116
Nssg48
I0
sg49
Nsg57
(lp11127
g11116
asg52
(dp11128
S'_3'
p11129
I0
ssg55
(dp11130
I0
g11129
ssbsS'f'
(lp11131
g5695
aS'('
aS'3'
aS')'
ag1285
asg64
I0
sg65
I0
sg66
g2885
sg68
(lp11132
sg70
Nsg71
(lp11133
sbI-1
sg1
(g12
g3
NtRp11134
(dp11135
S'e'
g15
(tRp11136
S'_5'
p11137
g18
(tRp11138
S'x4/4'
p11139
(lp11140
(tassS'_4'
p11141
g18
(tRp11142
g1
(g214
g3
NtRp11143
(dp11144
g217
I1
sg218
S'A1-1'
p11145
sb(lp11146
(tasS'li'
p11147
(lp11148
(g11137
tp11149
assS'_3'
p11150
g18
(tRp11151
g1
(g214
g3
NtRp11152
(dp11153
g217
I0
sg218
S'A2-10'
p11154
sb(lp11155
(g11141
tp11156
assS'_2'
p11157
g18
(tRp11158
S'a/a'
p11159
(lp11160
(tassS'_1'
p11161
g18
(tRp11162
S'g/group'
p11163
(lp11164
(tasS'mod'
p11165
(lp11166
(g11157
tp11167
assS'_0'
p11168
g18
(tRp11169
S'ARG1'
p11170
(lp11171
(g11161
tp11172
asS'ARG2'
p11173
(lp11174
(g11150
tp11175
asS'c/consist-01'
p11176
(lp11177
(tass(dp11178
g44
I00
sg45
I10
sg46
(dp11179
g11168
Nssg48
I0
sg49
Nsg50
(dp11180
sg52
(dp11181
sg54
Nsg55
(dp11182
sg57
(lp11183
g11168
asg60
(dp11184
sbsS'f'
(lp11185
S'Group'
p11186
aS'A'
aS':'
aS'('
ag372
aS'('
aS'4'
aS')'
ag165
asg64
I0
sg65
I0
sg66
g165
sg68
(lp11187
sg70
Nsg71
(lp11188
sbI1
sg1
(g12
g3
NtRp11189
(dp11190
S'e'
g15
(tRp11191
S'_4'
p11192
g18
(tRp11193
S'm2/more'
p11194
(lp11195
(tassS'_3'
p11196
g18
(tRp11197
sS'_2'
p11198
g18
(tRp11199
S'p2/police'
p11200
(lp11201
(tassS'_1'
p11202
g18
(tRp11203
S'ARG1'
p11204
(lp11205
(g11198
tp11206
asS'h3/have-org-role-91'
p11207
(lp11208
(tasS'ARG2'
p11209
(lp11210
(g11196
tp11211
assS'_0'
p11212
g18
(tRp11213
S'mod'
p11214
(lp11215
(g11192
tp11216
asS'p4/person'
p11217
(lp11218
(tasS'ARG0-of'
p11219
(lp11220
(g11202
tp11221
ass(dp11222
g44
I00
sg45
I8
sg46
(dp11223
g11212
Nssg48
I0
sg49
Nsg50
(dp11224
sg52
(dp11225
g11196
I0
ssg54
Nsg55
(dp11226
I0
S'_3'
p11227
ssg57
(lp11228
g11212
asg60
(dp11229
sbsS'f'
(lp11230
S'more'
p11231
aS'police'
p11232
asg64
I0
sg65
I0
sg66
g372
sg68
(lp11233
sg70
Nsg71
(lp11234
sbI1
sg1
(g12
g3
NtRp11235
(dp11236
S'e'
g15
(tRp11237
S'_4'
p11238
g18
(tRp11239
S'221'
p11240
(lp11241
(tassS'_3'
p11242
g18
(tRp11243
S'b/bill'
p11244
(lp11245
(tassS'_2'
p11246
g18
(tRp11247
S'a/adopt-01'
p11248
(lp11249
(tasS'ARG0'
p11250
(lp11251
(S'_1'
tp11252
asS'ARG1'
p11253
(lp11254
(g11242
tp11255
assS'_1'
p11256
g18
(tRp11257
S'p/parliament'
p11258
(lp11259
(tassS'_0'
p11260
g18
(tRp11261
g1
(g214
g3
NtRp11262
(dp11263
g217
I0
sg218
S'A4-1000'
p11264
sb(lp11265
(g11256
g11246
g11238
tp11266
ass(dp11267
g44
I00
sg45
I7
sg46
(dp11268
g11260
Nssg48
I0
sg49
Nsg50
(dp11269
sg52
(dp11270
sg54
Nsg55
(dp11271
sg57
(lp11272
g11260
asg60
(dp11273
sbsS'f'
(lp11274
S'Parliament'
p11275
ag1686
aS'@-@'
p11276
aS'221'
p11277
aS'to'
p11278
aS'adopt'
p11279
aS'the'
p11280
aS'bill'
p11281
asg64
I0
sg65
I0
sg66
g165
sg68
(lp11282
sg70
Nsg71
(lp11283
sbI1
sg1
(g12
g3
NtRp11284
(dp11285
S'e'
g15
(tRp11286
S'_3'
p11287
g18
(tRp11288
S's2/sound'
p11289
(lp11290
(tassS'_2'
p11291
g18
(tRp11292
S's/speed'
p11293
(lp11294
(tasS'poss'
p11295
(lp11296
(g11287
tp11297
assS'_1'
p11298
g18
(tRp11299
sS'_0'
p11300
g18
(tRp11301
S'op1'
p11302
(lp11303
(g11298
tp11304
asS'op2'
p11305
(lp11306
(g11291
tp11307
asS'p/product-of'
p11308
(lp11309
(tass(dp11310
g45
I6
sg54
Nsg50
(dp11311
sg60
(dp11312
sg44
I00
sg46
(dp11313
g11300
Nssg48
I0
sg49
Nsg57
(lp11314
g11300
asg52
(dp11315
g11298
I0
ssg55
(dp11316
I0
S'_1'
p11317
ssbsS'f'
(lp11318
S'times'
p11319
aS'the'
p11320
aS'speed'
p11321
aS'of'
p11322
aS'sound'
p11323
asg64
I0
sg65
I0
sg66
g198
sg68
(lp11324
sg70
Nsg71
(lp11325
sbI-1
sg1
(g12
g3
NtRp11326
(dp11327
S'e'
g15
(tRp11328
S'_3'
p11329
g18
(tRp11330
S'd/door'
p11331
(lp11332
(tassS'_2'
p11333
g18
(tRp11334
sS'_1'
p11335
g18
(tRp11336
S'+'
(lp11337
(tassS'_0'
p11338
g18
(tRp11339
S'ARG0'
p11340
(lp11341
(g11333
tp11342
asS'ARG1'
p11343
(lp11344
(g11329
tp11345
asS'polite'
p11346
(lp11347
(g11335
tp11348
asS'c/close-01'
p11349
(lp11350
(tass(dp11351
g45
I6
sg54
Nsg50
(dp11352
sg60
(dp11353
sg44
I00
sg46
(dp11354
g11338
Nssg48
I0
sg49
Nsg57
(lp11355
g11338
asg52
(dp11356
g11333
I0
ssg55
(dp11357
I0
S'_2'
p11358
ssbsS'f'
(lp11359
S'kindly'
p11360
aS'close'
p11361
aS'the'
p11362
aS'door'
p11363
asg64
I0
sg65
I0
sg66
g198
sg68
(lp11364
sg70
Nsg71
(lp11365
sbI-1
sg1
(g12
g3
NtRp11366
(dp11367
S'e'
g15
(tRp11368
S'_4'
p11369
g18
(tRp11370
S'd/door'
p11371
(lp11372
(tassS'_3'
p11373
g18
(tRp11374
S'y/you'
p11375
(lp11376
(tassS'_2'
p11377
g18
(tRp11378
S'+'
(lp11379
(tassS'_1'
p11380
g18
(tRp11381
S'imperative'
p11382
(lp11383
(tassS'_0'
p11384
g18
(tRp11385
S'c/close-01'
p11386
(lp11387
(tasS'ARG0'
p11388
(lp11389
(g11373
tp11390
asS'ARG1'
p11391
(lp11392
(g11369
tp11393
asS'mode'
p11394
(lp11395
(g11380
tp11396
asS'polite'
p11397
(lp11398
(g11377
tp11399
ass(dp11400
g44
I00
sg45
I9
sg46
(dp11401
g11384
Nssg48
I0
sg49
Nsg50
(dp11402
sg52
(dp11403
sg54
Nsg55
(dp11404
sg57
(lp11405
g11384
asg60
(dp11406
sbsS'f'
(lp11407
S'Could'
p11408
aS'you'
p11409
aS'close'
p11410
aS'the'
p11411
aS'door'
p11412
aS'?'
asg64
I0
sg65
I0
sg66
g165
sg68
(lp11413
sg70
Nsg71
(lp11414
sbI1
sg1
(g12
g3
NtRp11415
(dp11416
S'e'
g15
(tRp11417
S'_2'
p11418
g18
(tRp11419
S'p2/president'
p11420
(lp11421
(tasg1
(g214
g3
NtRp11422
(dp11423
g217
I0
sg218
S'A2-00'
p11424
sb(lp11425
(S'_1'
tp11426
assS'_1'
p11427
g18
(tRp11428
sS'_0'
p11429
g18
(tRp11430
S'ARG1'
p11431
(lp11432
(g11427
tp11433
asS'ARG2'
p11434
(lp11435
(g11418
tp11436
asS'e/elect-01'
p11437
(lp11438
(tass(dp11439
g45
I5
sg54
Nsg50
(dp11440
sg60
(dp11441
sg44
I00
sg46
(dp11442
g11429
Nssg48
I0
sg49
Nsg57
(lp11443
g11429
asg52
(dp11444
g11427
I0
ssg55
(dp11445
I0
S'_1'
p11446
ssbsS'f'
(lp11447
S'elected'
p11448
aS'president'
p11449
ag874
asg64
I0
sg65
I0
sg66
g198
sg68
(lp11450
sg70
Nsg71
(lp11451
sbI-1
sg1
(g12
g3
NtRp11452
(dp11453
S'e'
g15
(tRp11454
S'_3'
p11455
g18
(tRp11456
S'5000'
p11457
(lp11458
(tassS'_2'
p11459
g18
(tRp11460
S'm2/much'
p11461
(lp11462
(tassS'_1'
p11463
g18
(tRp11464
S'd/dollar'
p11465
(lp11466
(tassS'_0'
p11467
g18
(tRp11468
S'quant'
p11469
(lp11470
(g11455
tp11471
asS'unit'
p11472
(lp11473
(g11463
tp11474
asS'm/monetary-quantity'
p11475
(lp11476
(tasS'mod'
p11477
(lp11478
(g11459
tp11479
ass(dp11480
g45
I7
sg54
Nsg50
(dp11481
sg60
(dp11482
sg44
I00
sg46
(dp11483
g11467
Nssg48
I0
sg49
Nsg57
(lp11484
g11467
asg52
(dp11485
sg55
(dp11486
sbsS'f'
(lp11487
S'much'
p11488
aS'as'
p11489
aS'$'
aS'5,000'
p11490
asg64
I0
sg65
I0
sg66
g234
sg68
(lp11491
sg70
Nsg71
(lp11492
sbI-1
sg1
(g12
g3
NtRp11493
(dp11494
S'e'
g15
(tRp11495
S'_3'
p11496
g18
(tRp11497
S'p2/pound'
p11498
(lp11499
(tassS'_2'
p11500
g18
(tRp11501
S'50'
p11502
(lp11503
(tassS'_1'
p11504
g18
(tRp11505
S'quant'
p11506
(lp11507
(g11500
tp11508
asS'm/mass-quantity'
p11509
(lp11510
(tasS'unit'
p11511
(lp11512
(g11496
tp11513
assS'_0'
p11514
g18
(tRp11515
S'quant'
p11516
(lp11517
(g11504
tp11518
asS'h/heroin'
p11519
(lp11520
(tass(dp11521
g45
I7
sg54
Nsg50
(dp11522
sg60
(dp11523
sg44
I00
sg46
(dp11524
g11514
Nssg48
I0
sg49
Nsg57
(lp11525
g11514
asg52
(dp11526
sg55
(dp11527
sbsS'f'
(lp11528
S'50'
p11529
aS'pounds'
p11530
aS'of'
p11531
aS'heroin'
p11532
asg64
I0
sg65
I0
sg66
g5343
sg68
(lp11533
sg70
Nsg71
(lp11534
sbI-1
sg1
(g12
g3
NtRp11535
(dp11536
S'e'
g15
(tRp11537
S'_1'
p11538
g18
(tRp11539
S'h/he'
p11540
(lp11541
(tassS'_0'
p11542
g18
(tRp11543
S'ARG0'
p11544
(lp11545
(g11538
tp11546
asg1
(g214
g3
NtRp11547
(dp11548
g217
I0
sg218
S'A1-0'
p11549
sb(lp11550
(tasS'r/run-02'
p11551
(lp11552
(tass(dp11553
g44
I00
sg45
I4
sg46
(dp11554
g11542
Nssg48
I0
sg49
Nsg50
(dp11555
sg52
(dp11556
sg54
Nsg55
(dp11557
sg57
(lp11558
g11542
asg60
(dp11559
sbsS'f'
(lp11560
S'He'
p11561
aS'runs'
p11562
ag7921
asg64
I0
sg65
I0
sg66
g165
sg68
(lp11563
sg70
Nsg71
(lp11564
sbI1
sg1
(g12
g3
NtRp11565
(dp11566
S'e'
g15
(tRp11567
S'_7'
p11568
g18
(tRp11569
S'5'
(lp11570
(tassS'_6'
p11571
g18
(tRp11572
S'm2/mile'
p11573
(lp11574
(tassS'_5'
p11575
g18
(tRp11576
S'quant'
p11577
(lp11578
(g11568
tp11579
asS'unit'
p11580
(lp11581
(g11571
tp11582
assS'_4'
p11583
g18
(tRp11584
S'p/person'
p11585
(lp11586
(tassS'_3'
p11587
g18
(tRp11588
S'2'
(lp11589
(tassS'_2'
p11590
g18
(tRp11591
S'd/dollar'
p11592
(lp11593
(tassS'_1'
p11594
g18
(tRp11595
S'quant'
p11596
(lp11597
(g11587
tp11598
asS'unit'
p11599
(lp11600
(g11590
tp11601
asS'm/monetary-quantity'
p11602
(lp11603
(tassS'_0'
p11604
g18
(tRp11605
g1
(g214
g3
NtRp11606
(dp11607
g217
I0
sg218
S'A4-1001'
p11608
sb(lp11609
(g11594
g11583
g11575
tp11610
ass(dp11611
g45
I11
sg54
Nsg50
(dp11612
sg60
(dp11613
sg44
I00
sg46
(dp11614
g11604
Nssg48
I0
sg49
Nsg57
(lp11615
g11604
asg52
(dp11616
sg55
(dp11617
sbsS'f'
(lp11618
S'$'
aS'2'
aS'a'
aS'person'
p11619
aS'every'
p11620
aS'5'
aS'miles'
p11621
aS'whenever'
p11622
aS'it'
p11623
ag11038
asg64
I0
sg65
I0
sg66
g234
sg68
(lp11624
sg70
Nsg71
(lp11625
sbI-1
sg1
(g12
g3
NtRp11626
(dp11627
S'e'
g15
(tRp11628
S'_4'
p11629
g18
(tRp11630
S's/south'
p11631
(lp11632
(tassS'_3'
p11633
g18
(tRp11634
sS'_2'
p11635
g18
(tRp11636
S'k/kilometer'
p11637
(lp11638
(tassS'_1'
p11639
g18
(tRp11640
S'unit'
p11641
(lp11642
(g11635
tp11643
asS'd/distance-quantity'
p11644
(lp11645
(tassS'_0'
p11646
g18
(tRp11647
S'quant'
p11648
(lp11649
(g11639
tp11650
asS'direction'
p11651
(lp11652
(g11629
tp11653
asS'r/relative-position'
p11654
(lp11655
(tasS'op1'
p11656
(lp11657
(g11633
tp11658
ass(dp11659
g45
I8
sg54
Nsg50
(dp11660
sg60
(dp11661
sg44
I00
sg46
(dp11662
g11646
Nssg48
I0
sg49
Nsg57
(lp11663
g11646
asg52
(dp11664
g11633
I0
sg11639
I1
ssg55
(dp11665
I0
S'_3'
p11666
sI1
S'_1'
p11667
ssbsS'f'
(lp11668
S'kilometers'
p11669
aS'('
aS'50'
p11670
aS'miles'
p11671
aS')'
aS'south'
p11672
asg64
I0
sg65
I0
sg66
g6246
sg68
(lp11673
sg70
Nsg71
(lp11674
sbI-1
sg1
(g12
g3
NtRp11675
(dp11676
S'e'
g15
(tRp11677
S'_3'
p11678
g18
(tRp11679
S'h/he'
p11680
(lp11681
(tassS'_2'
p11682
g18
(tRp11683
S'l2/last'
p11684
(lp11685
(tassS'_1'
p11686
g18
(tRp11687
S'w/week'
p11688
(lp11689
(tasS'mod'
p11690
(lp11691
(g11682
tp11692
assS'_0'
p11693
g18
(tRp11694
S'ARG0'
p11695
(lp11696
(g11678
tp11697
asS'l/leave-11'
p11698
(lp11699
(tasS'time'
p11700
(lp11701
(g11686
tp11702
ass(dp11703
g45
I7
sg54
Nsg50
(dp11704
sg60
(dp11705
sg44
I00
sg46
(dp11706
g11693
Nssg48
I0
sg49
Nsg57
(lp11707
g11693
asg52
(dp11708
sg55
(dp11709
sbsS'f'
(lp11710
S'He'
p11711
aS'left'
p11712
aS'last'
p11713
aS'week'
p11714
asg64
I0
sg65
I0
sg66
g234
sg68
(lp11715
sg70
Nsg71
(lp11716
sbI-1
sg1
(g12
g3
NtRp11717
(dp11718
S'e'
g15
(tRp11719
S'_4'
p11720
g18
(tRp11721
S's/she'
p11722
(lp11723
(tassS'_3'
p11724
g18
(tRp11725
S'e/email'
p11726
(lp11727
(tassS'_2'
p11728
g18
(tRp11729
g1
(g214
g3
NtRp11730
(dp11731
g217
I0
sg218
S'A2-10'
p11732
sb(lp11733
(g11724
tp11734
assS'_1'
p11735
g18
(tRp11736
S'h/he'
p11737
(lp11738
(tassS'_0'
p11739
g18
(tRp11740
S'ARG0'
p11741
(lp11742
(g11735
tp11743
asS'ARG1'
p11744
(lp11745
(g11720
tp11746
asS'ARG2'
p11747
(lp11748
(g11728
tp11749
asS'r/reply-01'
p11750
(lp11751
(tass(dp11752
g45
I8
sg54
Nsg50
(dp11753
sg60
(dp11754
sg44
I00
sg46
(dp11755
g11739
Nssg48
I0
sg49
Nsg57
(lp11756
g11739
asg52
(dp11757
sg55
(dp11758
sbsS'f'
(lp11759
S'He'
p11760
aS'replied'
p11761
aS'to'
p11762
aS'her'
p11763
aS'with'
p11764
aS'a'
ag477
aS'email'
p11765
asg64
I0
sg65
I0
sg66
g6009
sg68
(lp11766
sg70
Nsg71
(lp11767
sbI-1
sg1
(g12
g3
NtRp11768
(dp11769
S'e'
g15
(tRp11770
S'_5'
p11771
g18
(tRp11772
S's/sharp'
p11773
(lp11774
(tassS'_4'
p11775
g18
(tRp11776
g1
(g214
g3
NtRp11777
(dp11778
g217
I0
sg218
S'A2-10'
p11779
sb(lp11780
(g11771
tp11781
assS'_3'
p11782
g18
(tRp11783
S'i2/import-01'
p11784
(lp11785
(tassS'_2'
p11786
g18
(tRp11787
S'ARG1-of'
p11788
(lp11789
(g11782
tp11790
asS't/thing'
p11791
(lp11792
(tassS'_1'
p11793
g18
(tRp11794
S'ARG1'
p11795
(lp11796
(g11786
tp11797
asS'i/increase-01'
p11798
(lp11799
(tassS'_0'
p11800
g18
(tRp11801
S'c/contrast-01'
p11802
(lp11803
(tasS'ARG2'
p11804
(lp11805
(g11775
tp11806
asS'ARG1'
p11807
(lp11808
(g11793
tp11809
ass(dp11810
g45
I10
sg54
Nsg50
(dp11811
sg60
(dp11812
sg44
I00
sg46
(dp11813
g11800
Nssg48
I0
sg49
Nsg57
(lp11814
g11800
asg52
(dp11815
sg55
(dp11816
sbsS'f'
(lp11817
S'Imports'
p11818
aS'increased'
p11819
aS','
aS'while'
p11820
ag198
aS'sharply'
p11821
asg64
I0
sg65
I0
sg66
g234
sg68
(lp11822
sg70
Nsg71
(lp11823
sbI-1
sg1
(g12
g3
NtRp11824
(dp11825
S'e'
g15
(tRp11826
S'_3'
p11827
g18
(tRp11828
S'l/last'
p11829
(lp11830
(tassS'_2'
p11831
g18
(tRp11832
S'10'
p11833
(lp11834
(tassS'_1'
p11835
g18
(tRp11836
S'mod'
p11837
(lp11838
(g11827
tp11839
asS'd/date-entity'
p11840
(lp11841
(tasS'month'
p11842
(lp11843
(g11831
tp11844
assS'_0'
p11845
g18
(tRp11846
g1
(g214
g3
NtRp11847
(dp11848
g217
I0
sg218
S'A1-1'
p11849
sb(lp11850
(tasS'time'
p11851
(lp11852
(g11835
tp11853
ass(dp11854
g44
I00
sg45
I7
sg46
(dp11855
g11845
Nssg48
I0
sg49
Nsg50
(dp11856
sg52
(dp11857
sg54
Nsg55
(dp11858
sg57
(lp11859
g11845
asg60
(dp11860
sbsS'f'
(lp11861
g165
aS'last'
p11862
aS'October'
p11863
asg64
I0
sg65
I0
sg66
g165
sg68
(lp11864
sg70
Nsg71
(lp11865
sbI1
sg1
(g12
g3
NtRp11866
(dp11867
S'e'
g15
(tRp11868
S'_7'
p11869
g18
(tRp11870
S'g/governor'
p11871
(lp11872
(tassS'_6'
p11873
g18
(tRp11874
g1
(g214
g3
NtRp11875
(dp11876
g217
I0
sg218
S'A1-1'
p11877
sb(lp11878
(tassS'_5'
p11879
g18
(tRp11880
S'ARG1'
p11881
(lp11882
(g11873
tp11883
asS'h/have-org-role-91'
p11884
(lp11885
(tasS'ARG2'
p11886
(lp11887
(g11869
tp11888
assS'_4'
p11889
g18
(tRp11890
S'"Brown"'
p11891
(lp11892
(tassS'_3'
p11893
g18
(tRp11894
S'"Jerry"'
p11895
(lp11896
(tassS'_2'
p11897
g18
(tRp11898
S'n/name'
p11899
(lp11900
(tasS'op1'
p11901
(lp11902
(g11893
tp11903
asS'op2'
p11904
(lp11905
(g11889
tp11906
assS'_1'
p11907
g18
(tRp11908
S'"Jerry_Brown"'
p11909
(lp11910
(tassS'_0'
p11911
g18
(tRp11912
S'p/person'
p11913
(lp11914
(tasS'wiki'
p11915
(lp11916
(g11907
tp11917
asS'name'
p11918
(lp11919
(g11897
tp11920
asS'ARG0-of'
p11921
(lp11922
(g11879
tp11923
ass(dp11924
g45
I15
sg54
Nsg50
(dp11925
sg60
(dp11926
sg44
I00
sg46
(dp11927
g11911
Nssg48
I0
sg49
Nsg57
(lp11928
g11911
asg52
(dp11929
sg55
(dp11930
sbsS'f'
(lp11931
S'[A1-1]'
p11932
aS'governor'
p11933
aS'Jerry'
p11934
aS'Brown'
p11935
asg64
I0
sg65
I0
sg66
g11932
sg68
(lp11936
sg70
Nsg71
(lp11937
sbI-1
sg1
(g12
g3
NtRp11938
(dp11939
S'e'
g15
(tRp11940
S'_1'
p11941
g18
(tRp11942
S'h/he'
p11943
(lp11944
(tassS'_0'
p11945
g18
(tRp11946
S'ARG0'
p11947
(lp11948
(g11941
tp11949
asS'l/leave-11'
p11950
(lp11951
(tass(dp11952
g44
I00
sg45
I3
sg46
(dp11953
g11945
Nssg48
I0
sg49
Nsg50
(dp11954
sg52
(dp11955
sg54
Nsg55
(dp11956
sg57
(lp11957
g11945
asg60
(dp11958
sbsS'f'
(lp11959
S'He'
p11960
aS'left'
p11961
asg64
I0
sg65
I0
sg66
g165
sg68
(lp11962
sg70
Nsg71
(lp11963
sbI1
sg1
(g12
g3
NtRp11964
(dp11965
S'e'
g15
(tRp11966
S'_5'
p11967
g18
(tRp11968
g1
(g214
g3
NtRp11969
(dp11970
g217
I1
sg218
S'A2-10'
p11971
sb(lp11972
(S'_1'
tp11973
assS'_4'
p11974
g18
(tRp11975
S'b/bathroom'
p11976
(lp11977
(tassS'_3'
p11978
g18
(tRp11979
S'ARG0'
p11980
(lp11981
(S'_1'
tp11982
asS'c/clean-01'
p11983
(lp11984
(tasS'ARG1'
p11985
(lp11986
(g11974
tp11987
assS'_2'
p11988
g18
(tRp11989
S's/school'
p11990
(lp11991
(tassS'_1'
p11992
g18
(tRp11993
S'h2/he'
p11994
(lp11995
(tassS'_0'
p11996
g18
(tRp11997
g1
(g214
g3
NtRp11998
(dp11999
g217
I0
sg218
S'A5-10000'
p12000
sb(lp12001
(g11992
g11988
g11978
g11967
tp12002
ass(dp12003
g44
I00
sg45
I8
sg46
(dp12004
g11996
Nssg48
I0
sg49
Nsg50
(dp12005
sg52
(dp12006
sg54
Nsg55
(dp12007
sg57
(lp12008
g11996
asg60
(dp12009
sbsS'f'
(lp12010
S'He'
p12011
aS'cleans'
p12012
aS'bathrooms'
p12013
aS'[A5-10000]'
p12014
ag372
aS'for'
p12015
aS'the'
p12016
aS'school'
p12017
asg64
I0
sg65
I0
sg66
g165
sg68
(lp12018
sg70
Nsg71
(lp12019
sbI1
sg1
(g12
g3
NtRp12020
(dp12021
S'e'
g15
(tRp12022
S'_3'
p12023
g18
(tRp12024
sS'_2'
p12025
g18
(tRp12026
sS'_1'
p12027
g18
(tRp12028
S'ARG1'
p12029
(lp12030
(g12025
tp12031
asS'h/have-org-role-91'
p12032
(lp12033
(tasS'ARG2'
p12034
(lp12035
(g12023
tp12036
assS'_0'
p12037
g18
(tRp12038
S'ARG0-of'
p12039
(lp12040
(g12027
tp12041
asg1
(g214
g3
NtRp12042
(dp12043
g217
I0
sg218
S'A1-1'
p12044
sb(lp12045
(tass(dp12046
g44
I00
sg45
I5
sg46
(dp12047
g12037
Nssg48
I0
sg49
Nsg50
(dp12048
sg52
(dp12049
g12023
I1
sg12025
I0
ssg54
Nsg55
(dp12050
I0
S'_2'
p12051
sI1
S'_3'
p12052
ssg57
(lp12053
g12037
asg60
(dp12054
sbsS'f'
(lp12055
g98
asg64
I0
sg65
I0
sg66
S'[A3-100]'
p12056
sg68
(lp12057
sg70
Nsg71
(lp12058
sbI-1
ssS'n'
I-3
sb.