ccopy_reg
_reconstructor
p1
(cHRGSample
NPSampler
p2
c__builtin__
object
p3
NtRp4
(dp5
S'rule_size_counts'
p6
(dp7
sS'rule_size_tables'
p8
(dp9
sS'counts'
p10
(dp11
g1
(crule
Rule
p12
g3
NtRp13
(dp14
S'e'
cutil.hgraph.hgraph
Hgraph
p15
(tRp16
S'_5'
p17
cutil.hgraph.hgraph
ListMap
p18
(tRp19
S'y/year'
p20
(lp21
(tassS'_4'
p22
g18
(tRp23
S'4'
(lp24
(tassS'_3'
p25
g18
(tRp26
S'quant'
p27
(lp28
(g22
tp29
asS'unit'
p30
(lp31
(g17
tp32
asg1
(cutil.cfg
NonterminalLabel
p33
g3
NtRp34
(dp35
S'index'
p36
I0
sS'label'
p37
S'A1-1'
p38
sb(lp39
(tassS'_2'
p40
g18
(tRp41
S'1918'
p42
(lp43
(tassS'_1'
p44
g18
(tRp45
S'd/date-entity'
p46
(lp47
(tasS'year'
p48
(lp49
(g40
tp50
assS'_0'
p51
g18
(tRp52
S'e/end-01'
p53
(lp54
(tasS'ARG1'
p55
(lp56
(g25
tp57
asS'time'
p58
(lp59
(g44
tp60
ass(dp61
S'_Hgraph__nodelabels'
p62
I00
sS'num_edges'
p63
I11
sS'node_to_concepts'
p64
(dp65
g51
NssS'replace_count'
p66
I0
sS'_Hgraph__cached_depth'
p67
NsS'node_alignments'
p68
(dp69
sS'external_nodes'
p70
(dp71
sS'_Hgraph__cached_triples'
p72
NsS'rev_external_nodes'
p73
(dp74
sS'roots'
p75
(lp76
g51
asS'edge_alignments'
p77
(dp78
sbsS'f'
(lp79
S'Four'
p80
aS'years'
p81
aS'of'
p82
aS'[A1-1]'
p83
aS'ended'
p84
aS'in'
p85
aS'1918'
p86
asS'hcost'
p87
I0
sS'cost'
p88
I0
sS'lhs'
p89
g83
sS'fcosts'
p90
(lp91
sS'grammar'
p92
NsS'feats'
p93
(lp94
sbI1
sg1
(g12
g3
NtRp95
(dp96
S'e'
g15
(tRp97
S'_5'
p98
g18
(tRp99
S'c/civilization'
p100
(lp101
(tassS'_4'
p102
g18
(tRp103
S'g/globe'
p104
(lp105
(tassS'_3'
p106
g18
(tRp107
S'w/we'
p108
(lp109
(tassS'_2'
p110
g18
(tRp111
S'poss'
p112
(lp113
(g106
tp114
asS'l/land'
p115
(lp116
(tassS'_1'
p117
g18
(tRp118
S'h/here'
p119
(lp120
(tassS'_0'
p121
g18
(tRp122
S's/struggle-01'
p123
(lp124
(tasS'ARG0'
p125
(lp126
(g98
tp127
asS'location'
p128
(lp129
(g117
tp130
a(g110
tp131
asS'mod'
p132
(lp133
(g102
tp134
ass(dp135
g63
I11
sg72
Nsg68
(dp136
sg77
(dp137
sg62
I00
sg64
(dp138
g121
Nssg66
I0
sg67
Nsg75
(lp139
g121
asg70
(dp140
sg73
(dp141
sbsS'f'
(lp142
S'global'
p143
aS'struggle'
p144
aS'of'
p145
aS'civilizations'
p146
aS'is'
p147
aS'happening'
p148
aS'here'
p149
aS'on'
p150
aS'our'
p151
aS'land'
p152
asg87
I0
sg88
I0
sg89
S'[A1-1]'
p153
sg90
(lp154
sg92
Nsg93
(lp155
sbI-1
sg1
(g12
g3
NtRp156
(dp157
S'e'
g15
(tRp158
S'_5'
p159
g18
(tRp160
sS'_4'
p161
g18
(tRp162
S't/this'
p163
(lp164
(tassS'_3'
p165
g18
(tRp166
sS'_2'
p167
g18
(tRp168
S'f4/few'
p169
(lp170
(tasS'op1'
p171
(lp172
(g165
tp173
asS'mod'
p174
(lp175
(g161
tp176
assS'_1'
p177
g18
(tRp178
S'ARG0'
p179
(lp180
(g159
tp181
asS'ARG1'
p182
(lp183
(g167
tp184
asS'd/drag-01'
p185
(lp186
(tassS'_0'
p187
g18
(tRp188
g1
(g33
g3
NtRp189
(dp190
g36
I0
sg37
S'A2-10'
p191
sb(lp192
(g177
tp193
ass(dp194
g62
I00
sg63
I8
sg64
(dp195
g187
Nssg66
I0
sg67
Nsg68
(dp196
sg70
(dp197
g159
I0
sg165
I1
ssg72
Nsg73
(dp198
I0
S'_5'
p199
sI1
S'_3'
p200
ssg75
(lp201
g187
asg77
(dp202
sbsS'f'
(lp203
S'[A2-10]'
p204
aS'drag'
p205
aS'for'
p206
aS'these'
p207
aS'few'
p208
asg87
I0
sg88
I0
sg89
S'[A3-100]'
p209
sg90
(lp210
sg92
Nsg93
(lp211
sbI1
sg1
(g12
g3
NtRp212
(dp213
S'e'
g15
(tRp214
S'_7'
p215
g18
(tRp216
S'c/capture-01'
p217
(lp218
(tassS'_6'
p219
g18
(tRp220
S'f/free-01'
p221
(lp222
(tassS'_5'
p223
g18
(tRp224
S'p/person'
p225
(lp226
(tasS'ARG1-of'
p227
(lp228
(g219
tp229
a(g215
tp230
assS'_4'
p231
g18
(tRp232
S'l/list-01'
p233
(lp234
(tasS'ARG1'
p235
(lp236
(g223
tp237
assS'_3'
p238
g18
(tRp239
S't/thing'
p240
(lp241
(tasS'ARG2-of'
p242
(lp243
(g231
tp244
assS'_2'
p245
g18
(tRp246
S'm/minor'
p247
(lp248
(tassS'_1'
p249
g18
(tRp250
g1
(g33
g3
NtRp251
(dp252
g36
I0
sg37
S'A2-10'
p253
sb(lp254
(g245
tp255
assS'_0'
p256
g18
(tRp257
S'i/include-01'
p258
(lp259
(tasS'ARG1'
p260
(lp261
(g249
tp262
asS'ARG2'
p263
(lp264
(g238
tp265
ass(dp266
g63
I14
sg72
Nsg68
(dp267
sg77
(dp268
sg62
I00
sg64
(dp269
g256
Nssg66
I0
sg67
Nsg75
(lp270
g256
asg70
(dp271
sg73
(dp272
sbsS'f'
(lp273
S'freed'
p274
aS'captives'
p275
aS"'"
aS'list'
p276
aS'included'
p277
aS'[A2-10]'
p278
aS'minors'
p279
asg87
I0
sg88
I0
sg89
S'[A1-1]'
p280
sg90
(lp281
sg92
Nsg93
(lp282
sbI-1
sg1
(g12
g3
NtRp283
(dp284
S'e'
g15
(tRp285
S'_1'
p286
g18
(tRp287
S'w/we'
p288
(lp289
(tassS'_0'
p290
g18
(tRp291
S'ARG0'
p292
(lp293
(g286
tp294
asg1
(g33
g3
NtRp295
(dp296
g36
I0
sg37
S'A1-0'
p297
sb(lp298
(tasS'a/apologize-01'
p299
(lp300
(tass(dp301
g62
I00
sg63
I4
sg64
(dp302
g290
Nssg66
I0
sg67
Nsg68
(dp303
sg70
(dp304
sg72
Nsg73
(dp305
sg75
(lp306
g290
asg77
(dp307
sbsS'f'
(lp308
S'We'
p309
aS'apologize'
p310
aS'[A1-0]'
p311
asg87
I0
sg88
I0
sg89
g83
sg90
(lp312
sg92
Nsg93
(lp313
sbI1
sg1
(g12
g3
NtRp314
(dp315
S'e'
g15
(tRp316
S'_3'
p317
g18
(tRp318
S'ARG1'
p319
(lp320
(S'_1'
tp321
asS'a2/attend-02'
p322
(lp323
(tassS'_2'
p324
g18
(tRp325
g1
(g33
g3
NtRp326
(dp327
g36
I1
sg37
S'A1-1'
p328
sb(lp329
(tassS'_1'
p330
g18
(tRp331
g1
(g33
g3
NtRp332
(dp333
g36
I0
sg37
S'A2-10'
p334
sb(lp335
(g324
tp336
assS'_0'
p337
g18
(tRp338
g1
(g33
g3
NtRp339
(dp340
g36
I2
sg37
S'A3-100'
p341
sb(lp342
(g330
g317
tp343
ass(dp344
g62
I00
sg63
I5
sg64
(dp345
g337
Nssg66
I0
sg67
Nsg68
(dp346
sg70
(dp347
sg72
Nsg73
(dp348
sg75
(lp349
g337
asg77
(dp350
sbsS'f'
(lp351
g204
ag83
aS','
aS'which'
p352
aS'will'
p353
ag209
aS'of'
p354
aS'attention'
p355
asg87
I0
sg88
I0
sg89
g83
sg90
(lp356
sg92
Nsg93
(lp357
sbI1
sg1
(g12
g3
NtRp358
(dp359
S'e'
g15
(tRp360
S'_3'
p361
g18
(tRp362
S'm/multinational'
p363
(lp364
(tassS'_2'
p365
g18
(tRp366
S'f/force'
p367
(lp368
(tasS'mod'
p369
(lp370
(g361
tp371
assS'_1'
p372
g18
(tRp373
sS'_0'
p374
g18
(tRp375
S'ARG0'
p376
(lp377
(g372
tp378
asS'ARG1'
p379
(lp380
(g365
tp381
asS's/send-01'
p382
(lp383
(tass(dp384
g63
I6
sg72
Nsg68
(dp385
sg77
(dp386
sg62
I00
sg64
(dp387
g374
Nssg66
I0
sg67
Nsg75
(lp388
g374
asg70
(dp389
g372
I0
ssg73
(dp390
I0
S'_1'
p391
ssbsS'f'
(lp392
S'sent'
p393
aS'the'
p394
aS'multinational'
p395
aS'force'
p396
asg87
I0
sg88
I0
sg89
S'[A2-10]'
p397
sg90
(lp398
sg92
Nsg93
(lp399
sbI-1
sg1
(g12
g3
NtRp400
(dp401
S'e'
g15
(tRp402
S'_2'
p403
g18
(tRp404
g1
(g33
g3
NtRp405
(dp406
g36
I0
sg37
S'A1-1'
p407
sb(lp408
(tassS'_1'
p409
g18
(tRp410
S'q/question-01'
p411
(lp412
(tasS'ARG1'
p413
(lp414
(g403
tp415
assS'_0'
p416
g18
(tRp417
S'ARG3'
p418
(lp419
(g409
tp420
ass(dp421
g63
I4
sg72
Nsg68
(dp422
sg77
(dp423
sg62
I00
sg64
(dp424
g416
Nssg66
I0
sg67
Nsg75
(lp425
g416
asg70
(dp426
sg73
(dp427
sbsS'f'
(lp428
S'to'
p429
aS'questions'
p430
aS'about'
p431
aS'the'
p432
aS'[A1-1]'
p433
asg87
I0
sg88
I0
sg89
S'[A1-0]'
p434
sg90
(lp435
sg92
Nsg93
(lp436
sbI-1
sg1
(g12
g3
NtRp437
(dp438
S'e'
g15
(tRp439
S'_5'
p440
g18
(tRp441
sS'_4'
p442
g18
(tRp443
g1
(g33
g3
NtRp444
(dp445
g36
I0
sg37
S'A2-10'
p446
sb(lp447
(g440
tp448
assS'_3'
p449
g18
(tRp450
sS'_2'
p451
g18
(tRp452
S'o/old'
p453
(lp454
(tassS'_1'
p455
g18
(tRp456
S'c/couple'
p457
(lp458
(tasS'mod'
p459
(lp460
(g451
tp461
assS'_0'
p462
g18
(tRp463
S'ARG0'
p464
(lp465
(g455
tp466
asS'ARG1'
p467
(lp468
(g449
tp469
asS'ARG2'
p470
(lp471
(g442
tp472
asS'i2/invite-01'
p473
(lp474
(tass(dp475
g62
I00
sg63
I8
sg64
(dp476
g462
Nssg66
I0
sg67
Nsg68
(dp477
sg70
(dp478
S'_5'
p479
I3
sg442
I2
sg449
I1
sg455
I0
ssg72
Nsg73
(dp480
I0
S'_1'
p481
sI1
S'_3'
p482
sI2
S'_4'
p483
sI3
g479
ssg75
(lp484
g462
asg77
(dp485
sbsS'f'
(lp486
S'old'
p487
aS'couple'
p488
aS"'s"
p489
aS'invitation'
p490
aS'to'
p491
aS'him'
p492
aS'to'
p493
ag204
asg87
I0
sg88
I0
sg89
S'[A5-11010]'
p494
sg90
(lp495
sg92
Nsg93
(lp496
sbI1
sg1
(g12
g3
NtRp497
(dp498
S'e'
g15
(tRp499
S'_9'
p500
g18
(tRp501
sS'_8'
p502
g18
(tRp503
S's3/swimsuit'
p504
(lp505
(tassS'_7'
p506
g18
(tRp507
S'd/dress'
p508
(lp509
(tassS'_6'
p510
g18
(tRp511
g1
(g33
g3
NtRp512
(dp513
g36
I0
sg37
S'A3-100'
p514
sb(lp515
(g506
g502
tp516
assS'_5'
p517
g18
(tRp518
g1
(g33
g3
NtRp519
(dp520
g36
I1
sg37
S'A3-101'
p521
sb(lp522
(g510
g500
tp523
assS'_4'
p524
g18
(tRp525
S's2/spokesperson'
p526
(lp527
(tassS'_3'
p528
g18
(tRp529
S'c/company'
p530
(lp531
(tassS'_2'
p532
g18
(tRp533
S'ARG1'
p534
(lp535
(g528
tp536
asS'h/have-org-role-91'
p537
(lp538
(tasS'ARG2'
p539
(lp540
(g524
tp541
assS'_1'
p542
g18
(tRp543
S'p3/person'
p544
(lp545
(tasS'ARG0-of'
p546
(lp547
(g532
tp548
assS'_0'
p549
g18
(tRp550
S'ARG0'
p551
(lp552
(g542
tp553
asS's/say-01'
p554
(lp555
(tasS'ARG1'
p556
(lp557
(g517
tp558
ass(dp559
g63
I14
sg72
Nsg68
(dp560
sg77
(dp561
sg62
I00
sg64
(dp562
g549
Nssg66
I0
sg67
Nsg75
(lp563
g549
asg70
(dp564
S'_9'
p565
I0
ssg73
(dp566
I0
g565
ssbsS'f'
(lp567
S'spokesperson'
p568
aS'for'
p569
aS'the'
p570
aS'company'
p571
aS'said'
p572
aS','
aS'"'
aS'The'
p573
aS'dress'
p574
aS'[A3-100]'
p575
aS'swimsuit'
p576
aS'[A3-101]'
p577
asg87
I0
sg88
I0
sg89
S'[A2-11]'
p578
sg90
(lp579
sg92
Nsg93
(lp580
sbI-1
sg1
(g12
g3
NtRp581
(dp582
S'e'
g15
(tRp583
S'_5'
p584
g18
(tRp585
sS'_4'
p586
g18
(tRp587
S'prep-with'
p588
(lp589
(S'_1'
tp590
asg1
(g33
g3
NtRp591
(dp592
g36
I0
sg37
S'A2-10'
p593
sb(lp594
(g584
tp595
assS'_3'
p596
g18
(tRp597
sS'_2'
p598
g18
(tRp599
S'o/old'
p600
(lp601
(tassS'_1'
p602
g18
(tRp603
S'c/couple'
p604
(lp605
(tasS'mod'
p606
(lp607
(g598
tp608
assS'_0'
p609
g18
(tRp610
S'ARG0'
p611
(lp612
(g602
tp613
asS'ARG1'
p614
(lp615
(g596
tp616
asS'ARG2'
p617
(lp618
(g586
tp619
asS'i2/invite-01'
p620
(lp621
(tass(dp622
g63
I9
sg72
Nsg68
(dp623
sg77
(dp624
sg62
I00
sg64
(dp625
g609
Nssg66
I0
sg67
Nsg75
(lp626
g609
asg70
(dp627
S'_5'
p628
I2
sg596
I1
sg602
I0
ssg73
(dp629
I0
S'_1'
p630
sI1
S'_3'
p631
sI2
g628
ssbsS'f'
(lp632
S'old'
p633
aS'couple'
p634
aS"'s"
p635
aS'invitation'
p636
aS'to'
p637
aS'him'
p638
aS'to'
p639
aS'[A2-10]'
p640
aS'with'
p641
asg87
I0
sg88
I0
sg89
S'[A4-1100]'
p642
sg90
(lp643
sg92
Nsg93
(lp644
sbI-1
sg1
(g12
g3
NtRp645
(dp646
S'e'
g15
(tRp647
S'_2'
p648
g18
(tRp649
S'e/emergency'
p650
(lp651
(tassS'_1'
p652
g18
(tRp653
g1
(g33
g3
NtRp654
(dp655
g36
I0
sg37
S'A1-1'
p656
sb(lp657
(tassS'_0'
p658
g18
(tRp659
S's2/service'
p660
(lp661
(tasS'location'
p662
(lp663
(g652
tp664
asS'mod'
p665
(lp666
(g648
tp667
ass(dp668
g62
I00
sg63
I5
sg64
(dp669
g658
Nssg66
I0
sg67
Nsg68
(dp670
sg70
(dp671
sg72
Nsg73
(dp672
sg75
(lp673
g658
asg77
(dp674
sbsS'f'
(lp675
g83
aS'emergency'
p676
aS'services'
p677
asg87
I0
sg88
I0
sg89
g83
sg90
(lp678
sg92
Nsg93
(lp679
sbI1
sg1
(g12
g3
NtRp680
(dp681
S'e'
g15
(tRp682
S'_2'
p683
g18
(tRp684
g1
(g33
g3
NtRp685
(dp686
g36
I2
sg37
S'A1-1'
p687
sb(lp688
(tassS'_1'
p689
g18
(tRp690
g1
(g33
g3
NtRp691
(dp692
g36
I1
sg37
S'A2-10'
p693
sb(lp694
(g683
tp695
assS'_0'
p696
g18
(tRp697
S'mod'
p698
(lp699
(g689
tp700
asg1
(g33
g3
NtRp701
(dp702
g36
I0
sg37
S'A1-1'
p703
sb(lp704
(tass(dp705
g62
I00
sg63
I4
sg64
(dp706
g696
Nssg66
I0
sg67
Nsg68
(dp707
sg70
(dp708
sg72
Nsg73
(dp709
sg75
(lp710
g696
asg77
(dp711
sbsS'f'
(lp712
S'[A1-1]'
p713
aS','
aS'the'
p714
aS'[A2-10]'
p715
ag713
asg87
I0
sg88
I0
sg89
g713
sg90
(lp716
sg92
Nsg93
(lp717
sbI-1
sg1
(g12
g3
NtRp718
(dp719
S'e'
g15
(tRp720
S'_6'
p721
g18
(tRp722
S'a2/also'
p723
(lp724
(tassS'_5'
p725
g18
(tRp726
sS'_4'
p727
g18
(tRp728
g1
(g33
g3
NtRp729
(dp730
g36
I2
sg37
S'A3-100'
p731
sb(lp732
(S'_2'
g725
tp733
assS'_3'
p734
g18
(tRp735
sS'_2'
p736
g18
(tRp737
sS'_1'
p738
g18
(tRp739
g1
(g33
g3
NtRp740
(dp741
g36
I1
sg37
S'A4-0100'
p742
sb(lp743
(g736
g734
g727
tp744
asS'a/accelerate-01'
p745
(lp746
(tasS'mod'
p747
(lp748
(g721
tp749
assS'_0'
p750
g18
(tRp751
S'ARG1'
p752
(lp753
(g738
tp754
asg1
(g33
g3
NtRp755
(dp756
g36
I0
sg37
S'A1-1'
p757
sb(lp758
(tass(dp759
g62
I00
sg63
I7
sg64
(dp760
g750
Nssg66
I0
sg67
Nsg68
(dp761
sg70
(dp762
S'_5'
p763
I2
sS'_3'
p764
I1
sS'_2'
p765
I0
ssg72
Nsg73
(dp766
I0
S'_2'
p767
sI1
g764
sI2
g763
ssg75
(lp768
g750
asg77
(dp769
sbsS'f'
(lp770
g83
aS'that'
p771
aS'[A4-0100]'
p772
aS','
aS'they'
p773
aS'also'
p774
aS'accelerate'
p775
aS'the'
p776
ag209
asg87
I0
sg88
I0
sg89
S'[A4-1100]'
p777
sg90
(lp778
sg92
Nsg93
(lp779
sbI1
sg1
(g12
g3
NtRp780
(dp781
S'e'
g15
(tRp782
S'_5'
p783
g18
(tRp784
S'ARG1'
p785
(lp786
(S'_1'
tp787
asS'a2/attend-02'
p788
(lp789
(tassS'_4'
p790
g18
(tRp791
g1
(g33
g3
NtRp792
(dp793
g36
I0
sg37
S'A1-1'
p794
sb(lp795
(tassS'_3'
p796
g18
(tRp797
S'6'
(lp798
(tassS'_2'
p799
g18
(tRp800
S'o/ordinal-entity'
p801
(lp802
(tasS'value'
p803
(lp804
(g796
tp805
assS'_1'
p806
g18
(tRp807
S'ord'
p808
(lp809
(g799
tp810
asS't/tour'
p811
(lp812
(tasS'subevent-of'
p813
(lp814
(g790
tp815
assS'_0'
p816
g18
(tRp817
g1
(g33
g3
NtRp818
(dp819
g36
I1
sg37
S'A3-100'
p820
sb(lp821
(g806
g783
tp822
ass(dp823
g63
I10
sg72
Nsg68
(dp824
sg77
(dp825
sg62
I00
sg64
(dp826
g816
Nssg66
I0
sg67
Nsg75
(lp827
g816
asg70
(dp828
sg73
(dp829
sbsS'f'
(lp830
S'sixth'
p831
aS'Tour'
p832
aS'of'
p833
aS'[A1-1]'
p834
aS','
aS'which'
p835
aS'will'
p836
aS'[A3-100]'
p837
aS'of'
p838
aS'attention'
p839
asg87
I0
sg88
I0
sg89
g834
sg90
(lp840
sg92
Nsg93
(lp841
sbI-1
sg1
(g12
g3
NtRp842
(dp843
S'e'
g15
(tRp844
S'_1'
p845
g18
(tRp846
S'p4/press'
p847
(lp848
(tassS'_0'
p849
g18
(tRp850
S'c2/correspondent'
p851
(lp852
(tasS'mod'
p853
(lp854
(g845
tp855
ass(dp856
g63
I3
sg72
Nsg68
(dp857
sg77
(dp858
sg62
I00
sg64
(dp859
g849
Nssg66
I0
sg67
Nsg75
(lp860
g849
asg70
(dp861
sg73
(dp862
sbsS'f'
(lp863
S'Press'
p864
aS'Correspondent'
p865
asg87
I0
sg88
I0
sg89
S'[A1-1]'
p866
sg90
(lp867
sg92
Nsg93
(lp868
sbI-1
sg1
(g12
g3
NtRp869
(dp870
S'e'
g15
(tRp871
S'_3'
p872
g18
(tRp873
g1
(g33
g3
NtRp874
(dp875
g36
I0
sg37
S'A1-1'
p876
sb(lp877
(tassS'_2'
p878
g18
(tRp879
S'ARG0'
p880
(lp881
(g872
tp882
asS'w/work-01'
p883
(lp884
(tassS'_1'
p885
g18
(tRp886
S'ARG1'
p887
(lp888
(g878
tp889
asS'i/improve-01'
p890
(lp891
(tassS'_0'
p892
g18
(tRp893
S'ARG1'
p894
(lp895
(g885
tp896
asS'v/view-02'
p897
(lp898
(tass(dp899
g63
I7
sg72
Nsg68
(dp900
sg77
(dp901
sg62
I00
sg64
(dp902
g892
Nssg66
I0
sg67
Nsg75
(lp903
g892
asg70
(dp904
g885
I0
ssg73
(dp905
I0
S'_1'
p906
ssbsS'f'
(lp907
S'views'
p908
aS'on'
p909
aS'improving'
p910
aS'the'
p911
aS'work'
p912
aS'of'
p913
ag433
asg87
I0
sg88
I0
sg89
g578
sg90
(lp914
sg92
Nsg93
(lp915
sbI-1
sg1
(g12
g3
NtRp916
(dp917
S'e'
g15
(tRp918
S'_7'
p919
g18
(tRp920
S'-'
(lp921
(tassS'_6'
p922
g18
(tRp923
S'polarity'
p924
(lp925
(g919
tp926
asS'l/less'
p927
(lp928
(tassS'_5'
p929
g18
(tRp930
S'mod'
p931
(lp932
(g922
tp933
assS'_4'
p934
g18
(tRp935
S'ARG1'
p936
(lp937
(g929
tp938
assS'_3'
p939
g18
(tRp940
g1
(g33
g3
NtRp941
(dp942
g36
I0
sg37
S'A2-11'
p943
sb(lp944
(g934
tp945
assS'_2'
p946
g18
(tRp947
S's/state-01'
p948
(lp949
(tassS'_1'
p950
g18
(tRp951
S'ARG1-of'
p952
(lp953
(g946
tp954
asS't/thing'
p955
(lp956
(tassS'_0'
p957
g18
(tRp958
S'ARG0'
p959
(lp960
(g950
tp961
asS'ARG1'
p962
(lp963
(g939
tp964
asS'a/add-01'
p965
(lp966
(tass(dp967
g63
I12
sg72
Nsg68
(dp968
sg77
(dp969
sg62
I00
sg64
(dp970
g957
Nssg66
I0
sg67
Nsg75
(lp971
g957
asg70
(dp972
g929
I0
ssg73
(dp973
I0
S'_5'
p974
ssbsS'f'
(lp975
S'statement'
p976
aS'added'
p977
aS','
aS'"'
aS'The'
p978
ag578
aS'of'
p979
aS'no'
p980
aS'less'
p981
asg87
I0
sg88
I0
sg89
S'[A2-10]'
p982
sg90
(lp983
sg92
Nsg93
(lp984
sbI-1
sg1
(g12
g3
NtRp985
(dp986
S'e'
g15
(tRp987
S'_8'
p988
g18
(tRp989
S'p3/person'
p990
(lp991
(tassS'_7'
p992
g18
(tRp993
S'-'
(lp994
(tassS'_6'
p995
g18
(tRp996
S'v/very'
p997
(lp998
(tassS'_5'
p999
g18
(tRp1000
S'polarity'
p1001
(lp1002
(g992
tp1003
asS'p2/probable'
p1004
(lp1005
(tasS'degree'
p1006
(lp1007
(g995
tp1008
assS'_4'
p1009
g18
(tRp1010
S'b/back'
p1011
(lp1012
(tassS'_3'
p1013
g18
(tRp1014
S'i2/immediate'
p1015
(lp1016
(tassS'_2'
p1017
g18
(tRp1018
S'c/come-01'
p1019
(lp1020
(tasS'direction'
p1021
(lp1022
(g1009
tp1023
asS'mod'
p1024
(lp1025
(g999
tp1026
asS'ARG1'
p1027
(lp1028
(g988
tp1029
asS'time'
p1030
(lp1031
(g1013
tp1032
assS'_1'
p1033
g18
(tRp1034
sS'_0'
p1035
g18
(tRp1036
S'a/and'
p1037
(lp1038
(tasS'op1'
p1039
(lp1040
(g1033
tp1041
asS'op2'
p1042
(lp1043
(g1017
tp1044
ass(dp1045
g62
I00
sg63
I16
sg64
(dp1046
g1035
Nssg66
I0
sg67
Nsg68
(dp1047
sg70
(dp1048
g1033
I0
sg988
I1
ssg72
Nsg73
(dp1049
I0
S'_1'
p1050
sI1
S'_8'
p1051
ssg75
(lp1052
g1035
asg77
(dp1053
sbsS'f'
(lp1054
S'and'
p1055
aS'very'
p1056
aS'probably'
p1057
aS'cannot'
p1058
aS'come'
p1059
aS'back'
p1060
aS'immediately'
p1061
asg87
I0
sg88
I0
sg89
S'[A3-101]'
p1062
sg90
(lp1063
sg92
Nsg93
(lp1064
sbI1
sg1
(g12
g3
NtRp1065
(dp1066
S'e'
g15
(tRp1067
S'_6'
p1068
g18
(tRp1069
S'o2/only'
p1070
(lp1071
(tassS'_5'
p1072
g18
(tRp1073
S'j/jail'
p1074
(lp1075
(tassS'_4'
p1076
g18
(tRp1077
S'ARG1'
p1078
(lp1079
(S'_1'
tp1080
asS'ARG2'
p1081
(lp1082
(g1072
tp1083
asS'r2/return-01'
p1084
(lp1085
(tasS'mod'
p1086
(lp1087
(g1068
tp1088
assS'_3'
p1089
g18
(tRp1090
S'b/bank'
p1091
(lp1092
(tassS'_2'
p1093
g18
(tRp1094
S'o/old'
p1095
(lp1096
(tassS'_1'
p1097
g18
(tRp1098
S'm/man'
p1099
(lp1100
(tasS'mod'
p1101
(lp1102
(g1093
tp1103
assS'_0'
p1104
g18
(tRp1105
S'ARG0'
p1106
(lp1107
(g1097
tp1108
asS'ARG1'
p1109
(lp1110
(g1089
tp1111
asS'purpose'
p1112
(lp1113
(g1076
tp1114
asS'r/rob-01'
p1115
(lp1116
(tass(dp1117
g63
I14
sg72
Nsg68
(dp1118
sg77
(dp1119
sg62
I00
sg64
(dp1120
g1104
Nssg66
I0
sg67
Nsg75
(lp1121
g1104
asg70
(dp1122
sg73
(dp1123
sbsS'f'
(lp1124
S'Old'
p1125
aS'Man'
p1126
aS'Robs'
p1127
aS'a'
aS'Bank'
p1128
aS'..'
p1129
aS'Only'
p1130
aS'to'
p1131
aS'Return'
p1132
aS'to'
p1133
aS'Jail'
p1134
asg87
I0
sg88
I0
sg89
g433
sg90
(lp1135
sg92
Nsg93
(lp1136
sbI-1
sg1
(g12
g3
NtRp1137
(dp1138
S'e'
g15
(tRp1139
S'_4'
p1140
g18
(tRp1141
S't/this'
p1142
(lp1143
(tassS'_3'
p1144
g18
(tRp1145
S's2/season'
p1146
(lp1147
(tasS'mod'
p1148
(lp1149
(g1140
tp1150
assS'_2'
p1151
g18
(tRp1152
S'i/ice'
p1153
(lp1154
(tassS'_1'
p1155
g18
(tRp1156
S's/sheet'
p1157
(lp1158
(tasS'consist-of'
p1159
(lp1160
(g1151
tp1161
asS'mod'
p1162
(lp1163
(g1144
tp1164
assS'_0'
p1165
g18
(tRp1166
g1
(g33
g3
NtRp1167
(dp1168
g36
I0
sg37
S'A2-10'
p1169
sb(lp1170
(g1155
tp1171
ass(dp1172
g63
I8
sg72
Nsg68
(dp1173
sg77
(dp1174
sg62
I00
sg64
(dp1175
g1165
Nssg66
I0
sg67
Nsg75
(lp1176
g1165
asg70
(dp1177
sg73
(dp1178
sbsS'f'
(lp1179
S'ice'
p1180
aS'sheet'
p1181
aS'has'
p1182
ag982
aS'this'
p1183
aS'season'
p1184
asg87
I0
sg88
I0
sg89
g433
sg90
(lp1185
sg92
Nsg93
(lp1186
sbI-1
sg1
(g12
g3
NtRp1187
(dp1188
S'e'
g15
(tRp1189
S'_9'
p1190
g18
(tRp1191
S'n/name'
p1192
(lp1193
(tasS'op1'
p1194
(lp1195
(S'_10'
p1196
tp1197
assS'_8'
p1198
g18
(tRp1199
S'"Yahoo!_Messenger"'
p1200
(lp1201
(tassS'_7'
p1202
g18
(tRp1203
S'wiki'
p1204
(lp1205
(g1198
tp1206
asS'p/product'
p1207
(lp1208
(tasS'name'
p1209
(lp1210
(g1190
tp1211
assS'_6'
p1212
g18
(tRp1213
S'a3/any'
p1214
(lp1215
(tassS'_5'
p1216
g18
(tRp1217
S'i/inquire-01'
p1218
(lp1219
(tassS'_4'
p1220
g18
(tRp1221
S'm/message'
p1222
(lp1223
(tassS'_3'
p1224
g18
(tRp1225
S'mod'
p1226
(lp1227
(g1212
tp1228
asS'o/or'
p1229
(lp1230
(tasS'op2'
p1231
(lp1232
(g1216
tp1233
asS'op1'
p1234
(lp1235
(g1220
tp1236
assS'_2'
p1237
g18
(tRp1238
S'-'
(lp1239
(tassS'_1'
p1240
g18
(tRp1241
S'polarity'
p1242
(lp1243
(g1237
tp1244
asS'ARG1'
p1245
(lp1246
(g1224
tp1247
asS'medium'
p1248
(lp1249
(g1202
tp1250
asS'a2/answer-01'
p1251
(lp1252
(tassS'_0'
p1253
g18
(tRp1254
S'ARG1'
p1255
(lp1256
(g1240
tp1257
assg1196
g18
(tRp1258
S'"Messenger"'
p1259
(lp1260
(tass(dp1261
g62
I00
sg63
I20
sg64
(dp1262
g1253
Nssg66
I0
sg67
Nsg68
(dp1263
sg70
(dp1264
sg72
Nsg73
(dp1265
sg75
(lp1266
g1253
asg77
(dp1267
sbsS'f'
(lp1268
S'for'
p1269
aS'not'
p1270
aS'answering'
p1271
aS'any'
p1272
aS'messages'
p1273
aS'or'
p1274
aS'inquiries'
p1275
aS'through'
p1276
aS'Messenger'
p1277
asg87
I0
sg88
I0
sg89
g311
sg90
(lp1278
sg92
Nsg93
(lp1279
sbI1
sg1
(g12
g3
NtRp1280
(dp1281
S'e'
g15
(tRp1282
S'_8'
p1283
g18
(tRp1284
S'p3/pound'
p1285
(lp1286
(tassS'_7'
p1287
g18
(tRp1288
S'm2/monetary-quantity'
p1289
(lp1290
(tasS'unit'
p1291
(lp1292
(g1283
tp1293
assS'_6'
p1294
g18
(tRp1295
S'a2/also'
p1296
(lp1297
(tassS'_5'
p1298
g18
(tRp1299
S's/slight'
p1300
(lp1301
(tassS'_4'
p1302
g18
(tRp1303
S'g/gain-02'
p1304
(lp1305
(tassS'_3'
p1306
g18
(tRp1307
S'ARG1-of'
p1308
(lp1309
(g1302
tp1310
asS't/thing'
p1311
(lp1312
(tasS'mod'
p1313
(lp1314
(g1298
tp1315
assS'_2'
p1316
g18
(tRp1317
g1
(g33
g3
NtRp1318
(dp1319
g36
I0
sg37
S'A1-1'
p1320
sb(lp1321
(tassS'_1'
p1322
g18
(tRp1323
S'ARG0'
p1324
(lp1325
(g1316
tp1326
asS'ARG1'
p1327
(lp1328
(g1306
tp1329
asS'mod'
p1330
(lp1331
(g1294
tp1332
asS'a/achieve-01'
p1333
(lp1334
(tassS'_0'
p1335
g18
(tRp1336
g1
(g33
g3
NtRp1337
(dp1338
g36
I1
sg37
S'A3-100'
p1339
sb(lp1340
(g1322
g1287
tp1341
ass(dp1342
g62
I00
sg63
I15
sg64
(dp1343
g1335
Nssg66
I0
sg67
Nsg68
(dp1344
sg70
(dp1345
sg72
Nsg73
(dp1346
sg75
(lp1347
g1335
asg77
(dp1348
sbsS'f'
(lp1349
g83
aS'also'
p1350
aS'achieved'
p1351
aS'slight'
p1352
aS'gains'
p1353
aS'.'
ag209
aS'pounds'
p1354
asg87
I0
sg88
I0
sg89
g83
sg90
(lp1355
sg92
Nsg93
(lp1356
sbI1
sg1
(g12
g3
NtRp1357
(dp1358
S'e'
g15
(tRp1359
S'_3'
p1360
g18
(tRp1361
sS'_2'
p1362
g18
(tRp1363
g1
(g33
g3
NtRp1364
(dp1365
g36
I0
sg37
S'A1-1'
p1366
sb(lp1367
(tassS'_1'
p1368
g18
(tRp1369
S'ARG1'
p1370
(lp1371
(g1362
tp1372
asS'ARG2'
p1373
(lp1374
(g1360
tp1375
asS's3/send-01'
p1376
(lp1377
(tassS'_0'
p1378
g18
(tRp1379
S'n/network'
p1380
(lp1381
(tasS'ARG0-of'
p1382
(lp1383
(g1368
tp1384
ass(dp1385
g62
I00
sg63
I6
sg64
(dp1386
g1378
Nssg66
I0
sg67
Nsg68
(dp1387
sg70
(dp1388
g1360
I0
ssg72
Nsg73
(dp1389
I0
S'_3'
p1390
ssg75
(lp1391
g1378
asg77
(dp1392
sbsS'f'
(lp1393
S'network'
p1394
aS'that'
p1395
aS'sends'
p1396
ag83
asg87
I0
sg88
I0
sg89
g204
sg90
(lp1397
sg92
Nsg93
(lp1398
sbI1
sg1
(g12
g3
NtRp1399
(dp1400
S'e'
g15
(tRp1401
S'_7'
p1402
g18
(tRp1403
sS'_6'
p1404
g18
(tRp1405
S'm/month'
p1406
(lp1407
(tassS'_5'
p1408
g18
(tRp1409
S'1'
(lp1410
(tassS'_4'
p1411
g18
(tRp1412
S'quant'
p1413
(lp1414
(g1408
tp1415
asS't/temporal-quantity'
p1416
(lp1417
(tasS'unit'
p1418
(lp1419
(g1404
tp1420
assS'_3'
p1421
g18
(tRp1422
g1
(g33
g3
NtRp1423
(dp1424
g36
I0
sg37
S'A1-1'
p1425
sb(lp1426
(tassS'_2'
p1427
g18
(tRp1428
S'ARG1'
p1429
(lp1430
(g1421
tp1431
asS'ARG2'
p1432
(lp1433
(g1411
tp1434
asS'r/rate-entity-91'
p1435
(lp1436
(tassS'_1'
p1437
g18
(tRp1438
S'ARG1'
p1439
(lp1440
(g1427
tp1441
asS'ARG2'
p1442
(lp1443
(g1402
tp1444
asS's3/send-01'
p1445
(lp1446
(tassS'_0'
p1447
g18
(tRp1448
S'ARG0-of'
p1449
(lp1450
(g1437
tp1451
ass(dp1452
g63
I13
sg72
Nsg68
(dp1453
sg77
(dp1454
sg62
I00
sg64
(dp1455
g1447
Nssg66
I0
sg67
Nsg75
(lp1456
g1447
asg70
(dp1457
g1402
I0
ssg73
(dp1458
I0
S'_7'
p1459
ssbsS'f'
(lp1460
S'sends'
p1461
ag433
aS'monthly'
p1462
asg87
I0
sg88
I0
sg89
S'[A2-00]'
p1463
sg90
(lp1464
sg92
Nsg93
(lp1465
sbI-1
sg1
(g12
g3
NtRp1466
(dp1467
S'e'
g15
(tRp1468
S'_4'
p1469
g18
(tRp1470
S'b/busy'
p1471
(lp1472
(tassS'_3'
p1473
g18
(tRp1474
S's4/street'
p1475
(lp1476
(tasS'mod'
p1477
(lp1478
(g1469
tp1479
assS'_2'
p1480
g18
(tRp1481
S'c/corner'
p1482
(lp1483
(tasS'op1'
p1484
(lp1485
(g1473
tp1486
assS'_1'
p1487
g18
(tRp1488
S's/shop'
p1489
(lp1490
(tasS'location'
p1491
(lp1492
(g1480
tp1493
assS'_0'
p1494
g18
(tRp1495
g1
(g33
g3
NtRp1496
(dp1497
g36
I0
sg37
S'A2-10'
p1498
sb(lp1499
(g1487
tp1500
ass(dp1501
g63
I8
sg72
Nsg68
(dp1502
sg77
(dp1503
sg62
I00
sg64
(dp1504
g1494
Nssg66
I0
sg67
Nsg75
(lp1505
g1494
asg70
(dp1506
sg73
(dp1507
sbsS'f'
(lp1508
g397
aS'shoeshine'
p1509
aS'shop'
p1510
aS'on'
p1511
aS'a'
aS'busy'
p1512
aS'street'
p1513
aS'corner'
p1514
asg87
I0
sg88
I0
sg89
g153
sg90
(lp1515
sg92
Nsg93
(lp1516
sbI-1
sg1
(g12
g3
NtRp1517
(dp1518
S'e'
g15
(tRp1519
S'_4'
p1520
g18
(tRp1521
S'c/civilization'
p1522
(lp1523
(tassS'_3'
p1524
g18
(tRp1525
S'g/globe'
p1526
(lp1527
(tassS'_2'
p1528
g18
(tRp1529
sS'_1'
p1530
g18
(tRp1531
S'h/here'
p1532
(lp1533
(tassS'_0'
p1534
g18
(tRp1535
S's/struggle-01'
p1536
(lp1537
(tasS'ARG0'
p1538
(lp1539
(g1520
tp1540
asS'location'
p1541
(lp1542
(g1530
tp1543
a(g1528
tp1544
asS'mod'
p1545
(lp1546
(g1524
tp1547
ass(dp1548
g62
I00
sg63
I8
sg64
(dp1549
g1534
Nssg66
I0
sg67
Nsg68
(dp1550
sg70
(dp1551
g1528
I0
ssg72
Nsg73
(dp1552
I0
S'_2'
p1553
ssg75
(lp1554
g1534
asg77
(dp1555
sbsS'f'
(lp1556
S'global'
p1557
aS'struggle'
p1558
aS'of'
p1559
aS'civilizations'
p1560
aS'is'
p1561
aS'happening'
p1562
aS'here'
p1563
aS'on'
p1564
asg87
I0
sg88
I0
sg89
g204
sg90
(lp1565
sg92
Nsg93
(lp1566
sbI1
sg1
(g12
g3
NtRp1567
(dp1568
S'e'
g15
(tRp1569
S'_4'
p1570
g18
(tRp1571
S'"Rockstr\xc3\xb6m"'
p1572
(lp1573
(tassS'_3'
p1574
g18
(tRp1575
S'n/name'
p1576
(lp1577
(tasS'op1'
p1578
(lp1579
(g1570
tp1580
assS'_2'
p1581
g18
(tRp1582
S'"Johan_Rockstr\xc3\xb6m"'
p1583
(lp1584
(tassS'_1'
p1585
g18
(tRp1586
S'p/person'
p1587
(lp1588
(tasS'wiki'
p1589
(lp1590
(g1581
tp1591
asS'name'
p1592
(lp1593
(g1574
tp1594
assS'_0'
p1595
g18
(tRp1596
S'ARG0'
p1597
(lp1598
(g1585
tp1599
asS's/say-01'
p1600
(lp1601
(tass(dp1602
g62
I00
sg63
I9
sg64
(dp1603
g1595
Nssg66
I0
sg67
Nsg68
(dp1604
sg70
(dp1605
sg72
Nsg73
(dp1606
sg75
(lp1607
g1595
asg77
(dp1608
sbsS'f'
(lp1609
S'Rockstr\xc3\xb6m'
p1610
aS'said'
p1611
asg87
I0
sg88
I0
sg89
g83
sg90
(lp1612
sg92
Nsg93
(lp1613
sbI1
sg1
(g12
g3
NtRp1614
(dp1615
S'e'
g15
(tRp1616
S'_4'
p1617
g18
(tRp1618
S's4/sell-01'
p1619
(lp1620
(tassS'_3'
p1621
g18
(tRp1622
g1
(g33
g3
NtRp1623
(dp1624
g36
I1
sg37
S'A2-10'
p1625
sb(lp1626
(g1617
tp1627
assS'_2'
p1628
g18
(tRp1629
S'ARG1'
p1630
(lp1631
(g1621
tp1632
asS'c2/cause-01'
p1633
(lp1634
(tassS'_1'
p1635
g18
(tRp1636
sS'_0'
p1637
g18
(tRp1638
g1
(g33
g3
NtRp1639
(dp1640
g36
I0
sg37
S'A3-100'
p1641
sb(lp1642
(g1635
g1628
tp1643
ass(dp1644
g62
I00
sg63
I5
sg64
(dp1645
g1637
Nssg66
I0
sg67
Nsg68
(dp1646
sg70
(dp1647
S'_1'
p1648
I0
ssg72
Nsg73
(dp1649
I0
g1648
ssg75
(lp1650
g1637
asg77
(dp1651
sbsS'f'
(lp1652
g209
aS'.'
aS'Therefore'
p1653
aS','
aS'it'
p1654
aS'is'
p1655
ag204
aS'to'
p1656
aS'sell'
p1657
asg87
I0
sg88
I0
sg89
g204
sg90
(lp1658
sg92
Nsg93
(lp1659
sbI1
sg1
(g12
g3
NtRp1660
(dp1661
S'e'
g15
(tRp1662
S'_7'
p1663
g18
(tRp1664
S'"Xining"'
p1665
(lp1666
(tassS'_6'
p1667
g18
(tRp1668
S'n3/name'
p1669
(lp1670
(tasS'op1'
p1671
(lp1672
(g1663
tp1673
assS'_5'
p1674
g18
(tRp1675
S'"Xining"'
p1676
(lp1677
(tassS'_4'
p1678
g18
(tRp1679
S'c2/city'
p1680
(lp1681
(tasS'wiki'
p1682
(lp1683
(g1674
tp1684
asS'name'
p1685
(lp1686
(g1667
tp1687
assS'_3'
p1688
g18
(tRp1689
S'7'
(lp1690
(tassS'_2'
p1691
g18
(tRp1692
S'month'
p1693
(lp1694
(g1688
tp1695
assS'_1'
p1696
g18
(tRp1697
g1
(g33
g3
NtRp1698
(dp1699
g36
I1
sg37
S'A1-1'
p1700
sb(lp1701
(tassS'_0'
p1702
g18
(tRp1703
g1
(g33
g3
NtRp1704
(dp1705
g36
I0
sg37
S'A3-101'
p1706
sb(lp1707
(g1696
g1691
tp1708
asS'mod'
p1709
(lp1710
(g1678
tp1711
ass(dp1712
g63
I12
sg72
Nsg68
(dp1713
sg77
(dp1714
sg62
I00
sg64
(dp1715
g1702
Nssg66
I0
sg67
Nsg75
(lp1716
g1702
asg70
(dp1717
sg73
(dp1718
sbsS'f'
(lp1719
S'Xining'
p1720
aS','
aS'July'
p1721
ag577
aS')'
aS'The'
p1722
ag433
asg87
I0
sg88
I0
sg89
g433
sg90
(lp1723
sg92
Nsg93
(lp1724
sbI-1
sg1
(g12
g3
NtRp1725
(dp1726
S'e'
g15
(tRp1727
S'_6'
p1728
g18
(tRp1729
sS'_5'
p1730
g18
(tRp1731
sS'_4'
p1732
g18
(tRp1733
S'part-of'
p1734
(lp1735
(g1730
tp1736
asS'h/heart'
p1737
(lp1738
(tassS'_3'
p1739
g18
(tRp1740
S'beneficiary'
p1741
(lp1742
(g1732
tp1743
assS'_2'
p1744
g18
(tRp1745
g1
(g33
g3
NtRp1746
(dp1747
g36
I1
sg37
S'A4-1110'
p1748
sb(lp1749
(g1739
S'_5'
g1728
tp1750
assS'_1'
p1751
g18
(tRp1752
S'w/we'
p1753
(lp1754
(tassS'_0'
p1755
g18
(tRp1756
S'n/need-01'
p1757
(lp1758
(tasg1
(g33
g3
NtRp1759
(dp1760
g36
I0
sg37
S'A3-000'
p1761
sb(lp1762
(g1751
g1744
tp1763
ass(dp1764
g63
I7
sg72
Nsg68
(dp1765
sg77
(dp1766
sg62
I00
sg64
(dp1767
g1755
Nssg66
I0
sg67
Nsg75
(lp1768
g1755
asg70
(dp1769
S'_6'
p1770
I0
sg1732
I1
ssg73
(dp1771
I0
g1770
sI1
S'_4'
p1772
ssbsS'f'
(lp1773
S'[A3-000]'
p1774
aS','
aS'we'
p1775
aS'need'
p1776
aS'[A4-1110]'
p1777
aS'heart'
p1778
asg87
I0
sg88
I0
sg89
g577
sg90
(lp1779
sg92
Nsg93
(lp1780
sbI-1
sg1
(g12
g3
NtRp1781
(dp1782
S'e'
g15
(tRp1783
S'_2'
p1784
g18
(tRp1785
g1
(g33
g3
NtRp1786
(dp1787
g36
I0
sg37
S'A1-1'
p1788
sb(lp1789
(tassS'_1'
p1790
g18
(tRp1791
S'i/it'
p1792
(lp1793
(tassS'_0'
p1794
g18
(tRp1795
S'ARG0'
p1796
(lp1797
(g1790
tp1798
asS's/say-01'
p1799
(lp1800
(tasS'ARG1'
p1801
(lp1802
(g1784
tp1803
ass(dp1804
g63
I5
sg72
Nsg68
(dp1805
sg77
(dp1806
sg62
I00
sg64
(dp1807
g1794
Nssg66
I0
sg67
Nsg75
(lp1808
g1794
asg70
(dp1809
sg73
(dp1810
sbsS'f'
(lp1811
S'It'
p1812
aS'said'
p1813
aS'that'
p1814
ag433
asg87
I0
sg88
I0
sg89
g433
sg90
(lp1815
sg92
Nsg93
(lp1816
sbI-1
sg1
(g12
g3
NtRp1817
(dp1818
S'e'
g15
(tRp1819
S'_5'
p1820
g18
(tRp1821
S'a3/any'
p1822
(lp1823
(tassS'_4'
p1824
g18
(tRp1825
sS'_3'
p1826
g18
(tRp1827
S'm/message'
p1828
(lp1829
(tassS'_2'
p1830
g18
(tRp1831
g1
(g33
g3
NtRp1832
(dp1833
g36
I0
sg37
S'A3-100'
p1834
sb(lp1835
(g1826
g1824
tp1836
asS'mod'
p1837
(lp1838
(g1820
tp1839
assS'_1'
p1840
g18
(tRp1841
S'-'
(lp1842
(tassS'_0'
p1843
g18
(tRp1844
S'polarity'
p1845
(lp1846
(g1840
tp1847
asS'ARG1'
p1848
(lp1849
(g1830
tp1850
asS'a2/answer-01'
p1851
(lp1852
(tass(dp1853
g63
I8
sg72
Nsg68
(dp1854
sg77
(dp1855
sg62
I00
sg64
(dp1856
g1843
Nssg66
I0
sg67
Nsg75
(lp1857
g1843
asg70
(dp1858
S'_4'
p1859
I0
ssg73
(dp1860
I0
g1859
ssbsS'f'
(lp1861
S'not'
p1862
aS'answering'
p1863
aS'any'
p1864
aS'messages'
p1865
ag575
asg87
I0
sg88
I0
sg89
g982
sg90
(lp1866
sg92
Nsg93
(lp1867
sbI-1
sg1
(g12
g3
NtRp1868
(dp1869
S'e'
g15
(tRp1870
S'_5'
p1871
g18
(tRp1872
S'c2/central'
p1873
(lp1874
(tassS'_4'
p1875
g18
(tRp1876
g1
(g33
g3
NtRp1877
(dp1878
g36
I2
sg37
S'A1-1'
p1879
sb(lp1880
(tasS'mod'
p1881
(lp1882
(g1871
tp1883
assS'_3'
p1884
g18
(tRp1885
g1
(g33
g3
NtRp1886
(dp1887
g36
I1
sg37
S'A2-10'
p1888
sb(lp1889
(g1875
tp1890
assS'_2'
p1891
g18
(tRp1892
S'ARG1'
p1893
(lp1894
(g1884
tp1895
asS'c4/constitute-01'
p1896
(lp1897
(tassS'_1'
p1898
g18
(tRp1899
S'r/revenue'
p1900
(lp1901
(tasS'ARG0-of'
p1902
(lp1903
(g1891
tp1904
assS'_0'
p1905
g18
(tRp1906
S'source-of'
p1907
(lp1908
(g1898
tp1909
asg1
(g33
g3
NtRp1910
(dp1911
g36
I0
sg37
S'A1-1'
p1912
sb(lp1913
(tass(dp1914
g62
I00
sg63
I10
sg64
(dp1915
g1905
Nssg66
I0
sg67
Nsg68
(dp1916
sg70
(dp1917
sg72
Nsg73
(dp1918
sg75
(lp1919
g1905
asg77
(dp1920
sbsS'f'
(lp1921
g83
aS','
aS'the'
p1922
aS'revenues'
p1923
aS'of'
p1924
aS'which'
p1925
aS'constitute'
p1926
ag204
aS'the'
p1927
aS'central'
p1928
ag83
asg87
I0
sg88
I0
sg89
g83
sg90
(lp1929
sg92
Nsg93
(lp1930
sbI1
sg1
(g12
g3
NtRp1931
(dp1932
S'e'
g15
(tRp1933
S'_6'
p1934
g18
(tRp1935
S'n2/name'
p1936
(lp1937
(tassS'_5'
p1938
g18
(tRp1939
S'n/nationality'
p1940
(lp1941
(tassS'_4'
p1942
g18
(tRp1943
S'p2/person'
p1944
(lp1945
(tassS'_3'
p1946
g18
(tRp1947
S'a/and'
p1948
(lp1949
(tasS'poss'
p1950
(lp1951
(g1942
tp1952
asS'op2'
p1953
(lp1954
(g1934
tp1955
asS'op1'
p1956
(lp1957
(g1938
tp1958
assS'_2'
p1959
g18
(tRp1960
sS'_1'
p1961
g18
(tRp1962
S'ARG0'
p1963
(lp1964
(g1959
tp1965
asS'i/identify-01'
p1966
(lp1967
(tasS'ARG1'
p1968
(lp1969
(g1946
tp1970
assS'_0'
p1971
g18
(tRp1972
g1
(g33
g3
NtRp1973
(dp1974
g36
I0
sg37
S'A2-10'
p1975
sb(lp1976
(g1961
tp1977
ass(dp1978
g63
I11
sg72
Nsg68
(dp1979
sg77
(dp1980
sg62
I00
sg64
(dp1981
g1971
Nssg66
I0
sg67
Nsg75
(lp1982
g1971
asg70
(dp1983
g1942
I1
sg1959
I0
ssg73
(dp1984
I0
S'_2'
p1985
sI1
S'_4'
p1986
ssbsS'f'
(lp1987
g982
aS'identify'
p1988
aS'the'
p1989
aS'nationality'
p1990
aS'and'
p1991
aS'the'
p1992
aS'name'
p1993
aS'of'
p1994
aS'the'
p1995
aS'person'
p1996
asg87
I0
sg88
I0
sg89
g577
sg90
(lp1997
sg92
Nsg93
(lp1998
sbI-1
sg1
(g12
g3
NtRp1999
(dp2000
S'e'
g15
(tRp2001
S'_4'
p2002
g18
(tRp2003
sS'_3'
p2004
g18
(tRp2005
S'ARG0'
p2006
(lp2007
(S'_2'
tp2008
asS'ARG1'
p2009
(lp2010
(g2002
tp2011
asS'c2/confirm-01'
p2012
(lp2013
(tassS'_2'
p2014
g18
(tRp2015
g1
(g33
g3
NtRp2016
(dp2017
g36
I0
sg37
S'A1-1'
p2018
sb(lp2019
(tassS'_1'
p2020
g18
(tRp2021
g1
(g33
g3
NtRp2022
(dp2023
g36
I1
sg37
S'A2-10'
p2024
sb(lp2025
(g2014
tp2026
assS'_0'
p2027
g18
(tRp2028
g1
(g33
g3
NtRp2029
(dp2030
g36
I2
sg37
S'A3-100'
p2031
sb(lp2032
(g2020
g2004
tp2033
ass(dp2034
g62
I00
sg63
I6
sg64
(dp2035
g2027
Nssg66
I0
sg67
Nsg68
(dp2036
sg70
(dp2037
g2002
I0
ssg72
Nsg73
(dp2038
I0
S'_4'
p2039
ssg75
(lp2040
g2027
asg77
(dp2041
sbsS'f'
(lp2042
g83
ag204
ag209
aS'confirmed'
p2043
aS'that'
p2044
asg87
I0
sg88
I0
sg89
g204
sg90
(lp2045
sg92
Nsg93
(lp2046
sbI1
sg1
(g12
g3
NtRp2047
(dp2048
S'e'
g15
(tRp2049
S'_9'
p2050
g18
(tRp2051
S'g2/govern-01'
p2052
(lp2053
(tassS'_8'
p2054
g18
(tRp2055
sS'_7'
p2056
g18
(tRp2057
S'g/government-organization'
p2058
(lp2059
(tasS'location'
p2060
(lp2061
(g2054
tp2062
asS'ARG0-of'
p2063
(lp2064
(g2050
tp2065
assS'_6'
p2066
g18
(tRp2067
g1
(g33
g3
NtRp2068
(dp2069
g36
I0
sg37
S'A1-1'
p2070
sb(lp2071
(tassS'_5'
p2072
g18
(tRp2073
S'part-of'
p2074
(lp2075
(g2066
tp2076
asS's2/south'
p2077
(lp2078
(tassS'_4'
p2079
g18
(tRp2080
S'm/multinational'
p2081
(lp2082
(tassS'_3'
p2083
g18
(tRp2084
S'f/force'
p2085
(lp2086
(tasS'mod'
p2087
(lp2088
(g2079
tp2089
assS'_2'
p2090
g18
(tRp2091
sS'_1'
p2092
g18
(tRp2093
S'ARG0'
p2094
(lp2095
(g2090
tp2096
asS'ARG1'
p2097
(lp2098
(g2083
tp2099
asS'ARG2'
p2100
(lp2101
(g2072
tp2102
asS's/send-01'
p2103
(lp2104
(tassS'_0'
p2105
g18
(tRp2106
g1
(g33
g3
NtRp2107
(dp2108
g36
I1
sg37
S'A3-100'
p2109
sb(lp2110
(g2092
g2056
tp2111
ass(dp2112
g62
I00
sg63
I15
sg64
(dp2113
g2105
Nssg66
I0
sg67
Nsg68
(dp2114
sg70
(dp2115
g2090
I0
sg2054
I1
ssg72
Nsg73
(dp2116
I0
S'_2'
p2117
sI1
S'_8'
p2118
ssg75
(lp2119
g2105
asg77
(dp2120
sbsS'f'
(lp2121
S'sent'
p2122
aS'the'
p2123
aS'multinational'
p2124
aS'force'
p2125
aS'to'
p2126
aS'south'
p2127
ag83
aS','
ag209
aS'government'
p2128
aS'in'
p2129
asg87
I0
sg88
I0
sg89
g209
sg90
(lp2130
sg92
Nsg93
(lp2131
sbI1
sg1
(g12
g3
NtRp2132
(dp2133
S'e'
g15
(tRp2134
S'_4'
p2135
g18
(tRp2136
S'a/always'
p2137
(lp2138
(tassS'_3'
p2139
g18
(tRp2140
S'g/gratitude'
p2141
(lp2142
(tassS'_2'
p2143
g18
(tRp2144
sS'_1'
p2145
g18
(tRp2146
S'k/know-01'
p2147
(lp2148
(tasS'ARG0'
p2149
(lp2150
(g2143
tp2151
asS'time'
p2152
(lp2153
(g2135
tp2154
asS'ARG1'
p2155
(lp2156
(g2139
tp2157
assS'_0'
p2158
g18
(tRp2159
g1
(g33
g3
NtRp2160
(dp2161
g36
I0
sg37
S'A3-101'
p2162
sb(lp2163
(g2145
S'_2'
tp2164
ass(dp2165
g63
I7
sg72
Nsg68
(dp2166
sg77
(dp2167
sg62
I00
sg64
(dp2168
g2158
Nssg66
I0
sg67
Nsg75
(lp2169
g2158
asg70
(dp2170
sg73
(dp2171
sbsS'f'
(lp2172
S'[A3-101]'
p2173
aS'always'
p2174
aS'knows'
p2175
aS'gratitude'
p2176
asg87
I0
sg88
I0
sg89
g153
sg90
(lp2177
sg92
Nsg93
(lp2178
sbI-1
sg1
(g12
g3
NtRp2179
(dp2180
S'e'
g15
(tRp2181
S'_3'
p2182
g18
(tRp2183
g1
(g33
g3
NtRp2184
(dp2185
g36
I2
sg37
S'A1-1'
p2186
sb(lp2187
(tassS'_2'
p2188
g18
(tRp2189
g1
(g33
g3
NtRp2190
(dp2191
g36
I1
sg37
S'A1-1'
p2192
sb(lp2193
(tassS'_1'
p2194
g18
(tRp2195
S'a/and'
p2196
(lp2197
(tasS'op1'
p2198
(lp2199
(g2188
tp2200
asS'op2'
p2201
(lp2202
(g2182
tp2203
assS'_0'
p2204
g18
(tRp2205
S'ARG1'
p2206
(lp2207
(g2194
tp2208
asg1
(g33
g3
NtRp2209
(dp2210
g36
I0
sg37
S'A1-1'
p2211
sb(lp2212
(tass(dp2213
g63
I7
sg72
Nsg68
(dp2214
sg77
(dp2215
sg62
I00
sg64
(dp2216
g2204
Nssg66
I0
sg67
Nsg75
(lp2217
g2204
asg70
(dp2218
sg73
(dp2219
sbsS'f'
(lp2220
g433
aS'that'
p2221
aS'the'
p2222
ag433
aS','
aS'and'
p2223
aS'the'
p2224
ag433
asg87
I0
sg88
I0
sg89
g433
sg90
(lp2225
sg92
Nsg93
(lp2226
sbI-1
sg1
(g12
g3
NtRp2227
(dp2228
S'e'
g15
(tRp2229
S'_4'
p2230
g18
(tRp2231
S'g/globe'
p2232
(lp2233
(tassS'_3'
p2234
g18
(tRp2235
S'e/economy'
p2236
(lp2237
(tasS'mod'
p2238
(lp2239
(g2230
tp2240
assS'_2'
p2241
g18
(tRp2242
S'v/very'
p2243
(lp2244
(tassS'_1'
p2245
g18
(tRp2246
S'w/well'
p2247
(lp2248
(tasS'degree'
p2249
(lp2250
(g2241
tp2251
assS'_0'
p2252
g18
(tRp2253
S'ARG0'
p2254
(lp2255
(g2234
tp2256
asS'manner'
p2257
(lp2258
(g2245
tp2259
asS'p2/perform-02'
p2260
(lp2261
(tass(dp2262
g63
I9
sg72
Nsg68
(dp2263
sg77
(dp2264
sg62
I00
sg64
(dp2265
g2252
Nssg66
I0
sg67
Nsg75
(lp2266
g2252
asg70
(dp2267
sg73
(dp2268
sbsS'f'
(lp2269
S'global'
p2270
aS'economy'
p2271
aS'is'
p2272
aS'performing'
p2273
aS'very'
p2274
aS'well'
p2275
asg87
I0
sg88
I0
sg89
g433
sg90
(lp2276
sg92
Nsg93
(lp2277
sbI-1
sg1
(g12
g3
NtRp2278
(dp2279
S'e'
g15
(tRp2280
S'_2'
p2281
g18
(tRp2282
S'-'
(lp2283
(tassS'_1'
p2284
g18
(tRp2285
sS'_0'
p2286
g18
(tRp2287
S'polarity'
p2288
(lp2289
(g2281
tp2290
asS'ARG1'
p2291
(lp2292
(g2284
tp2293
asS'p/possible-01'
p2294
(lp2295
(tass(dp2296
g62
I00
sg63
I4
sg64
(dp2297
g2286
Nssg66
I0
sg67
Nsg68
(dp2298
sg70
(dp2299
g2284
I0
ssg72
Nsg73
(dp2300
I0
S'_1'
p2301
ssg75
(lp2302
g2286
asg77
(dp2303
sbsS'f'
(lp2304
S'can'
p2305
aS"n't"
p2306
asg87
I0
sg88
I0
sg89
S'[A2-10]'
p2307
sg90
(lp2308
sg92
Nsg93
(lp2309
sbI1
sg1
(g12
g3
NtRp2310
(dp2311
S'e'
g15
(tRp2312
S'_3'
p2313
g18
(tRp2314
S'h/hospital'
p2315
(lp2316
(tassS'_2'
p2317
g18
(tRp2318
S'p/person'
p2319
(lp2320
(tassS'_1'
p2321
g18
(tRp2322
S'ARG1'
p2323
(lp2324
(g2317
tp2325
asS't/treat-03'
p2326
(lp2327
(tassS'_0'
p2328
g18
(tRp2329
S'ARG1'
p2330
(lp2331
(S'_2'
tp2332
asS'ARG2'
p2333
(lp2334
(g2313
tp2335
asS's3/send-01'
p2336
(lp2337
(tasS'purpose'
p2338
(lp2339
(g2321
tp2340
ass(dp2341
g63
I8
sg72
Nsg68
(dp2342
sg77
(dp2343
sg62
I00
sg64
(dp2344
g2328
Nssg66
I0
sg67
Nsg75
(lp2345
g2328
asg70
(dp2346
g2317
I0
sg2321
I1
ssg73
(dp2347
I0
S'_2'
p2348
sI1
S'_1'
p2349
ssbsS'f'
(lp2350
S'people'
p2351
aS'had'
p2352
aS'been'
p2353
aS'sent'
p2354
aS'to'
p2355
aS'hospital'
p2356
aS'for'
p2357
aS'treatment'
p2358
asg87
I0
sg88
I0
sg89
S'[A3-111]'
p2359
sg90
(lp2360
sg92
Nsg93
(lp2361
sbI-1
sg1
(g12
g3
NtRp2362
(dp2363
S'e'
g15
(tRp2364
S'_9'
p2365
g18
(tRp2366
S'n2/new'
p2367
(lp2368
(tassS'_8'
p2369
g18
(tRp2370
S'mod'
p2371
(lp2372
(g2365
tp2373
asS'p2/period'
p2374
(lp2375
(tassS'_7'
p2376
g18
(tRp2377
S'time'
p2378
(lp2379
(g2369
tp2380
assS'_6'
p2381
g18
(tRp2382
g1
(g33
g3
NtRp2383
(dp2384
g36
I0
sg37
S'A2-11'
p2385
sb(lp2386
(g2376
tp2387
asS'quant'
p2388
(lp2389
(S'_10'
p2390
tp2391
assS'_5'
p2392
g18
(tRp2393
S'"Huahua"'
p2394
(lp2395
(tassS'_4'
p2396
g18
(tRp2397
S'"Huang"'
p2398
(lp2399
(tassS'_3'
p2400
g18
(tRp2401
S'n/name'
p2402
(lp2403
(tasS'op1'
p2404
(lp2405
(g2396
tp2406
asS'op2'
p2407
(lp2408
(g2392
tp2409
assS'_2'
p2410
g18
(tRp2411
S'"Huang_Huahua"'
p2412
(lp2413
(tassS'_1'
p2414
g18
(tRp2415
S'p/person'
p2416
(lp2417
(tasS'wiki'
p2418
(lp2419
(g2410
tp2420
asS'name'
p2421
(lp2422
(g2400
tp2423
assS'_0'
p2424
g18
(tRp2425
S'ARG0'
p2426
(lp2427
(g2414
tp2428
asS'ARG1'
p2429
(lp2430
(g2381
tp2431
asS'g/give-01'
p2432
(lp2433
(tassg2390
g18
(tRp2434
S's/some'
p2435
(lp2436
(tass(dp2437
g63
I19
sg72
Nsg68
(dp2438
sg77
(dp2439
sg62
I00
sg64
(dp2440
g2424
Nssg66
I0
sg67
Nsg75
(lp2441
g2424
asg70
(dp2442
sg73
(dp2443
sbsS'f'
(lp2444
S'Huang'
p2445
aS'Huahua'
p2446
aS'gave'
p2447
aS'some'
p2448
ag578
aS'in'
p2449
aS'the'
p2450
aS'new'
p2451
aS'period'
p2452
asg87
I0
sg88
I0
sg89
g433
sg90
(lp2453
sg92
Nsg93
(lp2454
sbI-1
sg1
(g12
g3
NtRp2455
(dp2456
S'e'
g15
(tRp2457
S'_2'
p2458
g18
(tRp2459
S'v/very'
p2460
(lp2461
(tassS'_1'
p2462
g18
(tRp2463
S'w/well'
p2464
(lp2465
(tasS'degree'
p2466
(lp2467
(g2458
tp2468
assS'_0'
p2469
g18
(tRp2470
S'degree'
p2471
(lp2472
(g2462
tp2473
asg1
(g33
g3
NtRp2474
(dp2475
g36
I0
sg37
S'A1-1'
p2476
sb(lp2477
(tass(dp2478
g62
I00
sg63
I5
sg64
(dp2479
g2469
Nssg66
I0
sg67
Nsg68
(dp2480
sg70
(dp2481
sg72
Nsg73
(dp2482
sg75
(lp2483
g2469
asg77
(dp2484
sbsS'f'
(lp2485
S'[A1-1]'
p2486
aS'very'
p2487
aS'well'
p2488
asg87
I0
sg88
I0
sg89
g2486
sg90
(lp2489
sg92
Nsg93
(lp2490
sbI1
sg1
(g12
g3
NtRp2491
(dp2492
S'e'
g15
(tRp2493
S'_5'
p2494
g18
(tRp2495
S'-'
(lp2496
(tassS'_4'
p2497
g18
(tRp2498
S'd/depend-01'
p2499
(lp2500
(tasS'polarity'
p2501
(lp2502
(g2494
tp2503
assS'_3'
p2504
g18
(tRp2505
S's2/source'
p2506
(lp2507
(tasS'ARG0-of'
p2508
(lp2509
(g2497
tp2510
assS'_2'
p2511
g18
(tRp2512
S'ARG0'
p2513
(lp2514
(g2504
tp2515
asg1
(g33
g3
NtRp2516
(dp2517
g36
I0
sg37
S'A1-1'
p2518
sb(lp2519
(tassS'_1'
p2520
g18
(tRp2521
S'-'
(lp2522
(tassS'_0'
p2523
g18
(tRp2524
S'polarity'
p2525
(lp2526
(g2520
tp2527
asS'ARG1'
p2528
(lp2529
(g2511
tp2530
asS'p/possible-01'
p2531
(lp2532
(tass(dp2533
g62
I00
sg63
I11
sg64
(dp2534
g2523
Nssg66
I0
sg67
Nsg68
(dp2535
sg70
(dp2536
sg72
Nsg73
(dp2537
sg75
(lp2538
g2523
asg77
(dp2539
sbsS'f'
(lp2540
S'not'
p2541
aS'possible'
p2542
aS'to'
p2543
ag83
aS'from'
p2544
aS'an'
p2545
aS'independent'
p2546
aS'source'
p2547
asg87
I0
sg88
I0
sg89
g83
sg90
(lp2548
sg92
Nsg93
(lp2549
sbI1
sg1
(g12
g3
NtRp2550
(dp2551
S'e'
g15
(tRp2552
S'_4'
p2553
g18
(tRp2554
S's/state-01'
p2555
(lp2556
(tassS'_3'
p2557
g18
(tRp2558
S't2/this'
p2559
(lp2560
(tassS'_2'
p2561
g18
(tRp2562
S'ARG1-of'
p2563
(lp2564
(g2553
tp2565
asS't/thing'
p2566
(lp2567
(tasS'mod'
p2568
(lp2569
(g2557
tp2570
assS'_1'
p2571
g18
(tRp2572
S'domain'
p2573
(lp2574
(g2561
tp2575
asS'c2/credibility'
p2576
(lp2577
(tassS'_0'
p2578
g18
(tRp2579
S'ARG1'
p2580
(lp2581
(g2571
tp2582
asS'c/confirm-01'
p2583
(lp2584
(tass(dp2585
g62
I00
sg63
I9
sg64
(dp2586
g2578
Nssg66
I0
sg67
Nsg68
(dp2587
sg70
(dp2588
sg72
Nsg73
(dp2589
sg75
(lp2590
g2578
asg77
(dp2591
sbsS'f'
(lp2592
S'confirm'
p2593
aS'the'
p2594
aS'credibility'
p2595
aS'of'
p2596
aS'this'
p2597
aS'statement'
p2598
asg87
I0
sg88
I0
sg89
g83
sg90
(lp2599
sg92
Nsg93
(lp2600
sbI1
sg1
(g12
g3
NtRp2601
(dp2602
S'e'
g15
(tRp2603
S'_8'
p2604
g18
(tRp2605
sS'_7'
p2606
g18
(tRp2607
S'm2/member'
p2608
(lp2609
(tassS'_6'
p2610
g18
(tRp2611
S'h/have-org-role-91'
p2612
(lp2613
(tasS'ARG2'
p2614
(lp2615
(g2606
tp2616
assS'_5'
p2617
g18
(tRp2618
S's2/state'
p2619
(lp2620
(tasS'ARG0-of'
p2621
(lp2622
(g2610
tp2623
assS'_4'
p2624
g18
(tRp2625
S'ARG0'
p2626
(lp2627
(g2617
tp2628
asS'c/cooperate-01'
p2629
(lp2630
(tassS'_3'
p2631
g18
(tRp2632
S'domain'
p2633
(lp2634
(g2624
tp2635
asS'i/importance'
p2636
(lp2637
(tassS'_2'
p2638
g18
(tRp2639
S's/stress-01'
p2640
(lp2641
(tasS'ARG1'
p2642
(lp2643
(g2631
tp2644
assS'_1'
p2645
g18
(tRp2646
S'c2/contrast-01'
p2647
(lp2648
(tasS'ARG2'
p2649
(lp2650
(g2638
tp2651
assS'_0'
p2652
g18
(tRp2653
S'snt2'
p2654
(lp2655
(g2604
tp2656
asS'snt1'
p2657
(lp2658
(g2645
tp2659
asS'm/multi-sentence'
p2660
(lp2661
(tass(dp2662
g63
I16
sg72
Nsg68
(dp2663
sg77
(dp2664
sg62
I00
sg64
(dp2665
g2652
Nssg66
I0
sg67
Nsg75
(lp2666
g2652
asg70
(dp2667
g2604
I0
ssg73
(dp2668
I0
S'_8'
p2669
ssbsS'f'
(lp2670
S'stressed'
p2671
aS'the'
p2672
aS'importance'
p2673
aS'of'
p2674
aS'the'
p2675
aS'cooperation'
p2676
aS'of'
p2677
aS'the'
p2678
aS'member'
p2679
aS'states'
p2680
asg87
I0
sg88
I0
sg89
g982
sg90
(lp2681
sg92
Nsg93
(lp2682
sbI-1
sg1
(g12
g3
NtRp2683
(dp2684
S'e'
g15
(tRp2685
S'_4'
p2686
g18
(tRp2687
sS'_3'
p2688
g18
(tRp2689
g1
(g33
g3
NtRp2690
(dp2691
g36
I0
sg37
S'A1-1'
p2692
sb(lp2693
(tassS'_2'
p2694
g18
(tRp2695
S'part-of'
p2696
(lp2697
(g2688
tp2698
asS's2/south'
p2699
(lp2700
(tassS'_1'
p2701
g18
(tRp2702
S'ARG2'
p2703
(lp2704
(g2694
tp2705
assS'_0'
p2706
g18
(tRp2707
g1
(g33
g3
NtRp2708
(dp2709
g36
I1
sg37
S'A3-100'
p2710
sb(lp2711
(g2701
g2686
tp2712
ass(dp2713
g63
I5
sg72
Nsg68
(dp2714
sg77
(dp2715
sg62
I00
sg64
(dp2716
g2706
Nssg66
I0
sg67
Nsg75
(lp2717
g2706
asg70
(dp2718
S'_4'
p2719
I1
sS'_1'
p2720
I0
ssg73
(dp2721
I0
g2720
sI1
g2719
ssbsS'f'
(lp2722
S'to'
p2723
aS'south'
p2724
ag433
aS','
ag575
asg87
I0
sg88
I0
sg89
g575
sg90
(lp2725
sg92
Nsg93
(lp2726
sbI-1
sg1
(g12
g3
NtRp2727
(dp2728
S'e'
g15
(tRp2729
S'_2'
p2730
g18
(tRp2731
sS'_1'
p2732
g18
(tRp2733
sS'_0'
p2734
g18
(tRp2735
S'op1'
p2736
(lp2737
(g2732
tp2738
asS'op2'
p2739
(lp2740
(g2730
tp2741
asS'o3/or'
p2742
(lp2743
(tass(dp2744
g62
I00
sg63
I3
sg64
(dp2745
sg66
I0
sg67
Nsg68
(dp2746
sg70
(dp2747
g2730
I1
sg2732
I0
ssg72
Nsg73
(dp2748
I0
g2732
sI1
g2730
ssg75
(lp2749
S'_0'
p2750
asg77
(dp2751
sbsS'f'
(lp2752
S'or'
p2753
asg87
I0
sg88
I0
sg89
S'[A3-100]'
p2754
sg90
(lp2755
sg92
Nsg93
(lp2756
sbI-1
sg1
(g12
g3
NtRp2757
(dp2758
S'e'
g15
(tRp2759
S'_3'
p2760
g18
(tRp2761
sS'_2'
p2762
g18
(tRp2763
g1
(g33
g3
NtRp2764
(dp2765
g36
I0
sg37
S'A1-1'
p2766
sb(lp2767
(tassS'_1'
p2768
g18
(tRp2769
S'ARG1'
p2770
(lp2771
(g2762
tp2772
asS'h/have-org-role-91'
p2773
(lp2774
(tasS'ARG2'
p2775
(lp2776
(g2760
tp2777
assS'_0'
p2778
g18
(tRp2779
S'ARG0-of'
p2780
(lp2781
(g2768
tp2782
ass(dp2783
g62
I00
sg63
I5
sg64
(dp2784
g2778
Nssg66
I0
sg67
Nsg68
(dp2785
sg70
(dp2786
g2760
I0
ssg72
Nsg73
(dp2787
I0
S'_3'
p2788
ssg75
(lp2789
g2778
asg77
(dp2790
sbsS'f'
(lp2791
S'of'
p2792
aS'[A1-1]'
p2793
asg87
I0
sg88
I0
sg89
S'[A2-00]'
p2794
sg90
(lp2795
sg92
Nsg93
(lp2796
sbI1
sg1
(g12
g3
NtRp2797
(dp2798
S'e'
g15
(tRp2799
S'_6'
p2800
g18
(tRp2801
S'"al-Qaeda"'
p2802
(lp2803
(tassS'_5'
p2804
g18
(tRp2805
S'n2/name'
p2806
(lp2807
(tasS'op1'
p2808
(lp2809
(g2800
tp2810
assS'_4'
p2811
g18
(tRp2812
S'"Al-Qaeda"'
p2813
(lp2814
(tassS'_3'
p2815
g18
(tRp2816
g1
(g33
g3
NtRp2817
(dp2818
g36
I2
sg37
S'A1-1'
p2819
sb(lp2820
(tassS'_2'
p2821
g18
(tRp2822
S'wiki'
p2823
(lp2824
(g2811
tp2825
asS'c/criminal-organization'
p2826
(lp2827
(tasS'location'
p2828
(lp2829
(g2815
tp2830
asS'name'
p2831
(lp2832
(g2804
tp2833
assS'_1'
p2834
g18
(tRp2835
g1
(g33
g3
NtRp2836
(dp2837
g36
I1
sg37
S'A2-00'
p2838
sb(lp2839
(g2821
tp2840
assS'_0'
p2841
g18
(tRp2842
g1
(g33
g3
NtRp2843
(dp2844
g36
I0
sg37
S'A2-11'
p2845
sb(lp2846
(g2834
tp2847
ass(dp2848
g63
I11
sg72
Nsg68
(dp2849
sg77
(dp2850
sg62
I00
sg64
(dp2851
g2841
Nssg66
I0
sg67
Nsg75
(lp2852
g2841
asg70
(dp2853
sg73
(dp2854
sbsS'f'
(lp2855
g578
aS'that'
p2856
ag1463
aS'to'
p2857
aS'"'
aS'al'
p2858
aS'-'
aS'Qaeda'
p2859
aS'"'
aS'in'
p2860
ag433
asg87
I0
sg88
I0
sg89
g433
sg90
(lp2861
sg92
Nsg93
(lp2862
sbI-1
sg1
(g12
g3
NtRp2863
(dp2864
S'e'
g15
(tRp2865
S'_7'
p2866
g18
(tRp2867
S'"Xining"'
p2868
(lp2869
(tassS'_6'
p2870
g18
(tRp2871
S'n3/name'
p2872
(lp2873
(tasS'op1'
p2874
(lp2875
(g2866
tp2876
assS'_5'
p2877
g18
(tRp2878
S'"Xining"'
p2879
(lp2880
(tassS'_4'
p2881
g18
(tRp2882
S'c2/city'
p2883
(lp2884
(tasS'wiki'
p2885
(lp2886
(g2877
tp2887
asS'name'
p2888
(lp2889
(g2870
tp2890
assS'_3'
p2891
g18
(tRp2892
S'9'
(lp2893
(tassS'_2'
p2894
g18
(tRp2895
S'7'
(lp2896
(tassS'_1'
p2897
g18
(tRp2898
S'd/date-entity'
p2899
(lp2900
(tasS'day'
p2901
(lp2902
(g2891
tp2903
asS'month'
p2904
(lp2905
(g2894
tp2906
assS'_0'
p2907
g18
(tRp2908
S'mod'
p2909
(lp2910
(g2881
tp2911
asg1
(g33
g3
NtRp2912
(dp2913
g36
I0
sg37
S'A1-1'
p2914
sb(lp2915
(tasS'time'
p2916
(lp2917
(g2897
tp2918
ass(dp2919
g62
I00
sg63
I15
sg64
(dp2920
g2907
Nssg66
I0
sg67
Nsg68
(dp2921
sg70
(dp2922
sg72
Nsg73
(dp2923
sg75
(lp2924
g2907
asg77
(dp2925
sbsS'f'
(lp2926
S'Xining'
p2927
aS','
aS'July'
p2928
aS'9'
aS','
ag83
asg87
I0
sg88
I0
sg89
g83
sg90
(lp2929
sg92
Nsg93
(lp2930
sbI1
sg1
(g12
g3
NtRp2931
(dp2932
S'e'
g15
(tRp2933
S'_5'
p2934
g18
(tRp2935
S's2/science'
p2936
(lp2937
(tassS'_4'
p2938
g18
(tRp2939
S't/technology'
p2940
(lp2941
(tassS'_3'
p2942
g18
(tRp2943
S'a/association'
p2944
(lp2945
(tasS'mod'
p2946
(lp2947
(g2938
tp2948
a(g2934
tp2949
assS'_2'
p2950
g18
(tRp2951
S'ARG0'
p2952
(lp2953
(g2942
tp2954
asS'w/work-01'
p2955
(lp2956
(tassS'_1'
p2957
g18
(tRp2958
S'ARG1'
p2959
(lp2960
(g2950
tp2961
asS'i/improve-01'
p2962
(lp2963
(tassS'_0'
p2964
g18
(tRp2965
S'ARG1'
p2966
(lp2967
(g2957
tp2968
asS'v/view-02'
p2969
(lp2970
(tass(dp2971
g62
I00
sg63
I11
sg64
(dp2972
g2964
Nssg66
I0
sg67
Nsg68
(dp2973
sg70
(dp2974
g2957
I0
ssg72
Nsg73
(dp2975
I0
S'_1'
p2976
ssg75
(lp2977
g2964
asg77
(dp2978
sbsS'f'
(lp2979
S'views'
p2980
aS'on'
p2981
aS'improving'
p2982
aS'the'
p2983
aS'work'
p2984
aS'of'
p2985
aS'science'
p2986
aS'and'
p2987
aS'technology'
p2988
aS'associations'
p2989
asg87
I0
sg88
I0
sg89
S'[A2-11]'
p2990
sg90
(lp2991
sg92
Nsg93
(lp2992
sbI1
sg1
(g12
g3
NtRp2993
(dp2994
S'e'
g15
(tRp2995
S'_4'
p2996
g18
(tRp2997
S'g2/globe'
p2998
(lp2999
(tassS'_3'
p3000
g18
(tRp3001
S'p3/prosper-01'
p3002
(lp3003
(tassS'_2'
p3004
g18
(tRp3005
S's2/scene'
p3006
(lp3007
(tasS'mod'
p3008
(lp3009
(g3000
tp3010
assS'_1'
p3011
g18
(tRp3012
S'ARG0'
p3013
(lp3014
(g3004
tp3015
asS'e2/emerge-01'
p3016
(lp3017
(tasS'mod'
p3018
(lp3019
(g2996
tp3020
assS'_0'
p3021
g18
(tRp3022
g1
(g33
g3
NtRp3023
(dp3024
g36
I0
sg37
S'A2-10'
p3025
sb(lp3026
(g3011
tp3027
ass(dp3028
g62
I00
sg63
I8
sg64
(dp3029
g3021
Nssg66
I0
sg67
Nsg68
(dp3030
sg70
(dp3031
sg72
Nsg73
(dp3032
sg75
(lp3033
g3021
asg77
(dp3034
sbsS'f'
(lp3035
g204
aS'the'
p3036
aS'scene'
p3037
aS'of'
p3038
aS'prosperity'
p3039
aS'is'
p3040
aS'emerging'
p3041
aS'globally'
p3042
asg87
I0
sg88
I0
sg89
g83
sg90
(lp3043
sg92
Nsg93
(lp3044
sbI1
sg1
(g12
g3
NtRp3045
(dp3046
S'e'
g15
(tRp3047
S'_2'
p3048
g18
(tRp3049
S'g/globe'
p3050
(lp3051
(tassS'_1'
p3052
g18
(tRp3053
S'e/economy'
p3054
(lp3055
(tasS'mod'
p3056
(lp3057
(g3048
tp3058
assS'_0'
p3059
g18
(tRp3060
S'ARG0'
p3061
(lp3062
(g3052
tp3063
asS'p2/perform-02'
p3064
(lp3065
(tass(dp3066
g62
I00
sg63
I5
sg64
(dp3067
g3059
Nssg66
I0
sg67
Nsg68
(dp3068
sg70
(dp3069
sg72
Nsg73
(dp3070
sg75
(lp3071
g3059
asg77
(dp3072
sbsS'f'
(lp3073
S'global'
p3074
aS'economy'
p3075
aS'is'
p3076
aS'performing'
p3077
asg87
I0
sg88
I0
sg89
g83
sg90
(lp3078
sg92
Nsg93
(lp3079
sbI1
sg1
(g12
g3
NtRp3080
(dp3081
S'e'
g15
(tRp3082
S'_6'
p3083
g18
(tRp3084
S't/this'
p3085
(lp3086
(tassS'_5'
p3087
g18
(tRp3088
S's2/season'
p3089
(lp3090
(tasS'mod'
p3091
(lp3092
(g3083
tp3093
assS'_4'
p3094
g18
(tRp3095
S'i/ice'
p3096
(lp3097
(tassS'_3'
p3098
g18
(tRp3099
S's/sheet'
p3100
(lp3101
(tasS'consist-of'
p3102
(lp3103
(g3094
tp3104
asS'mod'
p3105
(lp3106
(g3087
tp3107
assS'_2'
p3108
g18
(tRp3109
S'm2/more'
p3110
(lp3111
(tassS'_1'
p3112
g18
(tRp3113
S'e/early'
p3114
(lp3115
(tasS'degree'
p3116
(lp3117
(g3108
tp3118
assS'_0'
p3119
g18
(tRp3120
S'ARG1'
p3121
(lp3122
(g3098
tp3123
asS'm/melt-01'
p3124
(lp3125
(tasS'time'
p3126
(lp3127
(g3112
tp3128
ass(dp3129
g62
I00
sg63
I13
sg64
(dp3130
g3119
Nssg66
I0
sg67
Nsg68
(dp3131
sg70
(dp3132
sg72
Nsg73
(dp3133
sg75
(lp3134
g3119
asg77
(dp3135
sbsS'f'
(lp3136
S'ice'
p3137
aS'sheet'
p3138
aS'has'
p3139
aS'melted'
p3140
aS'earlier'
p3141
aS'this'
p3142
aS'season'
p3143
asg87
I0
sg88
I0
sg89
g83
sg90
(lp3144
sg92
Nsg93
(lp3145
sbI1
sg1
(g12
g3
NtRp3146
(dp3147
S'e'
g15
(tRp3148
S'_1'
p3149
g18
(tRp3150
S'interrogative'
p3151
(lp3152
(tassS'_0'
p3153
g18
(tRp3154
S'mode'
p3155
(lp3156
(g3149
tp3157
asg1
(g33
g3
NtRp3158
(dp3159
g36
I0
sg37
S'A1-1'
p3160
sb(lp3161
(tass(dp3162
g62
I00
sg63
I3
sg64
(dp3163
g3153
Nssg66
I0
sg67
Nsg68
(dp3164
sg70
(dp3165
sg72
Nsg73
(dp3166
sg75
(lp3167
g3153
asg77
(dp3168
sbsS'f'
(lp3169
S'[A1-1]'
p3170
aS'?'
asg87
I0
sg88
I0
sg89
g3170
sg90
(lp3171
sg92
Nsg93
(lp3172
sbI1
sg1
(g12
g3
NtRp3173
(dp3174
S'e'
g15
(tRp3175
S'_6'
p3176
g18
(tRp3177
sS'_5'
p3178
g18
(tRp3179
S'g2/govern-01'
p3180
(lp3181
(tassS'_4'
p3182
g18
(tRp3183
S'g/government-organization'
p3184
(lp3185
(tasS'ARG0-of'
p3186
(lp3187
(g3178
tp3188
assS'_3'
p3189
g18
(tRp3190
S'a/and'
p3191
(lp3192
(tasS'op1'
p3193
(lp3194
(g3182
tp3195
asS'op2'
p3196
(lp3197
(g3176
tp3198
assS'_2'
p3199
g18
(tRp3200
S'ARG0'
p3201
(lp3202
(g3189
tp3203
asS'p/perform-02'
p3204
(lp3205
(tassS'_1'
p3206
g18
(tRp3207
S'ARG0'
p3208
(lp3209
(g3199
tp3210
asS'm/miss-01'
p3211
(lp3212
(tassS'_0'
p3213
g18
(tRp3214
S'ARG1-of'
p3215
(lp3216
(g3206
tp3217
asS'f/formula'
p3218
(lp3219
(tass(dp3220
g63
I12
sg72
Nsg68
(dp3221
sg77
(dp3222
sg62
I00
sg64
(dp3223
g3213
Nssg66
I0
sg67
Nsg75
(lp3224
g3213
asg70
(dp3225
g3176
I0
ssg73
(dp3226
I0
S'_6'
p3227
ssbsS'f'
(lp3228
S'missing'
p3229
aS'formula'
p3230
aS'in'
p3231
aS'the'
p3232
aS'performance'
p3233
aS'of'
p3234
aS'the'
p3235
aS'government'
p3236
aS'and'
p3237
asg87
I0
sg88
I0
sg89
g982
sg90
(lp3238
sg92
Nsg93
(lp3239
sbI-1
sg1
(g12
g3
NtRp3240
(dp3241
S'e'
g15
(tRp3242
S'_5'
p3243
g18
(tRp3244
S't/this'
p3245
(lp3246
(tassS'_4'
p3247
g18
(tRp3248
sS'_3'
p3249
g18
(tRp3250
S'location'
p3251
(lp3252
(g3247
tp3253
assS'_2'
p3254
g18
(tRp3255
S'1'
(lp3256
(tassS'_1'
p3257
g18
(tRp3258
S'o2/ordinal-entity'
p3259
(lp3260
(tasS'value'
p3261
(lp3262
(g3254
tp3263
assS'_0'
p3264
g18
(tRp3265
S'ord'
p3266
(lp3267
(g3257
tp3268
asg1
(g33
g3
NtRp3269
(dp3270
g36
I0
sg37
S'A2-11'
p3271
sb(lp3272
(g3249
tp3273
asS'domain'
p3274
(lp3275
(g3243
tp3276
ass(dp3277
g62
I00
sg63
I8
sg64
(dp3278
g3264
Nssg66
I0
sg67
Nsg68
(dp3279
sg70
(dp3280
g3247
I0
ssg72
Nsg73
(dp3281
I0
S'_4'
p3282
ssg75
(lp3283
g3264
asg77
(dp3284
sbsS'f'
(lp3285
S'This'
p3286
aS'will'
p3287
aS'be'
p3288
aS'the'
p3289
aS'first'
p3290
ag2990
aS'on'
p3291
asg87
I0
sg88
I0
sg89
g204
sg90
(lp3292
sg92
Nsg93
(lp3293
sbI1
sg1
(g12
g3
NtRp3294
(dp3295
S'e'
g15
(tRp3296
S'_7'
p3297
g18
(tRp3298
S'-'
(lp3299
(tassS'_6'
p3300
g18
(tRp3301
S'polarity'
p3302
(lp3303
(g3297
tp3304
asS'p/possible-01'
p3305
(lp3306
(tassS'_5'
p3307
g18
(tRp3308
S'ARG1-of'
p3309
(lp3310
(g3300
tp3311
asS'u/use-01'
p3312
(lp3313
(tassS'_4'
p3314
g18
(tRp3315
S'ARG1-of'
p3316
(lp3317
(g3307
tp3318
assS'_3'
p3319
g18
(tRp3320
S'm/miss-01'
p3321
(lp3322
(tassS'_2'
p3323
g18
(tRp3324
S's/specialize-01'
p3325
(lp3326
(tassS'_1'
p3327
g18
(tRp3328
S'ARG1-of'
p3329
(lp3330
(g3323
tp3331
a(g3319
tp3332
asS't/thing'
p3333
(lp3334
(tassS'_0'
p3335
g18
(tRp3336
S'a/and'
p3337
(lp3338
(tasS'op1'
p3339
(lp3340
(g3327
tp3341
asS'op2'
p3342
(lp3343
(g3314
tp3344
ass(dp3345
g63
I14
sg72
Nsg68
(dp3346
sg77
(dp3347
sg62
I00
sg64
(dp3348
g3335
Nssg66
I0
sg67
Nsg75
(lp3349
g3335
asg70
(dp3350
g3314
I0
ssg73
(dp3351
I0
S'_4'
p3352
ssbsS'f'
(lp3353
S'missing'
p3354
aS'specializations'
p3355
aS'and'
p3356
aS'useless'
p3357
asg87
I0
sg88
I0
sg89
g982
sg90
(lp3358
sg92
Nsg93
(lp3359
sbI-1
sg1
(g12
g3
NtRp3360
(dp3361
S'e'
g15
(tRp3362
S'_3'
p3363
g18
(tRp3364
S'y/year'
p3365
(lp3366
(tassS'_2'
p3367
g18
(tRp3368
S'36'
p3369
(lp3370
(tassS'_1'
p3371
g18
(tRp3372
S'quant'
p3373
(lp3374
(g3367
tp3375
asS't/temporal-quantity'
p3376
(lp3377
(tasS'unit'
p3378
(lp3379
(g3363
tp3380
assS'_0'
p3381
g18
(tRp3382
S'duration'
p3383
(lp3384
(g3371
tp3385
ass(dp3386
g63
I6
sg72
Nsg68
(dp3387
sg77
(dp3388
sg62
I00
sg64
(dp3389
g3381
Nssg66
I0
sg67
Nsg75
(lp3390
g3381
asg70
(dp3391
sg73
(dp3392
sbsS'f'
(lp3393
S'year'
p3394
aS'over'
p3395
aS'a'
aS'period'
p3396
aS'of'
p3397
aS'36'
p3398
asg87
I0
sg88
I0
sg89
S'[A1-0]'
p3399
sg90
(lp3400
sg92
Nsg93
(lp3401
sbI-1
sg1
(g12
g3
NtRp3402
(dp3403
S'e'
g15
(tRp3404
S'_4'
p3405
g18
(tRp3406
S'"Shukri"'
p3407
(lp3408
(tassS'_3'
p3409
g18
(tRp3410
S'n/name'
p3411
(lp3412
(tasS'op1'
p3413
(lp3414
(g3405
tp3415
assS'_2'
p3416
g18
(tRp3417
S'-'
(lp3418
(tassS'_1'
p3419
g18
(tRp3420
S'p/person'
p3421
(lp3422
(tasS'wiki'
p3423
(lp3424
(g3416
tp3425
asS'name'
p3426
(lp3427
(g3409
tp3428
assS'_0'
p3429
g18
(tRp3430
g1
(g33
g3
NtRp3431
(dp3432
g36
I0
sg37
S'A2-10'
p3433
sb(lp3434
(g3419
tp3435
ass(dp3436
g62
I00
sg63
I8
sg64
(dp3437
g3429
Nssg66
I0
sg67
Nsg68
(dp3438
sg70
(dp3439
sg72
Nsg73
(dp3440
sg75
(lp3441
g3429
asg77
(dp3442
sbsS'f'
(lp3443
S'Shukri'
p3444
ag204
asg87
I0
sg88
I0
sg89
g83
sg90
(lp3445
sg92
Nsg93
(lp3446
sbI1
sg1
(g12
g3
NtRp3447
(dp3448
S'e'
g15
(tRp3449
S'_4'
p3450
g18
(tRp3451
sS'_3'
p3452
g18
(tRp3453
S'a/air'
p3454
(lp3455
(tassS'_2'
p3456
g18
(tRp3457
sS'_1'
p3458
g18
(tRp3459
S'ARG2'
p3460
(lp3461
(g3456
tp3462
asS'r/result-01'
p3463
(lp3464
(tassS'_0'
p3465
g18
(tRp3466
S's2/strike-01'
p3467
(lp3468
(tasS'ARG0'
p3469
(lp3470
(g3450
tp3471
asS'ARG1-of'
p3472
(lp3473
(g3458
tp3474
asS'mod'
p3475
(lp3476
(g3452
tp3477
ass(dp3478
g62
I00
sg63
I7
sg64
(dp3479
g3465
Nssg66
I0
sg67
Nsg68
(dp3480
sg70
(dp3481
g3450
I0
sg3456
I1
ssg72
Nsg73
(dp3482
I0
S'_4'
p3483
sI1
S'_2'
p3484
ssg75
(lp3485
g3465
asg77
(dp3486
sbsS'f'
(lp3487
S'air'
p3488
aS'strikes'
p3489
aS'which'
p3490
aS'resulted'
p3491
aS'in'
p3492
asg87
I0
sg88
I0
sg89
g209
sg90
(lp3493
sg92
Nsg93
(lp3494
sbI1
sg1
(g12
g3
NtRp3495
(dp3496
S'e'
g15
(tRp3497
S'_4'
p3498
g18
(tRp3499
sS'_3'
p3500
g18
(tRp3501
S'domain'
p3502
(lp3503
(g3498
tp3504
asS'c2/credibility'
p3505
(lp3506
(tassS'_2'
p3507
g18
(tRp3508
S'ARG1'
p3509
(lp3510
(g3500
tp3511
asS'c/confirm-01'
p3512
(lp3513
(tassS'_1'
p3514
g18
(tRp3515
S'-'
(lp3516
(tassS'_0'
p3517
g18
(tRp3518
S'polarity'
p3519
(lp3520
(g3514
tp3521
asS'ARG1'
p3522
(lp3523
(g3507
tp3524
asS'p/possible-01'
p3525
(lp3526
(tass(dp3527
g63
I8
sg72
Nsg68
(dp3528
sg77
(dp3529
sg62
I00
sg64
(dp3530
g3517
Nssg66
I0
sg67
Nsg75
(lp3531
g3517
asg70
(dp3532
g3498
I1
sg3507
I0
ssg73
(dp3533
I0
S'_2'
p3534
sI1
S'_4'
p3535
ssbsS'f'
(lp3536
S'not'
p3537
aS'possible'
p3538
aS'to'
p3539
aS'confirm'
p3540
aS'the'
p3541
aS'credibility'
p3542
aS'of'
p3543
asg87
I0
sg88
I0
sg89
S'[A3-110]'
p3544
sg90
(lp3545
sg92
Nsg93
(lp3546
sbI-1
sg1
(g12
g3
NtRp3547
(dp3548
S'e'
g15
(tRp3549
S'_3'
p3550
g18
(tRp3551
S'w3/wash-01'
p3552
(lp3553
(tassS'_2'
p3554
g18
(tRp3555
S'ARG0-of'
p3556
(lp3557
(g3550
tp3558
asS'm/machine'
p3559
(lp3560
(tassS'_1'
p3561
g18
(tRp3562
S'instrument'
p3563
(lp3564
(g3554
tp3565
assS'_0'
p3566
g18
(tRp3567
g1
(g33
g3
NtRp3568
(dp3569
g36
I0
sg37
S'A2-11'
p3570
sb(lp3571
(g3561
tp3572
ass(dp3573
g63
I5
sg72
Nsg68
(dp3574
sg77
(dp3575
sg62
I00
sg64
(dp3576
g3566
Nssg66
I0
sg67
Nsg75
(lp3577
g3566
asg70
(dp3578
sg73
(dp3579
sbsS'f'
(lp3580
g578
aS'in'
p3581
aS'a'
aS'washing'
p3582
aS'machine'
p3583
asg87
I0
sg88
I0
sg89
g433
sg90
(lp3584
sg92
Nsg93
(lp3585
sbI-1
sg1
(g12
g3
NtRp3586
(dp3587
S'e'
g15
(tRp3588
S'_7'
p3589
g18
(tRp3590
S'w3/wash-01'
p3591
(lp3592
(tassS'_6'
p3593
g18
(tRp3594
S'ARG0-of'
p3595
(lp3596
(g3589
tp3597
asS'm/machine'
p3598
(lp3599
(tassS'_5'
p3600
g18
(tRp3601
S'instrument'
p3602
(lp3603
(g3593
tp3604
assS'_4'
p3605
g18
(tRp3606
S's2/spokesperson'
p3607
(lp3608
(tassS'_3'
p3609
g18
(tRp3610
S'c/company'
p3611
(lp3612
(tassS'_2'
p3613
g18
(tRp3614
S'ARG1'
p3615
(lp3616
(g3609
tp3617
asS'h/have-org-role-91'
p3618
(lp3619
(tasS'ARG2'
p3620
(lp3621
(g3605
tp3622
assS'_1'
p3623
g18
(tRp3624
S'ARG0-of'
p3625
(lp3626
(g3613
tp3627
assS'_0'
p3628
g18
(tRp3629
g1
(g33
g3
NtRp3630
(dp3631
g36
I0
sg37
S'A3-111'
p3632
sb(lp3633
(g3623
g3600
tp3634
ass(dp3635
g62
I00
sg63
I11
sg64
(dp3636
g3628
Nssg66
I0
sg67
Nsg68
(dp3637
sg70
(dp3638
sg72
Nsg73
(dp3639
sg75
(lp3640
g3628
asg77
(dp3641
sbsS'f'
(lp3642
S'spokesperson'
p3643
aS'for'
p3644
aS'the'
p3645
aS'company'
p3646
aS'[A3-111]'
p3647
aS'in'
p3648
aS'a'
aS'washing'
p3649
aS'machine'
p3650
asg87
I0
sg88
I0
sg89
g83
sg90
(lp3651
sg92
Nsg93
(lp3652
sbI1
sg1
(g12
g3
NtRp3653
(dp3654
S'e'
g15
(tRp3655
S'_3'
p3656
g18
(tRp3657
sS'_2'
p3658
g18
(tRp3659
g1
(g33
g3
NtRp3660
(dp3661
g36
I0
sg37
S'A2-11'
p3662
sb(lp3663
(g3656
tp3664
assS'_1'
p3665
g18
(tRp3666
S'p3/person'
p3667
(lp3668
(tassS'_0'
p3669
g18
(tRp3670
S'ARG0'
p3671
(lp3672
(g3665
tp3673
asS's/say-01'
p3674
(lp3675
(tasS'ARG1'
p3676
(lp3677
(g3658
tp3678
ass(dp3679
g62
I00
sg63
I5
sg64
(dp3680
g3669
Nssg66
I0
sg67
Nsg68
(dp3681
sg70
(dp3682
S'_3'
p3683
I1
sg3665
I0
ssg72
Nsg73
(dp3684
I0
S'_1'
p3685
sI1
g3683
ssg75
(lp3686
g3669
asg77
(dp3687
sbsS'f'
(lp3688
S'said'
p3689
aS','
aS'"'
aS'The'
p3690
ag2990
asg87
I0
sg88
I0
sg89
g3647
sg90
(lp3691
sg92
Nsg93
(lp3692
sbI1
sg1
(g12
g3
NtRp3693
(dp3694
S'e'
g15
(tRp3695
S'_4'
p3696
g18
(tRp3697
S'"al-Qaeda"'
p3698
(lp3699
(tassS'_3'
p3700
g18
(tRp3701
S'n2/name'
p3702
(lp3703
(tasS'op1'
p3704
(lp3705
(g3696
tp3706
assS'_2'
p3707
g18
(tRp3708
S'"Al-Qaeda"'
p3709
(lp3710
(tassS'_1'
p3711
g18
(tRp3712
S'wiki'
p3713
(lp3714
(g3707
tp3715
asS'c/criminal-organization'
p3716
(lp3717
(tasS'name'
p3718
(lp3719
(g3700
tp3720
assS'_0'
p3721
g18
(tRp3722
g1
(g33
g3
NtRp3723
(dp3724
g36
I0
sg37
S'A2-10'
p3725
sb(lp3726
(g3711
tp3727
ass(dp3728
g62
I00
sg63
I8
sg64
(dp3729
g3721
Nssg66
I0
sg67
Nsg68
(dp3730
sg70
(dp3731
S'_1'
p3732
I0
ssg72
Nsg73
(dp3733
I0
g3732
ssg75
(lp3734
g3721
asg77
(dp3735
sbsS'f'
(lp3736
g204
aS'to'
p3737
aS'"'
aS'al'
p3738
aS'-'
aS'Qaeda'
p3739
asg87
I0
sg88
I0
sg89
g2990
sg90
(lp3740
sg92
Nsg93
(lp3741
sbI1
sg1
(g12
g3
NtRp3742
(dp3743
S'e'
g15
(tRp3744
S'_5'
p3745
g18
(tRp3746
S'c/capture-01'
p3747
(lp3748
(tassS'_4'
p3749
g18
(tRp3750
S'f/free-01'
p3751
(lp3752
(tassS'_3'
p3753
g18
(tRp3754
S'p/person'
p3755
(lp3756
(tasS'ARG1-of'
p3757
(lp3758
(g3749
tp3759
a(g3745
tp3760
assS'_2'
p3761
g18
(tRp3762
S'l/list-01'
p3763
(lp3764
(tasS'ARG1'
p3765
(lp3766
(g3753
tp3767
assS'_1'
p3768
g18
(tRp3769
S't/thing'
p3770
(lp3771
(tasS'ARG2-of'
p3772
(lp3773
(g3761
tp3774
assS'_0'
p3775
g18
(tRp3776
g1
(g33
g3
NtRp3777
(dp3778
g36
I0
sg37
S'A2-10'
p3779
sb(lp3780
(g3768
tp3781
ass(dp3782
g62
I00
sg63
I10
sg64
(dp3783
g3775
Nssg66
I0
sg67
Nsg68
(dp3784
sg70
(dp3785
sg72
Nsg73
(dp3786
sg75
(lp3787
g3775
asg77
(dp3788
sbsS'f'
(lp3789
S'freed'
p3790
aS'captives'
p3791
aS"'"
aS'list'
p3792
ag204
asg87
I0
sg88
I0
sg89
g83
sg90
(lp3793
sg92
Nsg93
(lp3794
sbI1
sg1
(g12
g3
NtRp3795
(dp3796
S'e'
g15
(tRp3797
S'_6'
p3798
g18
(tRp3799
S'n2/name'
p3800
(lp3801
(tassS'_5'
p3802
g18
(tRp3803
S'n/nationality'
p3804
(lp3805
(tassS'_4'
p3806
g18
(tRp3807
S'p2/person'
p3808
(lp3809
(tassS'_3'
p3810
g18
(tRp3811
S'poss'
p3812
(lp3813
(g3806
tp3814
asg1
(g33
g3
NtRp3815
(dp3816
g36
I1
sg37
S'A3-100'
p3817
sb(lp3818
(g3802
g3798
tp3819
assS'_2'
p3820
g18
(tRp3821
sS'_1'
p3822
g18
(tRp3823
S'ARG0'
p3824
(lp3825
(g3820
tp3826
asS'i/identify-01'
p3827
(lp3828
(tasS'ARG1'
p3829
(lp3830
(g3810
tp3831
assS'_0'
p3832
g18
(tRp3833
g1
(g33
g3
NtRp3834
(dp3835
g36
I0
sg37
S'A2-10'
p3836
sb(lp3837
(g3822
tp3838
ass(dp3839
g62
I00
sg63
I9
sg64
(dp3840
g3832
Nssg66
I0
sg67
Nsg68
(dp3841
sg70
(dp3842
g3806
I1
sg3820
I0
ssg72
Nsg73
(dp3843
I0
S'_2'
p3844
sI1
S'_4'
p3845
ssg75
(lp3846
g3832
asg77
(dp3847
sbsS'f'
(lp3848
g204
aS'identify'
p3849
aS'the'
p3850
aS'nationality'
p3851
ag209
aS'the'
p3852
aS'name'
p3853
aS'of'
p3854
aS'the'
p3855
aS'person'
p3856
asg87
I0
sg88
I0
sg89
g1062
sg90
(lp3857
sg92
Nsg93
(lp3858
sbI1
sg1
(g12
g3
NtRp3859
(dp3860
S'e'
g15
(tRp3861
S'_2'
p3862
g18
(tRp3863
sS'_1'
p3864
g18
(tRp3865
sS'_0'
p3866
g18
(tRp3867
S'a/and'
p3868
(lp3869
(tasS'op1'
p3870
(lp3871
(g3864
tp3872
asS'op2'
p3873
(lp3874
(g3862
tp3875
ass(dp3876
g62
I00
sg63
I3
sg64
(dp3877
sg66
I0
sg67
(dp3878
(S'_0'
p3879
g3870
g3872
tp3880
I0
s(g3879
g3873
g3875
tp3881
I0
s(g3879
g3868
(ttp3882
I0
ssg68
(dp3883
sg70
(dp3884
g3862
I1
sg3864
I0
ssg72
(lp3885
g3882
ag3880
ag3881
asg73
(dp3886
I0
g3864
sI1
g3862
ssg75
(lp3887
g3879
asg77
(dp3888
sbsS'f'
(lp3889
S'and'
p3890
asg87
I0
sg88
I0
sg89
S'[A3-100]'
p3891
sg90
(lp3892
sg92
Nsg93
(lp3893
F1
aF0
aF0
asbI2
sg1
(g12
g3
NtRp3894
(dp3895
S'e'
g15
(tRp3896
S'_4'
p3897
g18
(tRp3898
S't2/this'
p3899
(lp3900
(tassS'_3'
p3901
g18
(tRp3902
S's2/specialize-01'
p3903
(lp3904
(tassS'_2'
p3905
g18
(tRp3906
S'ARG1-of'
p3907
(lp3908
(g3901
tp3909
asS't/thing'
p3910
(lp3911
(tasS'mod'
p3912
(lp3913
(g3897
tp3914
assS'_1'
p3915
g18
(tRp3916
g1
(g33
g3
NtRp3917
(dp3918
g36
I0
sg37
S'A1-1'
p3919
sb(lp3920
(tassS'_0'
p3921
g18
(tRp3922
S'ARG1'
p3923
(lp3924
(g3905
tp3925
asS'ARG2'
p3926
(lp3927
(g3915
tp3928
asS'a/absent-01'
p3929
(lp3930
(tass(dp3931
g63
I9
sg72
Nsg68
(dp3932
sg77
(dp3933
sg62
I00
sg64
(dp3934
g3921
Nssg66
I0
sg67
Nsg75
(lp3935
g3921
asg70
(dp3936
sg73
(dp3937
sbsS'f'
(lp3938
S'absence'
p3939
aS'of'
p3940
aS'these'
p3941
aS'specializations'
p3942
aS'from'
p3943
aS'the'
p3944
ag433
asg87
I0
sg88
I0
sg89
g433
sg90
(lp3945
sg92
Nsg93
(lp3946
sbI-1
sg1
(g12
g3
NtRp3947
(dp3948
S'e'
g15
(tRp3949
S'_4'
p3950
g18
(tRp3951
sS'_3'
p3952
g18
(tRp3953
S'g2/govern-01'
p3954
(lp3955
(tassS'_2'
p3956
g18
(tRp3957
S'g/government-organization'
p3958
(lp3959
(tasS'ARG0-of'
p3960
(lp3961
(g3952
tp3962
assS'_1'
p3963
g18
(tRp3964
S'a/and'
p3965
(lp3966
(tasS'op1'
p3967
(lp3968
(g3956
tp3969
asS'op2'
p3970
(lp3971
(g3950
tp3972
assS'_0'
p3973
g18
(tRp3974
S'ARG0'
p3975
(lp3976
(g3963
tp3977
ass(dp3978
g62
I00
sg63
I7
sg64
(dp3979
g3973
Nssg66
I0
sg67
Nsg68
(dp3980
sg70
(dp3981
g3950
I0
ssg72
Nsg73
(dp3982
I0
S'_4'
p3983
ssg75
(lp3984
g3973
asg77
(dp3985
sbsS'f'
(lp3986
S'of'
p3987
aS'the'
p3988
aS'government'
p3989
aS'and'
p3990
asg87
I0
sg88
I0
sg89
S'[A2-00]'
p3991
sg90
(lp3992
sg92
Nsg93
(lp3993
sbI1
sg1
(g12
g3
NtRp3994
(dp3995
S'e'
g15
(tRp3996
S'_6'
p3997
g18
(tRp3998
S'e/estimate-01'
p3999
(lp4000
(tassS'_5'
p4001
g18
(tRp4002
S'ARG1-of'
p4003
(lp4004
(g3997
tp4005
assS'_4'
p4006
g18
(tRp4007
sS'_3'
p4008
g18
(tRp4009
S'n4/numerous'
p4010
(lp4011
(tassS'_2'
p4012
g18
(tRp4013
S'mod'
p4014
(lp4015
(g4008
tp4016
assS'_1'
p4017
g18
(tRp4018
S'ARG2'
p4019
(lp4020
(g4012
tp4021
asS'i2/include-91'
p4022
(lp4023
(tassS'_0'
p4024
g18
(tRp4025
S'ARG1-of'
p4026
(lp4027
(g4017
tp4028
asg1
(g33
g3
NtRp4029
(dp4030
g36
I0
sg37
S'A3-101'
p4031
sb(lp4032
(g4006
g4001
tp4033
ass(dp4034
g62
I00
sg63
I8
sg64
(dp4035
g4024
Nssg66
I0
sg67
Nsg68
(dp4036
sg70
(dp4037
S'_4'
p4038
I1
sg4012
I0
ssg72
Nsg73
(dp4039
I0
S'_2'
p4040
sI1
g4038
ssg75
(lp4041
g4024
asg77
(dp4042
sbsS'f'
(lp4043
S'estimated'
p4044
aS'to'
p4045
aS'be'
p4046
ag1062
aS'among'
p4047
aS'numerous'
p4048
asg87
I0
sg88
I0
sg89
g209
sg90
(lp4049
sg92
Nsg93
(lp4050
sbI1
sg1
(g12
g3
NtRp4051
(dp4052
S'e'
g15
(tRp4053
S'_5'
p4054
g18
(tRp4055
sS'_4'
p4056
g18
(tRp4057
S'm2/member'
p4058
(lp4059
(tassS'_3'
p4060
g18
(tRp4061
S'h/have-org-role-91'
p4062
(lp4063
(tasS'ARG2'
p4064
(lp4065
(g4056
tp4066
assS'_2'
p4067
g18
(tRp4068
S's2/state'
p4069
(lp4070
(tasS'ARG0-of'
p4071
(lp4072
(g4060
tp4073
assS'_1'
p4074
g18
(tRp4075
S'ARG0'
p4076
(lp4077
(g4067
tp4078
assS'_0'
p4079
g18
(tRp4080
g1
(g33
g3
NtRp4081
(dp4082
g36
I0
sg37
S'A3-110'
p4083
sb(lp4084
(g4074
g4054
tp4085
ass(dp4086
g62
I00
sg63
I7
sg64
(dp4087
g4079
Nssg66
I0
sg67
Nsg68
(dp4088
sg70
(dp4089
S'_5'
p4090
I0
ssg72
Nsg73
(dp4091
I0
g4090
ssg75
(lp4092
g4079
asg77
(dp4093
sbsS'f'
(lp4094
S'[A3-110]'
p4095
aS'of'
p4096
aS'the'
p4097
aS'member'
p4098
aS'states'
p4099
asg87
I0
sg88
I0
sg89
g204
sg90
(lp4100
sg92
Nsg93
(lp4101
sbI1
sg1
(g12
g3
NtRp4102
(dp4103
S'e'
g15
(tRp4104
S'_6'
p4105
g18
(tRp4106
S'"Siniora"'
p4107
(lp4108
(tassS'_5'
p4109
g18
(tRp4110
S'n4/name'
p4111
(lp4112
(tasS'op1'
p4113
(lp4114
(g4105
tp4115
assS'_4'
p4116
g18
(tRp4117
S'"Fouad_Siniora"'
p4118
(lp4119
(tassS'_3'
p4120
g18
(tRp4121
S'p/person'
p4122
(lp4123
(tasS'wiki'
p4124
(lp4125
(g4116
tp4126
asS'name'
p4127
(lp4128
(g4109
tp4129
assS'_2'
p4130
g18
(tRp4131
S'mod'
p4132
(lp4133
(g4120
tp4134
assS'_1'
p4135
g18
(tRp4136
sS'_0'
p4137
g18
(tRp4138
g1
(g33
g3
NtRp4139
(dp4140
g36
I0
sg37
S'A3-100'
p4141
sb(lp4142
(g4135
g4130
tp4143
ass(dp4144
g63
I9
sg72
Nsg68
(dp4145
sg77
(dp4146
sg62
I00
sg64
(dp4147
g4137
Nssg66
I0
sg67
Nsg75
(lp4148
g4137
asg70
(dp4149
S'_2'
p4150
I1
sS'_1'
p4151
I0
ssg73
(dp4152
I0
g4151
sI1
g4150
ssbsS'f'
(lp4153
g575
aS'the'
p4154
aS'Siniora'
p4155
asg87
I0
sg88
I0
sg89
g575
sg90
(lp4156
sg92
Nsg93
(lp4157
sbI-1
sg1
(g12
g3
NtRp4158
(dp4159
S'e'
g15
(tRp4160
S'_7'
p4161
g18
(tRp4162
S'p3/pound'
p4163
(lp4164
(tassS'_6'
p4165
g18
(tRp4166
S'm2/monetary-quantity'
p4167
(lp4168
(tasS'unit'
p4169
(lp4170
(g4161
tp4171
assS'_5'
p4172
g18
(tRp4173
S'a2/also'
p4174
(lp4175
(tassS'_4'
p4176
g18
(tRp4177
S'g/gain-02'
p4178
(lp4179
(tassS'_3'
p4180
g18
(tRp4181
S'ARG1-of'
p4182
(lp4183
(g4176
tp4184
asS't/thing'
p4185
(lp4186
(tassS'_2'
p4187
g18
(tRp4188
g1
(g33
g3
NtRp4189
(dp4190
g36
I0
sg37
S'A1-1'
p4191
sb(lp4192
(tassS'_1'
p4193
g18
(tRp4194
g1
(g33
g3
NtRp4195
(dp4196
g36
I1
sg37
S'A3-100'
p4197
sb(lp4198
(g4187
g4180
tp4199
asS'mod'
p4200
(lp4201
(g4172
tp4202
assS'_0'
p4203
g18
(tRp4204
g1
(g33
g3
NtRp4205
(dp4206
g36
I2
sg37
S'A3-100'
p4207
sb(lp4208
(g4193
g4165
tp4209
ass(dp4210
g63
I11
sg72
Nsg68
(dp4211
sg77
(dp4212
sg62
I00
sg64
(dp4213
g4203
Nssg66
I0
sg67
Nsg75
(lp4214
g4203
asg70
(dp4215
sg73
(dp4216
sbsS'f'
(lp4217
g433
aS'also'
p4218
ag575
aS'gains'
p4219
aS'.'
ag575
aS'pounds'
p4220
asg87
I0
sg88
I0
sg89
g433
sg90
(lp4221
sg92
Nsg93
(lp4222
sbI-1
sg1
(g12
g3
NtRp4223
(dp4224
S'e'
g15
(tRp4225
S'_5'
p4226
g18
(tRp4227
S'n/network'
p4228
(lp4229
(tassS'_4'
p4230
g18
(tRp4231
S'"Damascus"'
p4232
(lp4233
(tassS'_3'
p4234
g18
(tRp4235
S'n4/name'
p4236
(lp4237
(tasS'op1'
p4238
(lp4239
(g4230
tp4240
assS'_2'
p4241
g18
(tRp4242
S'"Damascus"'
p4243
(lp4244
(tassS'_1'
p4245
g18
(tRp4246
S'wiki'
p4247
(lp4248
(g4241
tp4249
asS'c3/city'
p4250
(lp4251
(tasS'name'
p4252
(lp4253
(g4234
tp4254
assS'_0'
p4255
g18
(tRp4256
S's2/support-01'
p4257
(lp4258
(tasS'ARG0'
p4259
(lp4260
(g4245
tp4261
asS'ARG1'
p4262
(lp4263
(g4226
tp4264
ass(dp4265
g63
I11
sg72
Nsg68
(dp4266
sg77
(dp4267
sg62
I00
sg64
(dp4268
g4255
Nssg66
I0
sg67
Nsg75
(lp4269
g4255
asg70
(dp4270
g4226
I0
ssg73
(dp4271
I0
S'_5'
p4272
ssbsS'f'
(lp4273
S'Damascus'
p4274
aS'supports'
p4275
aS'a'
aS'network'
p4276
asg87
I0
sg88
I0
sg89
g578
sg90
(lp4277
sg92
Nsg93
(lp4278
sbI-1
sg1
(g12
g3
NtRp4279
(dp4280
S'e'
g15
(tRp4281
S'_6'
p4282
g18
(tRp4283
sS'_5'
p4284
g18
(tRp4285
S'prep-with'
p4286
(lp4287
(S'_4'
tp4288
assS'_4'
p4289
g18
(tRp4290
sS'_3'
p4291
g18
(tRp4292
g1
(g33
g3
NtRp4293
(dp4294
g36
I0
sg37
S'A5-11010'
p4295
sb(lp4296
(g4289
S'_2'
g4284
g4282
tp4297
assS'_2'
p4298
g18
(tRp4299
sS'_1'
p4300
g18
(tRp4301
S'ARG0'
p4302
(lp4303
(g4298
tp4304
asS'ARG1'
p4305
(lp4306
(g4291
tp4307
asS'r/reject-01'
p4308
(lp4309
(tassS'_0'
p4310
g18
(tRp4311
S'a/after'
p4312
(lp4313
(tasS'op1'
p4314
(lp4315
(g4300
tp4316
ass(dp4317
g62
I00
sg63
I7
sg64
(dp4318
g4310
Nssg66
I0
sg67
Nsg68
(dp4319
sg70
(dp4320
S'_6'
p4321
I2
sS'_4'
p4322
I1
sg4298
I0
ssg72
Nsg73
(dp4323
I0
S'_2'
p4324
sI1
S'_4'
p4325
sI2
g4321
ssg75
(lp4326
g4310
asg77
(dp4327
sbsS'f'
(lp4328
S'After'
p4329
aS'the'
p4330
ag494
aS'with'
p4331
aS'them'
p4332
aS'was'
p4333
aS'rejected'
p4334
asg87
I0
sg88
I0
sg89
S'[A4-1010]'
p4335
sg90
(lp4336
sg92
Nsg93
(lp4337
sbI1
sg1
(g12
g3
NtRp4338
(dp4339
S'e'
g15
(tRp4340
S'_3'
p4341
g18
(tRp4342
S'a/always'
p4343
(lp4344
(tassS'_2'
p4345
g18
(tRp4346
S'g/gratitude'
p4347
(lp4348
(tassS'_1'
p4349
g18
(tRp4350
S'h/heart'
p4351
(lp4352
(tassS'_0'
p4353
g18
(tRp4354
S'k/know-01'
p4355
(lp4356
(tasS'ARG0'
p4357
(lp4358
(g4349
tp4359
asS'time'
p4360
(lp4361
(g4341
tp4362
asS'ARG1'
p4363
(lp4364
(g4345
tp4365
ass(dp4366
g62
I00
sg63
I7
sg64
(dp4367
g4353
Nssg66
I0
sg67
Nsg68
(dp4368
sg70
(dp4369
g4349
I0
ssg72
Nsg73
(dp4370
I0
S'_1'
p4371
ssg75
(lp4372
g4353
asg77
(dp4373
sbsS'f'
(lp4374
S'heart'
p4375
aS'always'
p4376
aS'knows'
p4377
aS'gratitude'
p4378
asg87
I0
sg88
I0
sg89
g2990
sg90
(lp4379
sg92
Nsg93
(lp4380
sbI1
sg1
(g12
g3
NtRp4381
(dp4382
S'e'
g15
(tRp4383
S'_9'
p4384
g18
(tRp4385
sS'_8'
p4386
g18
(tRp4387
S'a/almost'
p4388
(lp4389
(tassS'_7'
p4390
g18
(tRp4391
sS'_6'
p4392
g18
(tRp4393
g1
(g33
g3
NtRp4394
(dp4395
g36
I0
sg37
S'A1-1'
p4396
sb(lp4397
(tassS'_5'
p4398
g18
(tRp4399
S's2/share'
p4400
(lp4401
(tasS'poss'
p4402
(lp4403
(g4392
tp4404
assS'_4'
p4405
g18
(tRp4406
S'ARG1'
p4407
(lp4408
(g4398
tp4409
asS'p2/price-01'
p4410
(lp4411
(tassS'_3'
p4412
g18
(tRp4413
S't/thing'
p4414
(lp4415
(tasS'ARG2-of'
p4416
(lp4417
(g4405
tp4418
assS'_2'
p4419
g18
(tRp4420
g1
(g33
g3
NtRp4421
(dp4422
g36
I1
sg37
S'A3-101'
p4423
sb(lp4424
(g4412
g4390
tp4425
asS'mod'
p4426
(lp4427
(g4386
tp4428
assS'_1'
p4429
g18
(tRp4430
S'ARG1'
p4431
(lp4432
(g4419
tp4433
assS'_0'
p4434
g18
(tRp4435
S'm2/multi-sentence'
p4436
(lp4437
(tasS'snt1'
p4438
(lp4439
(g4429
tp4440
asS'snt2'
p4441
(lp4442
(g4384
tp4443
ass(dp4444
g63
I14
sg72
Nsg68
(dp4445
sg77
(dp4446
sg62
I00
sg64
(dp4447
g4434
Nssg66
I0
sg67
Nsg75
(lp4448
g4434
asg70
(dp4449
S'_7'
p4450
I1
sg4429
I0
sg4384
I2
ssg73
(dp4451
I0
S'_1'
p4452
sI1
g4450
sI2
S'_9'
p4453
ssbsS'f'
(lp4454
S'that'
p4455
aS'the'
p4456
aS'share'
p4457
aS'price'
p4458
aS'of'
p4459
ag433
aS'has'
p4460
aS'almost'
p4461
ag577
asg87
I0
sg88
I0
sg89
S'[A4-1010]'
p4462
sg90
(lp4463
sg92
Nsg93
(lp4464
sbI-1
sg1
(g12
g3
NtRp4465
(dp4466
S'e'
g15
(tRp4467
S'_8'
p4468
g18
(tRp4469
S'a2/also'
p4470
(lp4471
(tassS'_7'
p4472
g18
(tRp4473
S'1'
(lp4474
(tassS'_6'
p4475
g18
(tRp4476
S'y3/year'
p4477
(lp4478
(tassS'_5'
p4479
g18
(tRp4480
S't2/temporal-quantity'
p4481
(lp4482
(tasS'quant'
p4483
(lp4484
(g4472
tp4485
asS'unit'
p4486
(lp4487
(g4475
tp4488
assS'_4'
p4489
g18
(tRp4490
S'a/almost'
p4491
(lp4492
(tasS'op1'
p4493
(lp4494
(g4479
tp4495
assS'_3'
p4496
g18
(tRp4497
S'ARG3'
p4498
(lp4499
(g4489
tp4500
asS'r/rate-entity-91'
p4501
(lp4502
(tassS'_2'
p4503
g18
(tRp4504
g1
(g33
g3
NtRp4505
(dp4506
g36
I1
sg37
S'A1-0'
p4507
sb(lp4508
(tasS'frequency'
p4509
(lp4510
(g4496
tp4511
assS'_1'
p4512
g18
(tRp4513
S'c/court'
p4514
(lp4515
(tassS'_0'
p4516
g18
(tRp4517
g1
(g33
g3
NtRp4518
(dp4519
g36
I0
sg37
S'A3-101'
p4520
sb(lp4521
(g4512
g4503
tp4522
asS'mod'
p4523
(lp4524
(g4468
tp4525
ass(dp4526
g63
I15
sg72
Nsg68
(dp4527
sg77
(dp4528
sg62
I00
sg64
(dp4529
g4516
Nssg66
I0
sg67
Nsg75
(lp4530
g4516
asg70
(dp4531
sg73
(dp4532
sbsS'f'
(lp4533
S'Court'
p4534
aS'also'
p4535
ag577
aS'almost'
p4536
aS'every'
p4537
ag434
aS'years'
p4538
asg87
I0
sg88
I0
sg89
g433
sg90
(lp4539
sg92
Nsg93
(lp4540
sbI-1
sg1
(g12
g3
NtRp4541
(dp4542
S'e'
g15
(tRp4543
S'_6'
p4544
g18
(tRp4545
S'-'
(lp4546
(tassS'_5'
p4547
g18
(tRp4548
S'polarity'
p4549
(lp4550
(g4544
tp4551
asS'l/less'
p4552
(lp4553
(tassS'_4'
p4554
g18
(tRp4555
S'mod'
p4556
(lp4557
(g4547
tp4558
assS'_3'
p4559
g18
(tRp4560
S'ARG1'
p4561
(lp4562
(g4554
tp4563
asS'a2/annihilate-01'
p4564
(lp4565
(tassS'_2'
p4566
g18
(tRp4567
S's/state-01'
p4568
(lp4569
(tassS'_1'
p4570
g18
(tRp4571
S'ARG1-of'
p4572
(lp4573
(g4566
tp4574
asS't/thing'
p4575
(lp4576
(tassS'_0'
p4577
g18
(tRp4578
g1
(g33
g3
NtRp4579
(dp4580
g36
I0
sg37
S'A3-100'
p4581
sb(lp4582
(g4570
g4559
tp4583
ass(dp4584
g62
I00
sg63
I10
sg64
(dp4585
g4577
Nssg66
I0
sg67
Nsg68
(dp4586
sg70
(dp4587
g4554
I0
ssg72
Nsg73
(dp4588
I0
S'_4'
p4589
ssg75
(lp4590
g4577
asg77
(dp4591
sbsS'f'
(lp4592
S'statement'
p4593
ag209
aS'was'
p4594
aS'the'
p4595
aS'annihilation'
p4596
aS'of'
p4597
aS'no'
p4598
aS'less'
p4599
asg87
I0
sg88
I0
sg89
g204
sg90
(lp4600
sg92
Nsg93
(lp4601
sbI1
sg1
(g12
g3
NtRp4602
(dp4603
S'e'
g15
(tRp4604
S'_4'
p4605
g18
(tRp4606
S'o2/only'
p4607
(lp4608
(tassS'_3'
p4609
g18
(tRp4610
S'j/jail'
p4611
(lp4612
(tassS'_2'
p4613
g18
(tRp4614
S'ARG1'
p4615
(lp4616
(S'_1'
tp4617
asS'ARG2'
p4618
(lp4619
(g4609
tp4620
asS'r2/return-01'
p4621
(lp4622
(tasS'mod'
p4623
(lp4624
(g4605
tp4625
assS'_1'
p4626
g18
(tRp4627
sS'_0'
p4628
g18
(tRp4629
g1
(g33
g3
NtRp4630
(dp4631
g36
I0
sg37
S'A2-11'
p4632
sb(lp4633
(g4626
tp4634
asS'purpose'
p4635
(lp4636
(g4613
tp4637
ass(dp4638
g62
I00
sg63
I8
sg64
(dp4639
g4628
Nssg66
I0
sg67
Nsg68
(dp4640
sg70
(dp4641
sg72
Nsg73
(dp4642
sg75
(lp4643
g4628
asg77
(dp4644
sbsS'f'
(lp4645
g2990
aS'..'
p4646
aS'Only'
p4647
aS'to'
p4648
aS'Return'
p4649
aS'to'
p4650
aS'Jail'
p4651
asg87
I0
sg88
I0
sg89
g83
sg90
(lp4652
sg92
Nsg93
(lp4653
sbI1
sg1
(g12
g3
NtRp4654
(dp4655
S'e'
g15
(tRp4656
S'_4'
p4657
g18
(tRp4658
S'a/altogether'
p4659
(lp4660
(tassS'_3'
p4661
g18
(tRp4662
S'm/minor'
p4663
(lp4664
(tassS'_2'
p4665
g18
(tRp4666
S'ARG1'
p4667
(lp4668
(S'_1'
tp4669
asS'mod'
p4670
(lp4671
(g4661
tp4672
asS'w/wound-01'
p4673
(lp4674
(tassS'_1'
p4675
g18
(tRp4676
sS'_0'
p4677
g18
(tRp4678
g1
(g33
g3
NtRp4679
(dp4680
g36
I0
sg37
S'A3-110'
p4681
sb(lp4682
(g4675
g4665
tp4683
asS'mod'
p4684
(lp4685
(g4657
tp4686
ass(dp4687
g62
I00
sg63
I7
sg64
(dp4688
g4677
Nssg66
I0
sg67
Nsg68
(dp4689
sg70
(dp4690
sg72
Nsg73
(dp4691
sg75
(lp4692
g4677
asg77
(dp4693
sbsS'f'
(lp4694
S'altogether'
p4695
ag4095
aS'minor'
p4696
aS'wounds'
p4697
asg87
I0
sg88
I0
sg89
g83
sg90
(lp4698
sg92
Nsg93
(lp4699
sbI1
sg1
(g12
g3
NtRp4700
(dp4701
S'e'
g15
(tRp4702
S'_3'
p4703
g18
(tRp4704
sS'_2'
p4705
g18
(tRp4706
S'm2/more'
p4707
(lp4708
(tassS'_1'
p4709
g18
(tRp4710
S'e/early'
p4711
(lp4712
(tasS'degree'
p4713
(lp4714
(g4705
tp4715
assS'_0'
p4716
g18
(tRp4717
S'ARG1'
p4718
(lp4719
(g4703
tp4720
asS'm/melt-01'
p4721
(lp4722
(tasS'time'
p4723
(lp4724
(g4709
tp4725
ass(dp4726
g63
I6
sg72
Nsg68
(dp4727
sg77
(dp4728
sg62
I00
sg64
(dp4729
g4716
Nssg66
I0
sg67
Nsg75
(lp4730
g4716
asg70
(dp4731
g4703
I0
ssg73
(dp4732
I0
S'_3'
p4733
ssbsS'f'
(lp4734
S'melted'
p4735
aS'earlier'
p4736
asg87
I0
sg88
I0
sg89
g982
sg90
(lp4737
sg92
Nsg93
(lp4738
sbI-1
sg1
(g12
g3
NtRp4739
(dp4740
S'e'
g15
(tRp4741
S'_4'
p4742
g18
(tRp4743
S'k/kingdom'
p4744
(lp4745
(tassS'_3'
p4746
g18
(tRp4747
S'i/institute'
p4748
(lp4749
(tassS'_2'
p4750
g18
(tRp4751
S'c/college'
p4752
(lp4753
(tassS'_1'
p4754
g18
(tRp4755
S'u/university'
p4756
(lp4757
(tassS'_0'
p4758
g18
(tRp4759
S'a2/and'
p4760
(lp4761
(tasS'op3'
p4762
(lp4763
(g4746
tp4764
asS'op1'
p4765
(lp4766
(g4754
tp4767
asS'op2'
p4768
(lp4769
(g4750
tp4770
asS'poss'
p4771
(lp4772
(g4742
tp4773
ass(dp4774
g63
I9
sg72
Nsg68
(dp4775
sg77
(dp4776
sg62
I00
sg64
(dp4777
g4758
Nssg66
I0
sg67
Nsg75
(lp4778
g4758
asg70
(dp4779
sg73
(dp4780
sbsS'f'
(lp4781
S'universities'
p4782
aS','
aS'colleges'
p4783
aS'and'
p4784
aS'institutes'
p4785
aS'of'
p4786
aS'the'
p4787
aS'Kingdom'
p4788
asg87
I0
sg88
I0
sg89
g433
sg90
(lp4789
sg92
Nsg93
(lp4790
sbI-1
sg1
(g12
g3
NtRp4791
(dp4792
S'e'
g15
(tRp4793
S'_4'
p4794
g18
(tRp4795
S'r/release-01'
p4796
(lp4797
(tasg1
(g33
g3
NtRp4798
(dp4799
g36
I2
sg37
S'A1-0'
p4800
sb(lp4801
(tassS'_3'
p4802
g18
(tRp4803
S'p/person'
p4804
(lp4805
(tasS'ARG1-of'
p4806
(lp4807
(g4794
tp4808
assS'_2'
p4809
g18
(tRp4810
g1
(g33
g3
NtRp4811
(dp4812
g36
I1
sg37
S'A2-10'
p4813
sb(lp4814
(g4802
tp4815
assS'_1'
p4816
g18
(tRp4817
sS'_0'
p4818
g18
(tRp4819
g1
(g33
g3
NtRp4820
(dp4821
g36
I0
sg37
S'A3-100'
p4822
sb(lp4823
(g4816
g4809
tp4824
ass(dp4825
g63
I6
sg72
Nsg68
(dp4826
sg77
(dp4827
sg62
I00
sg64
(dp4828
g4818
Nssg66
I0
sg67
Nsg75
(lp4829
g4818
asg70
(dp4830
S'_1'
p4831
I0
ssg73
(dp4832
I0
g4831
ssbsS'f'
(lp4833
g575
aS'the'
p4834
ag982
aS','
aS'who'
p4835
aS'were'
p4836
aS'released'
p4837
ag434
asg87
I0
sg88
I0
sg89
g982
sg90
(lp4838
sg92
Nsg93
(lp4839
sbI-1
sg1
(g12
g3
NtRp4840
(dp4841
S'e'
g15
(tRp4842
S'_3'
p4843
g18
(tRp4844
S'm/main'
p4845
(lp4846
(tassS'_2'
p4847
g18
(tRp4848
g1
(g33
g3
NtRp4849
(dp4850
g36
I1
sg37
S'A1-1'
p4851
sb(lp4852
(tassS'_1'
p4853
g18
(tRp4854
S'b/board'
p4855
(lp4856
(tasS'poss'
p4857
(lp4858
(g4847
tp4859
asS'mod'
p4860
(lp4861
(g4843
tp4862
assS'_0'
p4863
g18
(tRp4864
g1
(g33
g3
NtRp4865
(dp4866
g36
I0
sg37
S'A2-10'
p4867
sb(lp4868
(g4853
tp4869
ass(dp4870
g62
I00
sg63
I6
sg64
(dp4871
g4863
Nssg66
I0
sg67
Nsg68
(dp4872
sg70
(dp4873
sg72
Nsg73
(dp4874
sg75
(lp4875
g4863
asg77
(dp4876
sbsS'f'
(lp4877
g204
aS'the'
p4878
aS'main'
p4879
aS'board'
p4880
aS'of'
p4881
aS'the'
p4882
ag83
asg87
I0
sg88
I0
sg89
g83
sg90
(lp4883
sg92
Nsg93
(lp4884
sbI1
sg1
(g12
g3
NtRp4885
(dp4886
S'e'
g15
(tRp4887
S'_4'
p4888
g18
(tRp4889
S'11'
p4890
(lp4891
(tassS'_3'
p4892
g18
(tRp4893
S'quant'
p4894
(lp4895
(g4888
tp4896
assS'_2'
p4897
g18
(tRp4898
S'6'
(lp4899
(tassS'_1'
p4900
g18
(tRp4901
S'quant'
p4902
(lp4903
(g4897
tp4904
asS'w/woman'
p4905
(lp4906
(tassS'_0'
p4907
g18
(tRp4908
g1
(g33
g3
NtRp4909
(dp4910
g36
I0
sg37
S'A3-100'
p4911
sb(lp4912
(g4900
g4892
tp4913
ass(dp4914
g63
I6
sg72
Nsg68
(dp4915
sg77
(dp4916
sg62
I00
sg64
(dp4917
g4907
Nssg66
I0
sg67
Nsg75
(lp4918
g4907
asg70
(dp4919
S'_3'
p4920
I0
ssg73
(dp4921
I0
g4920
ssbsS'f'
(lp4922
S'6'
aS'women'
p4923
aS'[A3-100]'
p4924
aS'11'
p4925
asg87
I0
sg88
I0
sg89
g397
sg90
(lp4926
sg92
Nsg93
(lp4927
sbI-1
sg1
(g12
g3
NtRp4928
(dp4929
S'e'
g15
(tRp4930
S'_9'
p4931
g18
(tRp4932
sS'_8'
p4933
g18
(tRp4934
g1
(g33
g3
NtRp4935
(dp4936
g36
I1
sg37
S'A3-100'
p4937
sb(lp4938
(S'_6'
g4931
tp4939
assS'_7'
p4940
g18
(tRp4941
sS'_6'
p4942
g18
(tRp4943
sS'_5'
p4944
g18
(tRp4945
g1
(g33
g3
NtRp4946
(dp4947
g36
I0
sg37
S'A4-1100'
p4948
sb(lp4949
(g4942
g4940
g4933
tp4950
assS'_4'
p4951
g18
(tRp4952
S'"Rockstr\xc3\xb6m"'
p4953
(lp4954
(tassS'_3'
p4955
g18
(tRp4956
S'n/name'
p4957
(lp4958
(tasS'op1'
p4959
(lp4960
(g4951
tp4961
assS'_2'
p4962
g18
(tRp4963
S'"Johan_Rockstr\xc3\xb6m"'
p4964
(lp4965
(tassS'_1'
p4966
g18
(tRp4967
S'p/person'
p4968
(lp4969
(tasS'wiki'
p4970
(lp4971
(g4962
tp4972
asS'name'
p4973
(lp4974
(g4955
tp4975
assS'_0'
p4976
g18
(tRp4977
S'ARG0'
p4978
(lp4979
(g4966
tp4980
asS's/say-01'
p4981
(lp4982
(tasS'ARG1'
p4983
(lp4984
(g4944
tp4985
ass(dp4986
g63
I12
sg72
Nsg68
(dp4987
sg77
(dp4988
sg62
I00
sg64
(dp4989
g4976
Nssg66
I0
sg67
Nsg75
(lp4990
g4976
asg70
(dp4991
S'_7'
p4992
I1
sS'_6'
p4993
I0
sS'_9'
p4994
I2
ssg73
(dp4995
I0
S'_6'
p4996
sI1
g4992
sI2
g4994
ssbsS'f'
(lp4997
S'Rockstr\xc3\xb6m'
p4998
aS'said'
p4999
aS'that'
p5000
aS'[A4-1100]'
p5001
aS'the'
p5002
ag575
asg87
I0
sg88
I0
sg89
g5001
sg90
(lp5003
sg92
Nsg93
(lp5004
sbI-1
sg1
(g12
g3
NtRp5005
(dp5006
S'e'
g15
(tRp5007
S'_3'
p5008
g18
(tRp5009
S'n3/next'
p5010
(lp5011
(tassS'_2'
p5012
g18
(tRp5013
S'w/week'
p5014
(lp5015
(tasS'mod'
p5016
(lp5017
(g5008
tp5018
assS'_1'
p5019
g18
(tRp5020
g1
(g33
g3
NtRp5021
(dp5022
g36
I1
sg37
S'A1-1'
p5023
sb(lp5024
(tassS'_0'
p5025
g18
(tRp5026
g1
(g33
g3
NtRp5027
(dp5028
g36
I0
sg37
S'A3-100'
p5029
sb(lp5030
(g5019
g5012
tp5031
ass(dp5032
g63
I5
sg72
Nsg68
(dp5033
sg77
(dp5034
sg62
I00
sg64
(dp5035
g5025
Nssg66
I0
sg67
Nsg75
(lp5036
g5025
asg70
(dp5037
sg73
(dp5038
sbsS'f'
(lp5039
g575
aS'the'
p5040
ag433
aS'next'
p5041
aS'week'
p5042
asg87
I0
sg88
I0
sg89
g433
sg90
(lp5043
sg92
Nsg93
(lp5044
sbI-1
sg1
(g12
g3
NtRp5045
(dp5046
S'e'
g15
(tRp5047
S'_4'
p5048
g18
(tRp5049
S'imperative'
p5050
(lp5051
(tassS'_3'
p5052
g18
(tRp5053
S'y/you'
p5054
(lp5055
(tassS'_2'
p5056
g18
(tRp5057
S'poss'
p5058
(lp5059
(g5052
tp5060
asS'l/life'
p5061
(lp5062
(tassS'_1'
p5063
g18
(tRp5064
S'purpose'
p5065
(lp5066
(g5056
tp5067
assS'_0'
p5068
g18
(tRp5069
S'ARG0'
p5070
(lp5071
(S'_3'
tp5072
asg1
(g33
g3
NtRp5073
(dp5074
g36
I0
sg37
S'A2-11'
p5075
sb(lp5076
(g5063
tp5077
asS'mode'
p5078
(lp5079
(g5048
tp5080
ass(dp5081
g62
I00
sg63
I8
sg64
(dp5082
g5068
Nssg66
I0
sg67
Nsg68
(dp5083
sg70
(dp5084
sg72
Nsg73
(dp5085
sg75
(lp5086
g5068
asg77
(dp5087
sbsS'f'
(lp5088
g2990
aS'for'
p5089
aS'your'
p5090
aS'own'
p5091
aS'life'
p5092
asg87
I0
sg88
I0
sg89
g83
sg90
(lp5093
sg92
Nsg93
(lp5094
sbI1
sg1
(g12
g3
NtRp5095
(dp5096
S'e'
g15
(tRp5097
S'_3'
p5098
g18
(tRp5099
S'"Beirut"'
p5100
(lp5101
(tassS'_2'
p5102
g18
(tRp5103
S'n5/name'
p5104
(lp5105
(tasS'op1'
p5106
(lp5107
(g5098
tp5108
assS'_1'
p5109
g18
(tRp5110
S'"Beirut"'
p5111
(lp5112
(tassS'_0'
p5113
g18
(tRp5114
S'wiki'
p5115
(lp5116
(g5109
tp5117
asS'c4/city'
p5118
(lp5119
(tasS'name'
p5120
(lp5121
(g5102
tp5122
ass(dp5123
g62
I00
sg63
I7
sg64
(dp5124
sg66
I0
sg67
Nsg68
(dp5125
sg70
(dp5126
sg72
Nsg73
(dp5127
sg75
(lp5128
S'_0'
p5129
asg77
(dp5130
sbsS'f'
(lp5131
S'Beirut'
p5132
asg87
I0
sg88
I0
sg89
S'[A1-1]'
p5133
sg90
(lp5134
sg92
Nsg93
(lp5135
sbI1
sg1
(g12
g3
NtRp5136
(dp5137
S'e'
g15
(tRp5138
S'_7'
p5139
g18
(tRp5140
g1
(g33
g3
NtRp5141
(dp5142
g36
I0
sg37
S'A1-1'
p5143
sb(lp5144
(tassS'_6'
p5145
g18
(tRp5146
S'a/air'
p5147
(lp5148
(tassS'_5'
p5149
g18
(tRp5150
S'7'
(lp5151
(tassS'_4'
p5152
g18
(tRp5153
S'quant'
p5154
(lp5155
(g5149
tp5156
assS'_3'
p5157
g18
(tRp5158
S'ARG1'
p5159
(lp5160
(g5152
tp5161
asS'm2/murder-01'
p5162
(lp5163
(tassS'_2'
p5164
g18
(tRp5165
S'ARG2'
p5166
(lp5167
(g5157
tp5168
asS'r/result-01'
p5169
(lp5170
(tassS'_1'
p5171
g18
(tRp5172
S'2'
(lp5173
(tassS'_0'
p5174
g18
(tRp5175
S's2/strike-01'
p5176
(lp5177
(tasS'ARG0'
p5178
(lp5179
(g5139
tp5180
asS'ARG1-of'
p5181
(lp5182
(g5164
tp5183
asS'quant'
p5184
(lp5185
(g5171
tp5186
asS'mod'
p5187
(lp5188
(g5145
tp5189
ass(dp5190
g63
I14
sg72
Nsg68
(dp5191
sg77
(dp5192
sg62
I00
sg64
(dp5193
g5174
Nssg66
I0
sg67
Nsg75
(lp5194
g5174
asg70
(dp5195
g5152
I0
ssg73
(dp5196
I0
S'_4'
p5197
ssbsS'f'
(lp5198
S'two'
p5199
ag433
aS'air'
p5200
aS'strikes'
p5201
aS'which'
p5202
aS'resulted'
p5203
aS'in'
p5204
aS'the'
p5205
aS'murder'
p5206
aS'of'
p5207
aS'seven'
p5208
asg87
I0
sg88
I0
sg89
g982
sg90
(lp5209
sg92
Nsg93
(lp5210
sbI-1
sg1
(g12
g3
NtRp5211
(dp5212
S'e'
g15
(tRp5213
S'_7'
p5214
g18
(tRp5215
sS'_6'
p5216
g18
(tRp5217
g1
(g33
g3
NtRp5218
(dp5219
g36
I2
sg37
S'A3-101'
p5220
sb(lp5221
(S'_3'
g5214
tp5222
assS'_5'
p5223
g18
(tRp5224
S's3/swimsuit'
p5225
(lp5226
(tassS'_4'
p5227
g18
(tRp5228
S'd/dress'
p5229
(lp5230
(tassS'_3'
p5231
g18
(tRp5232
g1
(g33
g3
NtRp5233
(dp5234
g36
I0
sg37
S'A3-100'
p5235
sb(lp5236
(g5227
g5223
tp5237
assS'_2'
p5238
g18
(tRp5239
g1
(g33
g3
NtRp5240
(dp5241
g36
I1
sg37
S'A2-10'
p5242
sb(lp5243
(g5231
tp5244
assS'_1'
p5245
g18
(tRp5246
S'ARG1'
p5247
(lp5248
(g5238
tp5249
asS'p/possible-01'
p5250
(lp5251
(tassS'_0'
p5252
g18
(tRp5253
S'ARG1'
p5254
(lp5255
(g5245
tp5256
asS'c2/contrast-01'
p5257
(lp5258
(tasS'ARG2'
p5259
(lp5260
(g5216
tp5261
ass(dp5262
g62
I00
sg63
I10
sg64
(dp5263
g5252
Nssg66
I0
sg67
Nsg68
(dp5264
sg70
(dp5265
S'_7'
p5266
I0
ssg72
Nsg73
(dp5267
I0
g5266
ssg75
(lp5268
g5252
asg77
(dp5269
sbsS'f'
(lp5270
S'dress'
p5271
ag209
aS'swimsuit'
p5272
aS'can'
p5273
aS'be'
p5274
ag204
aS','
aS'but'
p5275
ag1062
asg87
I0
sg88
I0
sg89
g2990
sg90
(lp5276
sg92
Nsg93
(lp5277
sbI1
sg1
(g12
g3
NtRp5278
(dp5279
S'e'
g15
(tRp5280
S'_6'
p5281
g18
(tRp5282
S'ARG0'
p5283
(lp5284
(S'_1'
tp5285
asS'w/warn-01'
p5286
(lp5287
(tassS'_5'
p5288
g18
(tRp5289
g1
(g33
g3
NtRp5290
(dp5291
g36
I1
sg37
S'A1-1'
p5292
sb(lp5293
(tassS'_4'
p5294
g18
(tRp5295
S'ARG0'
p5296
(lp5297
(g5288
tp5298
asS'f/find-01'
p5299
(lp5300
(tassS'_3'
p5301
g18
(tRp5302
S'ARG1-of'
p5303
(lp5304
(g5294
tp5305
assS'_2'
p5306
g18
(tRp5307
S's/some'
p5308
(lp5309
(tassS'_1'
p5310
g18
(tRp5311
S'mod'
p5312
(lp5313
(g5306
tp5314
assS'_0'
p5315
g18
(tRp5316
g1
(g33
g3
NtRp5317
(dp5318
g36
I0
sg37
S'A4-1110'
p5319
sb(lp5320
(g5310
g5301
g5281
tp5321
ass(dp5322
g62
I00
sg63
I9
sg64
(dp5323
g5315
Nssg66
I0
sg67
Nsg68
(dp5324
sg70
(dp5325
S'_6'
p5326
I0
ssg72
Nsg73
(dp5327
I0
g5326
ssg75
(lp5328
g5315
asg77
(dp5329
sbsS'f'
(lp5330
S'some'
p5331
aS'[A4-1110]'
p5332
aS'the'
p5333
ag83
aS"'s"
p5334
aS'finding'
p5335
aS','
aS'warning'
p5336
asg87
I0
sg88
I0
sg89
g2990
sg90
(lp5337
sg92
Nsg93
(lp5338
sbI1
sg1
(g12
g3
NtRp5339
(dp5340
S'e'
g15
(tRp5341
S'_6'
p5342
g18
(tRp5343
S'y/yuan'
p5344
(lp5345
(tassS'_5'
p5346
g18
(tRp5347
S'unit'
p5348
(lp5349
(g5342
tp5350
assS'_4'
p5351
g18
(tRp5352
S'b/busy'
p5353
(lp5354
(tassS'_3'
p5355
g18
(tRp5356
S's4/street'
p5357
(lp5358
(tasS'mod'
p5359
(lp5360
(g5351
tp5361
assS'_2'
p5362
g18
(tRp5363
S'c/corner'
p5364
(lp5365
(tasS'op1'
p5366
(lp5367
(g5355
tp5368
assS'_1'
p5369
g18
(tRp5370
S's/shop'
p5371
(lp5372
(tasS'location'
p5373
(lp5374
(g5362
tp5375
assS'_0'
p5376
g18
(tRp5377
g1
(g33
g3
NtRp5378
(dp5379
g36
I1
sg37
S'A3-101'
p5380
sb(lp5381
(g5369
g5346
tp5382
asg1
(g33
g3
NtRp5383
(dp5384
g36
I0
sg37
S'A1-0'
p5385
sb(lp5386
(tass(dp5387
g62
I00
sg63
I11
sg64
(dp5388
g5376
Nssg66
I0
sg67
Nsg68
(dp5389
sg70
(dp5390
sg72
Nsg73
(dp5391
sg75
(lp5392
g5376
asg77
(dp5393
sbsS'f'
(lp5394
g311
ag1062
aS'-'
aS'yuan'
p5395
aS'shoeshine'
p5396
aS'shop'
p5397
aS'on'
p5398
aS'a'
aS'busy'
p5399
aS'street'
p5400
aS'corner'
p5401
asg87
I0
sg88
I0
sg89
g83
sg90
(lp5402
sg92
Nsg93
(lp5403
sbI1
sg1
(g12
g3
NtRp5404
(dp5405
S'e'
g15
(tRp5406
S'_4'
p5407
g18
(tRp5408
S'c4/certain'
p5409
(lp5410
(tassS'_3'
p5411
g18
(tRp5412
S'mod'
p5413
(lp5414
(g5407
tp5415
assS'_2'
p5416
g18
(tRp5417
S'ARG1'
p5418
(lp5419
(g5411
tp5420
asS'r/resist-01'
p5421
(lp5422
(tassS'_1'
p5423
g18
(tRp5424
S'ARG0-of'
p5425
(lp5426
(g5416
tp5427
assS'_0'
p5428
g18
(tRp5429
g1
(g33
g3
NtRp5430
(dp5431
g36
I0
sg37
S'A2-11'
p5432
sb(lp5433
(g5423
tp5434
ass(dp5435
g63
I6
sg72
Nsg68
(dp5436
sg77
(dp5437
sg62
I00
sg64
(dp5438
g5428
Nssg66
I0
sg67
Nsg75
(lp5439
g5428
asg70
(dp5440
g5411
I0
ssg73
(dp5441
I0
S'_3'
p5442
ssbsS'f'
(lp5443
g578
aS'that'
p5444
aS'is'
p5445
aS'resistant'
p5446
aS'to'
p5447
aS'certain'
p5448
asg87
I0
sg88
I0
sg89
g982
sg90
(lp5449
sg92
Nsg93
(lp5450
sbI-1
sg1
(g12
g3
NtRp5451
(dp5452
S'e'
g15
(tRp5453
S'_4'
p5454
g18
(tRp5455
S's/still'
p5456
(lp5457
(tassS'_3'
p5458
g18
(tRp5459
S'ARG1'
p5460
(lp5461
(S'_1'
tp5462
asS'w/wait-01'
p5463
(lp5464
(tassS'_2'
p5465
g18
(tRp5466
S't2/time'
p5467
(lp5468
(tassS'_1'
p5469
g18
(tRp5470
sS'_0'
p5471
g18
(tRp5472
S'ARG0'
p5473
(lp5474
(g5469
tp5475
asS'ARG1'
p5476
(lp5477
(g5465
tp5478
asS'h/have-03'
p5479
(lp5480
(tasS'purpose'
p5481
(lp5482
(g5458
tp5483
asS'mod'
p5484
(lp5485
(g5454
tp5486
ass(dp5487
g62
I00
sg63
I9
sg64
(dp5488
g5471
Nssg66
I0
sg67
Nsg68
(dp5489
sg70
(dp5490
g5458
I1
sg5469
I0
ssg72
Nsg73
(dp5491
I0
S'_1'
p5492
sI1
S'_3'
p5493
ssg75
(lp5494
g5471
asg77
(dp5495
sbsS'f'
(lp5496
S'still'
p5497
aS'have'
p5498
aS'time'
p5499
aS'to'
p5500
aS'wait'
p5501
asg87
I0
sg88
I0
sg89
g1062
sg90
(lp5502
sg92
Nsg93
(lp5503
sbI1
sg1
(g12
g3
NtRp5504
(dp5505
S'e'
g15
(tRp5506
S'_6'
p5507
g18
(tRp5508
g1
(g33
g3
NtRp5509
(dp5510
g36
I2
sg37
S'A2-11'
p5511
sb(lp5512
(S'_4'
tp5513
assS'_5'
p5514
g18
(tRp5515
sS'_4'
p5516
g18
(tRp5517
S'part-of'
p5518
(lp5519
(g5514
tp5520
assS'_3'
p5521
g18
(tRp5522
S'beneficiary'
p5523
(lp5524
(g5516
tp5525
assS'_2'
p5526
g18
(tRp5527
g1
(g33
g3
NtRp5528
(dp5529
g36
I1
sg37
S'A4-1110'
p5530
sb(lp5531
(g5521
S'_5'
g5507
tp5532
assS'_1'
p5533
g18
(tRp5534
S'w/we'
p5535
(lp5536
(tassS'_0'
p5537
g18
(tRp5538
S'n/need-01'
p5539
(lp5540
(tasg1
(g33
g3
NtRp5541
(dp5542
g36
I0
sg37
S'A3-000'
p5543
sb(lp5544
(g5533
g5526
tp5545
ass(dp5546
g62
I00
sg63
I7
sg64
(dp5547
g5537
Nssg66
I0
sg67
Nsg68
(dp5548
sg70
(dp5549
sg72
Nsg73
(dp5550
sg75
(lp5551
g5537
asg77
(dp5552
sbsS'f'
(lp5553
S'[A3-000]'
p5554
aS','
aS'we'
p5555
aS'need'
p5556
ag5332
ag2990
asg87
I0
sg88
I0
sg89
g83
sg90
(lp5557
sg92
Nsg93
(lp5558
sbI1
sg1
(g12
g3
NtRp5559
(dp5560
S'e'
g15
(tRp5561
S'_8'
p5562
g18
(tRp5563
sS'_7'
p5564
g18
(tRp5565
S'c/correspondent'
p5566
(lp5567
(tassS'_6'
p5568
g18
(tRp5569
S'h/have-org-role-91'
p5570
(lp5571
(tasS'ARG2'
p5572
(lp5573
(g5564
tp5574
assS'_5'
p5575
g18
(tRp5576
S'"Xueli"'
p5577
(lp5578
(tassS'_4'
p5579
g18
(tRp5580
S'"Lu"'
p5581
(lp5582
(tassS'_3'
p5583
g18
(tRp5584
S'n/name'
p5585
(lp5586
(tasS'op1'
p5587
(lp5588
(g5579
tp5589
asS'op2'
p5590
(lp5591
(g5575
tp5592
assS'_2'
p5593
g18
(tRp5594
S'-'
(lp5595
(tassS'_1'
p5596
g18
(tRp5597
S'wiki'
p5598
(lp5599
(g5593
tp5600
asS'p2/person'
p5601
(lp5602
(tasS'name'
p5603
(lp5604
(g5583
tp5605
asS'ARG0-of'
p5606
(lp5607
(g5568
tp5608
assS'_0'
p5609
g18
(tRp5610
S'ARG0'
p5611
(lp5612
(g5596
tp5613
asS'ARG1'
p5614
(lp5615
(g5562
tp5616
asS'w/wire-01'
p5617
(lp5618
(tass(dp5619
g62
I00
sg63
I16
sg64
(dp5620
g5609
Nssg66
I0
sg67
Nsg68
(dp5621
sg70
(dp5622
g5562
I0
ssg72
Nsg73
(dp5623
I0
S'_8'
p5624
ssg75
(lp5625
g5609
asg77
(dp5626
sbsS'f'
(lp5627
S'Wire'
p5628
aS'('
aS'Correspondent'
p5629
aS'Lu'
p5630
aS'Xueli'
p5631
asg87
I0
sg88
I0
sg89
g204
sg90
(lp5632
sg92
Nsg93
(lp5633
sbI1
sg1
(g12
g3
NtRp5634
(dp5635
S'e'
g15
(tRp5636
S'_5'
p5637
g18
(tRp5638
S'7'
(lp5639
(tassS'_4'
p5640
g18
(tRp5641
S'quant'
p5642
(lp5643
(g5637
tp5644
assS'_3'
p5645
g18
(tRp5646
S'ARG1'
p5647
(lp5648
(g5640
tp5649
asS'm2/murder-01'
p5650
(lp5651
(tassS'_2'
p5652
g18
(tRp5653
g1
(g33
g3
NtRp5654
(dp5655
g36
I0
sg37
S'A1-1'
p5656
sb(lp5657
(tassS'_1'
p5658
g18
(tRp5659
S'2'
(lp5660
(tassS'_0'
p5661
g18
(tRp5662
S'quant'
p5663
(lp5664
(g5658
tp5665
asg1
(g33
g3
NtRp5666
(dp5667
g36
I1
sg37
S'A3-100'
p5668
sb(lp5669
(g5652
g5645
tp5670
ass(dp5671
g62
I00
sg63
I8
sg64
(dp5672
g5661
Nssg66
I0
sg67
Nsg68
(dp5673
sg70
(dp5674
g5640
I0
ssg72
Nsg73
(dp5675
I0
S'_4'
p5676
ssg75
(lp5677
g5661
asg77
(dp5678
sbsS'f'
(lp5679
S'two'
p5680
ag83
ag209
aS'the'
p5681
aS'murder'
p5682
aS'of'
p5683
aS'seven'
p5684
asg87
I0
sg88
I0
sg89
g204
sg90
(lp5685
sg92
Nsg93
(lp5686
sbI1
sg1
(g12
g3
NtRp5687
(dp5688
S'e'
g15
(tRp5689
S'_3'
p5690
g18
(tRp5691
sS'_2'
p5692
g18
(tRp5693
S'ARG1'
p5694
(lp5695
(g5690
tp5696
asS'w2/wash-01'
p5697
(lp5698
(tassS'_1'
p5699
g18
(tRp5700
S'-'
(lp5701
(tassS'_0'
p5702
g18
(tRp5703
S'polarity'
p5704
(lp5705
(g5699
tp5706
asS'ARG1'
p5707
(lp5708
(g5692
tp5709
asS'p2/possible-01'
p5710
(lp5711
(tass(dp5712
g62
I00
sg63
I6
sg64
(dp5713
g5702
Nssg66
I0
sg67
Nsg68
(dp5714
sg70
(dp5715
g5690
I1
sg5692
I0
ssg72
Nsg73
(dp5716
I0
S'_2'
p5717
sI1
S'_3'
p5718
ssg75
(lp5719
g5702
asg77
(dp5720
sbsS'f'
(lp5721
S'cannot'
p5722
aS'be'
p5723
aS'washed'
p5724
asg87
I0
sg88
I0
sg89
g4095
sg90
(lp5725
sg92
Nsg93
(lp5726
sbI1
sg1
(g12
g3
NtRp5727
(dp5728
S'e'
g15
(tRp5729
S'_2'
p5730
g18
(tRp5731
S'4'
(lp5732
(tassS'_1'
p5733
g18
(tRp5734
S'y/year'
p5735
(lp5736
(tassS'_0'
p5737
g18
(tRp5738
S'quant'
p5739
(lp5740
(g5730
tp5741
asS'unit'
p5742
(lp5743
(g5733
tp5744
asg1
(g33
g3
NtRp5745
(dp5746
g36
I0
sg37
S'A1-1'
p5747
sb(lp5748
(tass(dp5749
g63
I5
sg72
Nsg68
(dp5750
sg77
(dp5751
sg62
I00
sg64
(dp5752
g5737
Nssg66
I0
sg67
Nsg75
(lp5753
g5737
asg70
(dp5754
sg73
(dp5755
sbsS'f'
(lp5756
S'Four'
p5757
aS'years'
p5758
aS'of'
p5759
ag433
asg87
I0
sg88
I0
sg89
g433
sg90
(lp5760
sg92
Nsg93
(lp5761
sbI-1
sg1
(g12
g3
NtRp5762
(dp5763
S'e'
g15
(tRp5764
S'_3'
p5765
g18
(tRp5766
S's/special-02'
p5767
(lp5768
(tassS'_2'
p5769
g18
(tRp5770
S's2/sport'
p5771
(lp5772
(tassS'_1'
p5773
g18
(tRp5774
g1
(g33
g3
NtRp5775
(dp5776
g36
I1
sg37
S'A1-1'
p5777
sb(lp5778
(tassS'_0'
p5779
g18
(tRp5780
S'ARG1-of'
p5781
(lp5782
(g5765
tp5783
asS'mod'
p5784
(lp5785
(g5769
tp5786
asg1
(g33
g3
NtRp5787
(dp5788
g36
I0
sg37
S'A2-10'
p5789
sb(lp5790
(g5773
tp5791
ass(dp5792
g62
I00
sg63
I6
sg64
(dp5793
g5779
Nssg66
I0
sg67
Nsg68
(dp5794
sg70
(dp5795
sg72
Nsg73
(dp5796
sg75
(lp5797
g5779
asg77
(dp5798
sbsS'f'
(lp5799
S'Special'
p5800
aS'Sport'
p5801
ag204
aS')'
aS'The'
p5802
ag83
asg87
I0
sg88
I0
sg89
g83
sg90
(lp5803
sg92
Nsg93
(lp5804
sbI1
sg1
(g12
g3
NtRp5805
(dp5806
S'e'
g15
(tRp5807
S'_7'
p5808
g18
(tRp5809
sS'_6'
p5810
g18
(tRp5811
g1
(g33
g3
NtRp5812
(dp5813
g36
I2
sg37
S'A2-10'
p5814
sb(lp5815
(g5808
tp5816
assS'_5'
p5817
g18
(tRp5818
S'ARG0'
p5819
(lp5820
(S'_1'
tp5821
asS'ARG1'
p5822
(lp5823
(g5810
tp5824
asS'w/warn-01'
p5825
(lp5826
(tassS'_4'
p5827
g18
(tRp5828
g1
(g33
g3
NtRp5829
(dp5830
g36
I1
sg37
S'A1-1'
p5831
sb(lp5832
(tassS'_3'
p5833
g18
(tRp5834
S'ARG0'
p5835
(lp5836
(g5827
tp5837
asS'f/find-01'
p5838
(lp5839
(tassS'_2'
p5840
g18
(tRp5841
S'ARG1-of'
p5842
(lp5843
(g5833
tp5844
assS'_1'
p5845
g18
(tRp5846
sS'_0'
p5847
g18
(tRp5848
g1
(g33
g3
NtRp5849
(dp5850
g36
I0
sg37
S'A4-1110'
p5851
sb(lp5852
(g5845
g5840
g5817
tp5853
ass(dp5854
g63
I9
sg72
Nsg68
(dp5855
sg77
(dp5856
sg62
I00
sg64
(dp5857
g5847
Nssg66
I0
sg67
Nsg75
(lp5858
g5847
asg70
(dp5859
S'_7'
p5860
I1
sS'_1'
p5861
I0
ssg73
(dp5862
I0
S'_1'
p5863
sI1
g5860
ssbsS'f'
(lp5864
g1777
aS'the'
p5865
ag433
aS"'s"
p5866
aS'finding'
p5867
aS','
aS'warning'
p5868
aS'that'
p5869
ag982
asg87
I0
sg88
I0
sg89
g3544
sg90
(lp5870
sg92
Nsg93
(lp5871
sbI-1
sg1
(g12
g3
NtRp5872
(dp5873
S'e'
g15
(tRp5874
S'_5'
p5875
g18
(tRp5876
S's/some'
p5877
(lp5878
(tassS'_4'
p5879
g18
(tRp5880
S'n2/new'
p5881
(lp5882
(tassS'_3'
p5883
g18
(tRp5884
S'p2/period'
p5885
(lp5886
(tasS'mod'
p5887
(lp5888
(g5879
tp5889
assS'_2'
p5890
g18
(tRp5891
S'time'
p5892
(lp5893
(g5883
tp5894
assS'_1'
p5895
g18
(tRp5896
g1
(g33
g3
NtRp5897
(dp5898
g36
I1
sg37
S'A2-11'
p5899
sb(lp5900
(g5890
tp5901
asS'quant'
p5902
(lp5903
(g5875
tp5904
assS'_0'
p5905
g18
(tRp5906
g1
(g33
g3
NtRp5907
(dp5908
g36
I0
sg37
S'A2-10'
p5909
sb(lp5910
(g5895
tp5911
ass(dp5912
g62
I00
sg63
I8
sg64
(dp5913
g5905
Nssg66
I0
sg67
Nsg68
(dp5914
sg70
(dp5915
sg72
Nsg73
(dp5916
sg75
(lp5917
g5905
asg77
(dp5918
sbsS'f'
(lp5919
g204
aS'some'
p5920
ag2990
aS'in'
p5921
aS'the'
p5922
aS'new'
p5923
aS'period'
p5924
asg87
I0
sg88
I0
sg89
g83
sg90
(lp5925
sg92
Nsg93
(lp5926
sbI1
sg1
(g12
g3
NtRp5927
(dp5928
S'e'
g15
(tRp5929
S'_7'
p5930
g18
(tRp5931
sS'_6'
p5932
g18
(tRp5933
g1
(g33
g3
NtRp5934
(dp5935
g36
I1
sg37
S'A3-110'
p5936
sb(lp5937
(g5930
S'_4'
tp5938
assS'_5'
p5939
g18
(tRp5940
S'j2/jewelry'
p5941
(lp5942
(tassS'_4'
p5943
g18
(tRp5944
sS'_3'
p5945
g18
(tRp5946
S's4/same-01'
p5947
(lp5948
(tasS'ARG1'
p5949
(lp5950
(g5943
tp5951
asS'ARG2'
p5952
(lp5953
(g5939
tp5954
assS'_2'
p5955
g18
(tRp5956
S'ARG2'
p5957
(lp5958
(g5945
tp5959
asS't/treat-01'
p5960
(lp5961
(tassS'_1'
p5962
g18
(tRp5963
S'o/obligate-01'
p5964
(lp5965
(tasS'ARG2'
p5966
(lp5967
(g5955
tp5968
assS'_0'
p5969
g18
(tRp5970
g1
(g33
g3
NtRp5971
(dp5972
g36
I0
sg37
S'A3-100'
p5973
sb(lp5974
(g5962
g5932
tp5975
ass(dp5976
g62
I00
sg63
I10
sg64
(dp5977
g5969
Nssg66
I0
sg67
Nsg68
(dp5978
sg70
(dp5979
S'_7'
p5980
I1
sg5943
I0
ssg72
Nsg73
(dp5981
I0
S'_4'
p5982
sI1
g5980
ssg75
(lp5983
g5969
asg77
(dp5984
sbsS'f'
(lp5985
S'must'
p5986
aS'be'
p5987
aS'treated'
p5988
aS'the'
p5989
aS'same'
p5990
aS'as'
p5991
aS'jewelry'
p5992
aS','
ag209
ag4095
asg87
I0
sg88
I0
sg89
g1062
sg90
(lp5993
sg92
Nsg93
(lp5994
sbI1
sg1
(g12
g3
NtRp5995
(dp5996
S'e'
g15
(tRp5997
S'_8'
p5998
g18
(tRp5999
S'n3/next'
p6000
(lp6001
(tassS'_7'
p6002
g18
(tRp6003
S'w/week'
p6004
(lp6005
(tasS'mod'
p6006
(lp6007
(g5998
tp6008
assS'_6'
p6009
g18
(tRp6010
S'"Brammertz"'
p6011
(lp6012
(tassS'_5'
p6013
g18
(tRp6014
S'"Serge"'
p6015
(lp6016
(tassS'_4'
p6017
g18
(tRp6018
S'n2/name'
p6019
(lp6020
(tasS'op2'
p6021
(lp6022
(g6009
tp6023
asS'op1'
p6024
(lp6025
(g6013
tp6026
assS'_3'
p6027
g18
(tRp6028
S'"Serge_Brammertz"'
p6029
(lp6030
(tassS'_2'
p6031
g18
(tRp6032
S'p/person'
p6033
(lp6034
(tasS'wiki'
p6035
(lp6036
(g6027
tp6037
asS'name'
p6038
(lp6039
(g6017
tp6040
assS'_1'
p6041
g18
(tRp6042
S'ARG0'
p6043
(lp6044
(g6031
tp6045
asS'r/report-01'
p6046
(lp6047
(tassS'_0'
p6048
g18
(tRp6049
g1
(g33
g3
NtRp6050
(dp6051
g36
I0
sg37
S'A3-100'
p6052
sb(lp6053
(g6041
g6002
tp6054
ass(dp6055
g62
I00
sg63
I15
sg64
(dp6056
g6048
Nssg66
I0
sg67
Nsg68
(dp6057
sg70
(dp6058
sg72
Nsg73
(dp6059
sg75
(lp6060
g6048
asg77
(dp6061
sbsS'f'
(lp6062
g209
aS'the'
p6063
aS'Serge'
p6064
aS'Brammertz'
p6065
aS'report'
p6066
aS'next'
p6067
aS'week'
p6068
asg87
I0
sg88
I0
sg89
g83
sg90
(lp6069
sg92
Nsg93
(lp6070
sbI1
sg1
(g12
g3
NtRp6071
(dp6072
S'e'
g15
(tRp6073
S'_2'
p6074
g18
(tRp6075
S'w/we'
p6076
(lp6077
(tassS'_1'
p6078
g18
(tRp6079
g1
(g33
g3
NtRp6080
(dp6081
g36
I0
sg37
S'A1-1'
p6082
sb(lp6083
(tassS'_0'
p6084
g18
(tRp6085
S'ARG0'
p6086
(lp6087
(g6074
tp6088
asS'ARG1'
p6089
(lp6090
(g6078
tp6091
asS'a/apologize-01'
p6092
(lp6093
(tass(dp6094
g63
I5
sg72
Nsg68
(dp6095
sg77
(dp6096
sg62
I00
sg64
(dp6097
g6084
Nssg66
I0
sg67
Nsg75
(lp6098
g6084
asg70
(dp6099
sg73
(dp6100
sbsS'f'
(lp6101
S'We'
p6102
aS'apologize'
p6103
aS'for'
p6104
ag433
asg87
I0
sg88
I0
sg89
g433
sg90
(lp6105
sg92
Nsg93
(lp6106
sbI-1
sg1
(g12
g3
NtRp6107
(dp6108
S'e'
g15
(tRp6109
S'_0'
p6110
g18
(tRp6111
S'i/it'
p6112
(lp6113
(tass(dp6114
g62
I00
sg63
I1
sg64
(dp6115
sg66
I0
sg67
Nsg68
(dp6116
sg70
(dp6117
sg72
Nsg73
(dp6118
sg75
(lp6119
S'_0'
p6120
asg77
(dp6121
sbsS'f'
(lp6122
S'It'
p6123
asg87
I0
sg88
I0
sg89
g83
sg90
(lp6124
sg92
Nsg93
(lp6125
sbI1
sg1
(g12
g3
NtRp6126
(dp6127
S'e'
g15
(tRp6128
S'_4'
p6129
g18
(tRp6130
S'n3/next'
p6131
(lp6132
(tassS'_3'
p6133
g18
(tRp6134
S'y/year'
p6135
(lp6136
(tasS'mod'
p6137
(lp6138
(g6129
tp6139
assS'_2'
p6140
g18
(tRp6141
S'c4/complete-01'
p6142
(lp6143
(tasS'time'
p6144
(lp6145
(g6133
tp6146
assS'_1'
p6147
g18
(tRp6148
S'ARG1-of'
p6149
(lp6150
(g6140
tp6151
assS'_0'
p6152
g18
(tRp6153
S'domain'
p6154
(lp6155
(g6147
tp6156
asS'i/item'
p6157
(lp6158
(tass(dp6159
g62
I00
sg63
I8
sg64
(dp6160
g6152
Nssg66
I0
sg67
Nsg68
(dp6161
sg70
(dp6162
g6140
I1
sg6147
I0
ssg72
Nsg73
(dp6163
I0
S'_1'
p6164
sI1
S'_2'
p6165
ssg75
(lp6166
g6152
asg77
(dp6167
sbsS'f'
(lp6168
S'completed'
p6169
aS'next'
p6170
aS'year'
p6171
aS','
aS'is'
p6172
aS'one'
p6173
aS'item'
p6174
asg87
I0
sg88
I0
sg89
g1062
sg90
(lp6175
sg92
Nsg93
(lp6176
sbI1
sg1
(g12
g3
NtRp6177
(dp6178
S'e'
g15
(tRp6179
S'_6'
p6180
g18
(tRp6181
sS'_5'
p6182
g18
(tRp6183
S'"Huahua"'
p6184
(lp6185
(tassS'_4'
p6186
g18
(tRp6187
S'"Huang"'
p6188
(lp6189
(tassS'_3'
p6190
g18
(tRp6191
S'n/name'
p6192
(lp6193
(tasS'op1'
p6194
(lp6195
(g6186
tp6196
asS'op2'
p6197
(lp6198
(g6182
tp6199
assS'_2'
p6200
g18
(tRp6201
S'"Huang_Huahua"'
p6202
(lp6203
(tassS'_1'
p6204
g18
(tRp6205
S'p/person'
p6206
(lp6207
(tasS'wiki'
p6208
(lp6209
(g6200
tp6210
asS'name'
p6211
(lp6212
(g6190
tp6213
assS'_0'
p6214
g18
(tRp6215
S'ARG0'
p6216
(lp6217
(g6204
tp6218
asS'ARG1'
p6219
(lp6220
(g6180
tp6221
asS'g/give-01'
p6222
(lp6223
(tass(dp6224
g62
I00
sg63
I12
sg64
(dp6225
g6214
Nssg66
I0
sg67
Nsg68
(dp6226
sg70
(dp6227
g6180
I0
ssg72
Nsg73
(dp6228
I0
S'_6'
p6229
ssg75
(lp6230
g6214
asg77
(dp6231
sbsS'f'
(lp6232
S'Huang'
p6233
aS'Huahua'
p6234
aS'gave'
p6235
asg87
I0
sg88
I0
sg89
g204
sg90
(lp6236
sg92
Nsg93
(lp6237
sbI1
sg1
(g12
g3
NtRp6238
(dp6239
S'e'
g15
(tRp6240
S'_9'
p6241
g18
(tRp6242
S'r/release-01'
p6243
(lp6244
(tasg1
(g33
g3
NtRp6245
(dp6246
g36
I2
sg37
S'A1-0'
p6247
sb(lp6248
(tassS'_8'
p6249
g18
(tRp6250
S'p/person'
p6251
(lp6252
(tasS'ARG1-of'
p6253
(lp6254
(g6241
tp6255
assS'_7'
p6256
g18
(tRp6257
g1
(g33
g3
NtRp6258
(dp6259
g36
I1
sg37
S'A2-10'
p6260
sb(lp6261
(g6249
tp6262
assS'_6'
p6263
g18
(tRp6264
S'"Mallouh"'
p6265
(lp6266
(tassS'_5'
p6267
g18
(tRp6268
S'"Rahim"'
p6269
(lp6270
(tassS'_4'
p6271
g18
(tRp6272
S'"Abdul"'
p6273
(lp6274
(tassS'_3'
p6275
g18
(tRp6276
S'n/name'
p6277
(lp6278
(tasS'op1'
p6279
(lp6280
(g6271
tp6281
asS'op2'
p6282
(lp6283
(g6267
tp6284
asS'op3'
p6285
(lp6286
(g6263
tp6287
assS'_2'
p6288
g18
(tRp6289
S'-'
(lp6290
(tassS'_1'
p6291
g18
(tRp6292
S'wiki'
p6293
(lp6294
(g6288
tp6295
asS'p2/person'
p6296
(lp6297
(tasS'name'
p6298
(lp6299
(g6275
tp6300
assS'_0'
p6301
g18
(tRp6302
g1
(g33
g3
NtRp6303
(dp6304
g36
I0
sg37
S'A3-100'
p6305
sb(lp6306
(g6291
g6256
tp6307
ass(dp6308
g62
I00
sg63
I17
sg64
(dp6309
g6301
Nssg66
I0
sg67
Nsg68
(dp6310
sg70
(dp6311
sg72
Nsg73
(dp6312
sg75
(lp6313
g6301
asg77
(dp6314
sbsS'f'
(lp6315
S'Abdul'
p6316
aS'Rahim'
p6317
aS'Mallouh'
p6318
aS','
ag209
aS'the'
p6319
ag204
aS','
aS'who'
p6320
aS'were'
p6321
aS'released'
p6322
ag311
asg87
I0
sg88
I0
sg89
g83
sg90
(lp6323
sg92
Nsg93
(lp6324
sbI1
sg1
(g12
g3
NtRp6325
(dp6326
S'e'
g15
(tRp6327
S'_2'
p6328
g18
(tRp6329
g1
(g33
g3
NtRp6330
(dp6331
g36
I2
sg37
S'A1-1'
p6332
sb(lp6333
(tassS'_1'
p6334
g18
(tRp6335
g1
(g33
g3
NtRp6336
(dp6337
g36
I0
sg37
S'A1-1'
p6338
sb(lp6339
(tassS'_0'
p6340
g18
(tRp6341
g1
(g33
g3
NtRp6342
(dp6343
g36
I1
sg37
S'A3-100'
p6344
sb(lp6345
(g6334
g6328
tp6346
ass(dp6347
g62
I00
sg63
I3
sg64
(dp6348
g6340
Nssg66
I0
sg67
(dp6349
(g6340
g6342
g6346
tp6350
I0
s(g6334
g6336
(ttp6351
I1
s(g6328
g6330
(ttp6352
I1
ssg68
(dp6353
sg70
(dp6354
sg72
(lp6355
g6350
ag6351
ag6352
asg73
(dp6356
sg75
(lp6357
g6340
asg77
(dp6358
sbsS'f'
(lp6359
S'[A1-1]'
p6360
aS'[A3-100]'
p6361
ag6360
asg87
I0
sg88
I0
sg89
g6360
sg90
(lp6362
sg92
Nsg93
(lp6363
F1
aF1
aF1
asbI1
sg1
(g12
g3
NtRp6364
(dp6365
S'e'
g15
(tRp6366
S'_5'
p6367
g18
(tRp6368
S'h/hospital'
p6369
(lp6370
(tassS'_4'
p6371
g18
(tRp6372
sS'_3'
p6373
g18
(tRp6374
S'11'
p6375
(lp6376
(tassS'_2'
p6377
g18
(tRp6378
S'p/person'
p6379
(lp6380
(tasS'quant'
p6381
(lp6382
(g6373
tp6383
assS'_1'
p6384
g18
(tRp6385
S'ARG1'
p6386
(lp6387
(g6377
tp6388
asS'ARG2'
p6389
(lp6390
(g6371
tp6391
asS't/treat-03'
p6392
(lp6393
(tassS'_0'
p6394
g18
(tRp6395
S'ARG1'
p6396
(lp6397
(S'_2'
tp6398
asS'ARG2'
p6399
(lp6400
(g6367
tp6401
asS's3/send-01'
p6402
(lp6403
(tasS'purpose'
p6404
(lp6405
(g6384
tp6406
ass(dp6407
g62
I00
sg63
I11
sg64
(dp6408
g6394
Nssg66
I0
sg67
Nsg68
(dp6409
sg70
(dp6410
g6371
I1
sg6377
I0
ssg72
Nsg73
(dp6411
I0
S'_2'
p6412
sI1
S'_4'
p6413
ssg75
(lp6414
g6394
asg77
(dp6415
sbsS'f'
(lp6416
S'11'
p6417
aS'people'
p6418
aS'had'
p6419
aS'been'
p6420
aS'sent'
p6421
aS'to'
p6422
aS'hospital'
p6423
aS'for'
p6424
aS'treatment'
p6425
aS'due'
p6426
aS'to'
p6427
asg87
I0
sg88
I0
sg89
g4095
sg90
(lp6428
sg92
Nsg93
(lp6429
sbI1
sg1
(g12
g3
NtRp6430
(dp6431
S'e'
g15
(tRp6432
S'_7'
p6433
g18
(tRp6434
S's/state-01'
p6435
(lp6436
(tassS'_6'
p6437
g18
(tRp6438
S't2/this'
p6439
(lp6440
(tassS'_5'
p6441
g18
(tRp6442
S'ARG1-of'
p6443
(lp6444
(g6433
tp6445
asS't/thing'
p6446
(lp6447
(tasS'mod'
p6448
(lp6449
(g6437
tp6450
assS'_4'
p6451
g18
(tRp6452
S'-'
(lp6453
(tassS'_3'
p6454
g18
(tRp6455
S'd/depend-01'
p6456
(lp6457
(tasS'polarity'
p6458
(lp6459
(g6451
tp6460
assS'_2'
p6461
g18
(tRp6462
S's2/source'
p6463
(lp6464
(tasS'ARG0-of'
p6465
(lp6466
(g6454
tp6467
assS'_1'
p6468
g18
(tRp6469
S'ARG0'
p6470
(lp6471
(g6461
tp6472
assS'_0'
p6473
g18
(tRp6474
g1
(g33
g3
NtRp6475
(dp6476
g36
I0
sg37
S'A3-110'
p6477
sb(lp6478
(g6468
g6441
tp6479
ass(dp6480
g63
I12
sg72
Nsg68
(dp6481
sg77
(dp6482
sg62
I00
sg64
(dp6483
g6473
Nssg66
I0
sg67
Nsg75
(lp6484
g6473
asg70
(dp6485
sg73
(dp6486
sbsS'f'
(lp6487
S'[A3-110]'
p6488
aS'this'
p6489
aS'statement'
p6490
aS'from'
p6491
aS'an'
p6492
aS'independent'
p6493
aS'source'
p6494
asg87
I0
sg88
I0
sg89
S'[A1-1]'
p6495
sg90
(lp6496
sg92
Nsg93
(lp6497
sbI-1
sg1
(g12
g3
NtRp6498
(dp6499
S'e'
g15
(tRp6500
S'_4'
p6501
g18
(tRp6502
S't2/this'
p6503
(lp6504
(tassS'_3'
p6505
g18
(tRp6506
S's2/specialize-01'
p6507
(lp6508
(tassS'_2'
p6509
g18
(tRp6510
S'ARG1-of'
p6511
(lp6512
(g6505
tp6513
asS't/thing'
p6514
(lp6515
(tasS'mod'
p6516
(lp6517
(g6501
tp6518
assS'_1'
p6519
g18
(tRp6520
sS'_0'
p6521
g18
(tRp6522
S'ARG1'
p6523
(lp6524
(g6509
tp6525
asS'ARG2'
p6526
(lp6527
(g6519
tp6528
asS'a/absent-01'
p6529
(lp6530
(tass(dp6531
g62
I00
sg63
I8
sg64
(dp6532
g6521
Nssg66
I0
sg67
Nsg68
(dp6533
sg70
(dp6534
g6519
I0
ssg72
Nsg73
(dp6535
I0
S'_1'
p6536
ssg75
(lp6537
g6521
asg77
(dp6538
sbsS'f'
(lp6539
S'absence'
p6540
aS'of'
p6541
aS'these'
p6542
aS'specializations'
p6543
aS'from'
p6544
asg87
I0
sg88
I0
sg89
g204
sg90
(lp6545
sg92
Nsg93
(lp6546
sbI1
sg1
(g12
g3
NtRp6547
(dp6548
S'e'
g15
(tRp6549
S'_5'
p6550
g18
(tRp6551
S'"Brammertz"'
p6552
(lp6553
(tassS'_4'
p6554
g18
(tRp6555
S'"Serge"'
p6556
(lp6557
(tassS'_3'
p6558
g18
(tRp6559
S'n2/name'
p6560
(lp6561
(tasS'op2'
p6562
(lp6563
(g6550
tp6564
asS'op1'
p6565
(lp6566
(g6554
tp6567
assS'_2'
p6568
g18
(tRp6569
S'"Serge_Brammertz"'
p6570
(lp6571
(tassS'_1'
p6572
g18
(tRp6573
S'p/person'
p6574
(lp6575
(tasS'wiki'
p6576
(lp6577
(g6568
tp6578
asS'name'
p6579
(lp6580
(g6558
tp6581
assS'_0'
p6582
g18
(tRp6583
S'ARG0'
p6584
(lp6585
(g6572
tp6586
asS'r/report-01'
p6587
(lp6588
(tass(dp6589
g63
I11
sg72
Nsg68
(dp6590
sg77
(dp6591
sg62
I00
sg64
(dp6592
g6582
Nssg66
I0
sg67
Nsg75
(lp6593
g6582
asg70
(dp6594
sg73
(dp6595
sbsS'f'
(lp6596
S'Serge'
p6597
aS'Brammertz'
p6598
aS'report'
p6599
asg87
I0
sg88
I0
sg89
g433
sg90
(lp6600
sg92
Nsg93
(lp6601
sbI-1
sg1
(g12
g3
NtRp6602
(dp6603
S'e'
g15
(tRp6604
S'_4'
p6605
g18
(tRp6606
S'1'
(lp6607
(tassS'_3'
p6608
g18
(tRp6609
S'd2/day'
p6610
(lp6611
(tassS'_2'
p6612
g18
(tRp6613
S't2/temporal-quantity'
p6614
(lp6615
(tasS'quant'
p6616
(lp6617
(g6605
tp6618
asS'unit'
p6619
(lp6620
(g6608
tp6621
assS'_1'
p6622
g18
(tRp6623
sS'_0'
p6624
g18
(tRp6625
g1
(g33
g3
NtRp6626
(dp6627
g36
I0
sg37
S'A3-100'
p6628
sb(lp6629
(g6622
g6612
tp6630
ass(dp6631
g62
I00
sg63
I6
sg64
(dp6632
g6624
Nssg66
I0
sg67
Nsg68
(dp6633
sg70
(dp6634
S'_1'
p6635
I0
ssg72
Nsg73
(dp6636
I0
g6635
ssg75
(lp6637
g6624
asg77
(dp6638
sbsS'f'
(lp6639
S'I'
ag209
aS'days'
p6640
asg87
I0
sg88
I0
sg89
g204
sg90
(lp6641
sg92
Nsg93
(lp6642
sbI1
sg1
(g12
g3
NtRp6643
(dp6644
S'e'
g15
(tRp6645
S'_1'
p6646
g18
(tRp6647
sS'_0'
p6648
g18
(tRp6649
S'r/revenue'
p6650
(lp6651
(tasg1
(g33
g3
NtRp6652
(dp6653
g36
I0
sg37
S'A2-00'
p6654
sb(lp6655
(g6646
tp6656
ass(dp6657
g63
I2
sg72
Nsg68
(dp6658
sg77
(dp6659
sg62
I00
sg64
(dp6660
g6648
Nssg66
I0
sg67
Nsg75
(lp6661
g6648
asg70
(dp6662
S'_1'
p6663
I0
ssg73
(dp6664
I0
g6663
ssbsS'f'
(lp6665
S'revenues'
p6666
aS'of'
p6667
aS'which'
p6668
ag1463
asg87
I0
sg88
I0
sg89
g982
sg90
(lp6669
sg92
Nsg93
(lp6670
sbI-1
sg1
(g12
g3
NtRp6671
(dp6672
S'e'
g15
(tRp6673
S'_3'
p6674
g18
(tRp6675
g1
(g33
g3
NtRp6676
(dp6677
g36
I0
sg37
S'A1-1'
p6678
sb(lp6679
(tassS'_2'
p6680
g18
(tRp6681
S'1918'
p6682
(lp6683
(tassS'_1'
p6684
g18
(tRp6685
S'd/date-entity'
p6686
(lp6687
(tasS'year'
p6688
(lp6689
(g6680
tp6690
assS'_0'
p6691
g18
(tRp6692
S'e/end-01'
p6693
(lp6694
(tasS'time'
p6695
(lp6696
(g6684
tp6697
asS'ARG1'
p6698
(lp6699
(g6674
tp6700
ass(dp6701
g63
I7
sg72
Nsg68
(dp6702
sg77
(dp6703
sg62
I00
sg64
(dp6704
g6691
Nssg66
I0
sg67
Nsg75
(lp6705
g6691
asg70
(dp6706
sg73
(dp6707
sbsS'f'
(lp6708
g433
aS'ended'
p6709
aS'in'
p6710
aS'1918'
p6711
asg87
I0
sg88
I0
sg89
g433
sg90
(lp6712
sg92
Nsg93
(lp6713
sbI-1
sg1
(g12
g3
NtRp6714
(dp6715
S'e'
g15
(tRp6716
S'_6'
p6717
g18
(tRp6718
S'ARG2'
p6719
(lp6720
(S'_2'
tp6721
assS'_5'
p6722
g18
(tRp6723
S'a3/and'
p6724
(lp6725
(tasS'op1'
p6726
(lp6727
(S'_4'
tp6728
asS'op2'
p6729
(lp6730
(S'_2'
tp6731
assS'_4'
p6732
g18
(tRp6733
sS'_3'
p6734
g18
(tRp6735
S'y/young'
p6736
(lp6737
(tassS'_2'
p6738
g18
(tRp6739
S'p/person'
p6740
(lp6741
(tasS'mod'
p6742
(lp6743
(g6734
tp6744
assS'_1'
p6745
g18
(tRp6746
g1
(g33
g3
NtRp6747
(dp6748
g36
I0
sg37
S'A4-1010'
p6749
sb(lp6750
(g6738
g6732
g6722
tp6751
assS'_0'
p6752
g18
(tRp6753
g1
(g33
g3
NtRp6754
(dp6755
g36
I1
sg37
S'A3-101'
p6756
sb(lp6757
(S'_4'
g6717
tp6758
asS'time'
p6759
(lp6760
(g6745
tp6761
ass(dp6762
g62
I00
sg63
I10
sg64
(dp6763
g6752
Nssg66
I0
sg67
Nsg68
(dp6764
sg70
(dp6765
sg72
Nsg73
(dp6766
sg75
(lp6767
g6752
asg77
(dp6768
sbsS'f'
(lp6769
g4335
aS','
aS'they'
p6770
ag1062
aS'to'
p6771
aS'the'
p6772
aS'young'
p6773
aS'person'
p6774
asg87
I0
sg88
I0
sg89
g83
sg90
(lp6775
sg92
Nsg93
(lp6776
sbI1
sg1
(g12
g3
NtRp6777
(dp6778
S'e'
g15
(tRp6779
S'_5'
p6780
g18
(tRp6781
sS'_4'
p6782
g18
(tRp6783
sS'_3'
p6784
g18
(tRp6785
g1
(g33
g3
NtRp6786
(dp6787
g36
I0
sg37
S'A4-1100'
p6788
sb(lp6789
(g6782
S'_2'
g6780
tp6790
assS'_2'
p6791
g18
(tRp6792
sS'_1'
p6793
g18
(tRp6794
S'ARG0'
p6795
(lp6796
(g6791
tp6797
asS'ARG1'
p6798
(lp6799
(g6784
tp6800
asS'r/reject-01'
p6801
(lp6802
(tassS'_0'
p6803
g18
(tRp6804
S'a/after'
p6805
(lp6806
(tasS'op1'
p6807
(lp6808
(g6793
tp6809
ass(dp6810
g63
I6
sg72
Nsg68
(dp6811
sg77
(dp6812
sg62
I00
sg64
(dp6813
g6803
Nssg66
I0
sg67
Nsg75
(lp6814
g6803
asg70
(dp6815
S'_5'
p6816
I2
sS'_4'
p6817
I1
sg6791
I0
ssg73
(dp6818
I0
S'_2'
p6819
sI1
g6817
sI2
g6816
ssbsS'f'
(lp6820
S'After'
p6821
aS'the'
p6822
aS'[A4-1100]'
p6823
aS'them'
p6824
aS'was'
p6825
aS'rejected'
p6826
asg87
I0
sg88
I0
sg89
S'[A4-1010]'
p6827
sg90
(lp6828
sg92
Nsg93
(lp6829
sbI-1
sg1
(g12
g3
NtRp6830
(dp6831
S'e'
g15
(tRp6832
S'_2'
p6833
g18
(tRp6834
S't/technology'
p6835
(lp6836
(tassS'_1'
p6837
g18
(tRp6838
S's2/science'
p6839
(lp6840
(tassS'_0'
p6841
g18
(tRp6842
S'a/association'
p6843
(lp6844
(tasS'mod'
p6845
(lp6846
(g6837
tp6847
a(g6833
tp6848
ass(dp6849
g63
I5
sg72
Nsg68
(dp6850
sg77
(dp6851
sg62
I00
sg64
(dp6852
g6841
Nssg66
I0
sg67
Nsg75
(lp6853
g6841
asg70
(dp6854
sg73
(dp6855
sbsS'f'
(lp6856
S'science'
p6857
aS'and'
p6858
aS'technology'
p6859
aS'associations'
p6860
asg87
I0
sg88
I0
sg89
g433
sg90
(lp6861
sg92
Nsg93
(lp6862
sbI-1
sg1
(g12
g3
NtRp6863
(dp6864
S'e'
g15
(tRp6865
S'_4'
p6866
g18
(tRp6867
sS'_3'
p6868
g18
(tRp6869
g1
(g33
g3
NtRp6870
(dp6871
g36
I0
sg37
S'A1-1'
p6872
sb(lp6873
(tassS'_2'
p6874
g18
(tRp6875
S'a/and'
p6876
(lp6877
(tasS'op1'
p6878
(lp6879
(g6868
tp6880
asS'op2'
p6881
(lp6882
(g6866
tp6883
assS'_1'
p6884
g18
(tRp6885
sS'_0'
p6886
g18
(tRp6887
S'ARG0'
p6888
(lp6889
(g6884
tp6890
asS's/say-01'
p6891
(lp6892
(tasS'ARG1'
p6893
(lp6894
(g6874
tp6895
ass(dp6896
g62
I00
sg63
I7
sg64
(dp6897
g6886
Nssg66
I0
sg67
Nsg68
(dp6898
sg70
(dp6899
g6866
I1
sg6884
I0
ssg72
Nsg73
(dp6900
I0
S'_1'
p6901
sI1
S'_4'
p6902
ssg75
(lp6903
g6886
asg77
(dp6904
sbsS'f'
(lp6905
S'said'
p6906
aS'that'
p6907
aS'the'
p6908
ag83
aS','
aS'and'
p6909
asg87
I0
sg88
I0
sg89
g209
sg90
(lp6910
sg92
Nsg93
(lp6911
sbI1
sg1
(g12
g3
NtRp6912
(dp6913
S'e'
g15
(tRp6914
S'_4'
p6915
g18
(tRp6916
S's/still'
p6917
(lp6918
(tassS'_3'
p6919
g18
(tRp6920
S'ARG1'
p6921
(lp6922
(S'_1'
tp6923
asS'w/wait-01'
p6924
(lp6925
(tassS'_2'
p6926
g18
(tRp6927
S't2/time'
p6928
(lp6929
(tassS'_1'
p6930
g18
(tRp6931
S't/they'
p6932
(lp6933
(tassS'_0'
p6934
g18
(tRp6935
S'ARG0'
p6936
(lp6937
(g6930
tp6938
asS'ARG1'
p6939
(lp6940
(g6926
tp6941
asS'h/have-03'
p6942
(lp6943
(tasS'purpose'
p6944
(lp6945
(g6919
tp6946
asS'mod'
p6947
(lp6948
(g6915
tp6949
ass(dp6950
g63
I10
sg72
Nsg68
(dp6951
sg77
(dp6952
sg62
I00
sg64
(dp6953
g6934
Nssg66
I0
sg67
Nsg75
(lp6954
g6934
asg70
(dp6955
g6919
I0
ssg73
(dp6956
I0
S'_3'
p6957
ssbsS'f'
(lp6958
S'they'
p6959
aS'still'
p6960
aS'have'
p6961
aS'time'
p6962
aS'to'
p6963
aS'wait'
p6964
asg87
I0
sg88
I0
sg89
S'[A2-11]'
p6965
sg90
(lp6966
sg92
Nsg93
(lp6967
sbI-1
sg1
(g12
g3
NtRp6968
(dp6969
S'e'
g15
(tRp6970
S'_5'
p6971
g18
(tRp6972
sS'_4'
p6973
g18
(tRp6974
g1
(g33
g3
NtRp6975
(dp6976
g36
I1
sg37
S'A3-101'
p6977
sb(lp6978
(S'_2'
g6971
tp6979
assS'_3'
p6980
g18
(tRp6981
S'c3/clothing'
p6982
(lp6983
(tassS'_2'
p6984
g18
(tRp6985
sS'_1'
p6986
g18
(tRp6987
g1
(g33
g3
NtRp6988
(dp6989
g36
I0
sg37
S'A3-100'
p6990
sb(lp6991
(g6984
g6980
tp6992
assS'_0'
p6993
g18
(tRp6994
S'ARG1'
p6995
(lp6996
(g6986
tp6997
asS'c2/contrast-01'
p6998
(lp6999
(tasS'ARG2'
p7000
(lp7001
(g6973
tp7002
ass(dp7003
g63
I6
sg72
Nsg68
(dp7004
sg77
(dp7005
sg62
I00
sg64
(dp7006
g6993
Nssg66
I0
sg67
Nsg75
(lp7007
g6993
asg70
(dp7008
S'_5'
p7009
I1
sS'_2'
p7010
I0
ssg73
(dp7011
I0
S'_2'
p7012
sI1
g7009
ssbsS'f'
(lp7013
g575
aS'clothing'
p7014
aS','
aS'but'
p7015
ag577
asg87
I0
sg88
I0
sg89
g577
sg90
(lp7016
sg92
Nsg93
(lp7017
sbI-1
sg1
(g12
g3
NtRp7018
(dp7019
S'e'
g15
(tRp7020
S'_2'
p7021
g18
(tRp7022
S'o/out'
p7023
(lp7024
(tassS'_1'
p7025
g18
(tRp7026
S'w/way'
p7027
(lp7028
(tasS'direction'
p7029
(lp7030
(g7021
tp7031
assS'_0'
p7032
g18
(tRp7033
S'f/find-01'
p7034
(lp7035
(tasS'ARG1'
p7036
(lp7037
(g7025
tp7038
ass(dp7039
g62
I00
sg63
I5
sg64
(dp7040
g7032
Nssg66
I0
sg67
Nsg68
(dp7041
sg70
(dp7042
g7025
I0
ssg72
Nsg73
(dp7043
I0
S'_1'
p7044
ssg75
(lp7045
g7032
asg77
(dp7046
sbsS'f'
(lp7047
S'Find'
p7048
aS'a'
aS'way'
p7049
aS'out'
p7050
asg87
I0
sg88
I0
sg89
g2990
sg90
(lp7051
sg92
Nsg93
(lp7052
sbI1
sg1
(g12
g3
NtRp7053
(dp7054
S'e'
g15
(tRp7055
S'_5'
p7056
g18
(tRp7057
S'i/inquire-01'
p7058
(lp7059
(tassS'_4'
p7060
g18
(tRp7061
S'"Messenger"'
p7062
(lp7063
(tassS'_3'
p7064
g18
(tRp7065
S'n/name'
p7066
(lp7067
(tasS'op1'
p7068
(lp7069
(g7060
tp7070
assS'_2'
p7071
g18
(tRp7072
S'"Yahoo!_Messenger"'
p7073
(lp7074
(tassS'_1'
p7075
g18
(tRp7076
S'wiki'
p7077
(lp7078
(g7071
tp7079
asS'p/product'
p7080
(lp7081
(tasS'name'
p7082
(lp7083
(g7064
tp7084
assS'_0'
p7085
g18
(tRp7086
S'medium'
p7087
(lp7088
(g7075
tp7089
asg1
(g33
g3
NtRp7090
(dp7091
g36
I0
sg37
S'A2-10'
p7092
sb(lp7093
(g7056
tp7094
ass(dp7095
g63
I10
sg72
Nsg68
(dp7096
sg77
(dp7097
sg62
I00
sg64
(dp7098
g7085
Nssg66
I0
sg67
Nsg75
(lp7099
g7085
asg70
(dp7100
sg73
(dp7101
sbsS'f'
(lp7102
g982
aS'inquiries'
p7103
aS'through'
p7104
aS'Messenger'
p7105
asg87
I0
sg88
I0
sg89
g433
sg90
(lp7106
sg92
Nsg93
(lp7107
sbI-1
sg1
(g12
g3
NtRp7108
(dp7109
S'e'
g15
(tRp7110
S'_4'
p7111
g18
(tRp7112
sS'_3'
p7113
g18
(tRp7114
sS'_2'
p7115
g18
(tRp7116
g1
(g33
g3
NtRp7117
(dp7118
g36
I0
sg37
S'A2-11'
p7119
sb(lp7120
(g7113
tp7121
assS'_1'
p7122
g18
(tRp7123
S'ARG1'
p7124
(lp7125
(g7115
tp7126
assS'_0'
p7127
g18
(tRp7128
S'snt1'
p7129
(lp7130
(g7122
tp7131
asS'm2/multi-sentence'
p7132
(lp7133
(tasS'snt2'
p7134
(lp7135
(g7111
tp7136
ass(dp7137
g62
I00
sg63
I5
sg64
(dp7138
g7127
Nssg66
I0
sg67
Nsg68
(dp7139
sg70
(dp7140
g7111
I2
sS'_3'
p7141
I1
sg7122
I0
ssg72
Nsg73
(dp7142
I0
S'_1'
p7143
sI1
g7141
sI2
S'_4'
p7144
ssg75
(lp7145
g7127
asg77
(dp7146
sbsS'f'
(lp7147
S'that'
p7148
aS'the'
p7149
ag2990
asg87
I0
sg88
I0
sg89
g4335
sg90
(lp7150
sg92
Nsg93
(lp7151
sbI1
sg1
(g12
g3
NtRp7152
(dp7153
S'e'
g15
(tRp7154
S'_4'
p7155
g18
(tRp7156
g1
(g33
g3
NtRp7157
(dp7158
g36
I1
sg37
S'A1-1'
p7159
sb(lp7160
(tassS'_3'
p7161
g18
(tRp7162
S'e/emergency'
p7163
(lp7164
(tassS'_2'
p7165
g18
(tRp7166
g1
(g33
g3
NtRp7167
(dp7168
g36
I0
sg37
S'A1-1'
p7169
sb(lp7170
(tassS'_1'
p7171
g18
(tRp7172
S's2/service'
p7173
(lp7174
(tasS'location'
p7175
(lp7176
(g7165
tp7177
asS'mod'
p7178
(lp7179
(g7161
tp7180
assS'_0'
p7181
g18
(tRp7182
S'ARG0'
p7183
(lp7184
(g7171
tp7185
asS's/say-01'
p7186
(lp7187
(tasS'ARG1'
p7188
(lp7189
(g7155
tp7190
ass(dp7191
g63
I9
sg72
Nsg68
(dp7192
sg77
(dp7193
sg62
I00
sg64
(dp7194
g7181
Nssg66
I0
sg67
Nsg75
(lp7195
g7181
asg70
(dp7196
sg73
(dp7197
sbsS'f'
(lp7198
g433
aS'emergency'
p7199
aS'services'
p7200
aS'said'
p7201
aS'that'
p7202
ag433
asg87
I0
sg88
I0
sg89
g433
sg90
(lp7203
sg92
Nsg93
(lp7204
sbI-1
sg1
(g12
g3
NtRp7205
(dp7206
S'e'
g15
(tRp7207
S'_4'
p7208
g18
(tRp7209
S'c2/central'
p7210
(lp7211
(tassS'_3'
p7212
g18
(tRp7213
S'mod'
p7214
(lp7215
(g7208
tp7216
assS'_2'
p7217
g18
(tRp7218
g1
(g33
g3
NtRp7219
(dp7220
g36
I0
sg37
S'A2-10'
p7221
sb(lp7222
(g7212
tp7223
assS'_1'
p7224
g18
(tRp7225
S'ARG1'
p7226
(lp7227
(g7217
tp7228
asS'c4/constitute-01'
p7229
(lp7230
(tassS'_0'
p7231
g18
(tRp7232
S'ARG0-of'
p7233
(lp7234
(g7224
tp7235
ass(dp7236
g63
I6
sg72
Nsg68
(dp7237
sg77
(dp7238
sg62
I00
sg64
(dp7239
g7231
Nssg66
I0
sg67
Nsg75
(lp7240
g7231
asg70
(dp7241
S'_3'
p7242
I0
ssg73
(dp7243
I0
g7242
ssbsS'f'
(lp7244
S'constitute'
p7245
ag982
aS'the'
p7246
aS'central'
p7247
asg87
I0
sg88
I0
sg89
g1463
sg90
(lp7248
sg92
Nsg93
(lp7249
sbI-1
sg1
(g12
g3
NtRp7250
(dp7251
S'e'
g15
(tRp7252
S'_3'
p7253
g18
(tRp7254
S'w/we'
p7255
(lp7256
(tassS'_2'
p7257
g18
(tRp7258
S'poss'
p7259
(lp7260
(g7253
tp7261
asS'l/land'
p7262
(lp7263
(tassS'_1'
p7264
g18
(tRp7265
g1
(g33
g3
NtRp7266
(dp7267
g36
I1
sg37
S'A1-1'
p7268
sb(lp7269
(tassS'_0'
p7270
g18
(tRp7271
S'manner'
p7272
(lp7273
(g7264
tp7274
asg1
(g33
g3
NtRp7275
(dp7276
g36
I0
sg37
S'A2-10'
p7277
sb(lp7278
(g7257
tp7279
ass(dp7280
g62
I00
sg63
I6
sg64
(dp7281
g7270
Nssg66
I0
sg67
Nsg68
(dp7282
sg70
(dp7283
sg72
Nsg73
(dp7284
sg75
(lp7285
g7270
asg77
(dp7286
sbsS'f'
(lp7287
g204
aS'our'
p7288
aS'land'
p7289
ag83
asg87
I0
sg88
I0
sg89
g83
sg90
(lp7290
sg92
Nsg93
(lp7291
sbI1
sg1
(g12
g3
NtRp7292
(dp7293
S'e'
g15
(tRp7294
S'_4'
p7295
g18
(tRp7296
S'w2/we'
p7297
(lp7298
(tassS'_3'
p7299
g18
(tRp7300
S'ARG0'
p7301
(lp7302
(g7295
tp7303
asS's2/succeed-01'
p7304
(lp7305
(tassS'_2'
p7306
g18
(tRp7307
S'ARG2'
p7308
(lp7309
(g7299
tp7310
assS'_1'
p7311
g18
(tRp7312
S't/they'
p7313
(lp7314
(tassS'_0'
p7315
g18
(tRp7316
g1
(g33
g3
NtRp7317
(dp7318
g36
I0
sg37
S'A3-101'
p7319
sb(lp7320
(g7311
g7306
tp7321
ass(dp7322
g62
I00
sg63
I6
sg64
(dp7323
g7315
Nssg66
I0
sg67
Nsg68
(dp7324
sg70
(dp7325
sg72
Nsg73
(dp7326
sg75
(lp7327
g7315
asg77
(dp7328
sbsS'f'
(lp7329
S'they'
p7330
ag1062
aS'for'
p7331
aS'us'
p7332
aS'to'
p7333
aS'succeed'
p7334
asg87
I0
sg88
I0
sg89
g83
sg90
(lp7335
sg92
Nsg93
(lp7336
sbI1
sg1
(g12
g3
NtRp7337
(dp7338
S'e'
g15
(tRp7339
S'_5'
p7340
g18
(tRp7341
sS'_4'
p7342
g18
(tRp7343
S'b/back'
p7344
(lp7345
(tassS'_3'
p7346
g18
(tRp7347
S'i2/immediate'
p7348
(lp7349
(tassS'_2'
p7350
g18
(tRp7351
S'direction'
p7352
(lp7353
(g7342
tp7354
asS'time'
p7355
(lp7356
(g7346
tp7357
assS'_1'
p7358
g18
(tRp7359
sS'_0'
p7360
g18
(tRp7361
g1
(g33
g3
NtRp7362
(dp7363
g36
I0
sg37
S'A4-1011'
p7364
sb(lp7365
(g7358
g7350
g7340
tp7366
ass(dp7367
g63
I5
sg72
Nsg68
(dp7368
sg77
(dp7369
sg62
I00
sg64
(dp7370
g7360
Nssg66
I0
sg67
Nsg75
(lp7371
g7360
asg70
(dp7372
S'_5'
p7373
I1
sS'_1'
p7374
I0
ssg73
(dp7375
I0
g7374
sI1
g7373
ssbsS'f'
(lp7376
S'[A4-1011]'
p7377
aS'back'
p7378
aS'immediately'
p7379
asg87
I0
sg88
I0
sg89
g577
sg90
(lp7380
sg92
Nsg93
(lp7381
sbI-1
sg1
(g12
g3
NtRp7382
(dp7383
S'e'
g15
(tRp7384
S'_9'
p7385
g18
(tRp7386
S'"Siniora"'
p7387
(lp7388
(tassS'_8'
p7389
g18
(tRp7390
S'n4/name'
p7391
(lp7392
(tasS'op1'
p7393
(lp7394
(g7385
tp7395
assS'_7'
p7396
g18
(tRp7397
S'"Fouad_Siniora"'
p7398
(lp7399
(tassS'_6'
p7400
g18
(tRp7401
S'p/person'
p7402
(lp7403
(tasS'wiki'
p7404
(lp7405
(g7396
tp7406
asS'name'
p7407
(lp7408
(g7389
tp7409
assS'_5'
p7410
g18
(tRp7411
S'mod'
p7412
(lp7413
(g7400
tp7414
assS'_4'
p7415
g18
(tRp7416
sS'_3'
p7417
g18
(tRp7418
S'ARG0'
p7419
(lp7420
(g7415
tp7421
asS'ARG1'
p7422
(lp7423
(g7410
tp7424
asS's3/support-01'
p7425
(lp7426
(tassS'_2'
p7427
g18
(tRp7428
g1
(g33
g3
NtRp7429
(dp7430
g36
I1
sg37
S'A2-11'
p7431
sb(lp7432
(S'_4'
tp7433
asS'purpose'
p7434
(lp7435
(g7417
tp7436
assS'_1'
p7437
g18
(tRp7438
sS'_0'
p7439
g18
(tRp7440
g1
(g33
g3
NtRp7441
(dp7442
g36
I0
sg37
S'A3-100'
p7443
sb(lp7444
(g7437
g7427
tp7445
ass(dp7446
g62
I00
sg63
I14
sg64
(dp7447
g7439
Nssg66
I0
sg67
Nsg68
(dp7448
sg70
(dp7449
g7410
I1
sS'_1'
p7450
I0
ssg72
Nsg73
(dp7451
I0
g7450
sI1
S'_5'
p7452
ssg75
(lp7453
g7439
asg77
(dp7454
sbsS'f'
(lp7455
g209
aS'the'
p7456
ag2990
aS'to'
p7457
aS'support'
p7458
aS'the'
p7459
aS'Siniora'
p7460
asg87
I0
sg88
I0
sg89
g209
sg90
(lp7461
sg92
Nsg93
(lp7462
sbI1
sg1
(g12
g3
NtRp7463
(dp7464
S'e'
g15
(tRp7465
S'_5'
p7466
g18
(tRp7467
S'j/just'
p7468
(lp7469
(tassS'_4'
p7470
g18
(tRp7471
S'o2/ordinary'
p7472
(lp7473
(tassS'_3'
p7474
g18
(tRp7475
S'c3/clothing'
p7476
(lp7477
(tasS'mod'
p7478
(lp7479
(g7470
tp7480
assS'_2'
p7481
g18
(tRp7482
S'ARG2'
p7483
(lp7484
(g7474
tp7485
asS'r/resemble-01'
p7486
(lp7487
(tassS'_1'
p7488
g18
(tRp7489
S'ARG1-of'
p7490
(lp7491
(g7481
tp7492
assS'_0'
p7493
g18
(tRp7494
S'ARG1'
p7495
(lp7496
(g7488
tp7497
asS'w/wear-01'
p7498
(lp7499
(tasS'mod'
p7500
(lp7501
(g7466
tp7502
ass(dp7503
g62
I00
sg63
I10
sg64
(dp7504
g7493
Nssg66
I0
sg67
Nsg68
(dp7505
sg70
(dp7506
g7488
I0
ssg72
Nsg73
(dp7507
I0
S'_1'
p7508
ssg75
(lp7509
g7493
asg77
(dp7510
sbsS'f'
(lp7511
S'worn'
p7512
aS'just'
p7513
aS'like'
p7514
aS'ordinary'
p7515
aS'clothing'
p7516
asg87
I0
sg88
I0
sg89
g204
sg90
(lp7517
sg92
Nsg93
(lp7518
sbI1
sg1
(g12
g3
NtRp7519
(dp7520
S'e'
g15
(tRp7521
S'_4'
p7522
g18
(tRp7523
S'"Johnson"'
p7524
(lp7525
(tassS'_3'
p7526
g18
(tRp7527
S'n/name'
p7528
(lp7529
(tasS'op1'
p7530
(lp7531
(g7522
tp7532
assS'_2'
p7533
g18
(tRp7534
S'-'
(lp7535
(tassS'_1'
p7536
g18
(tRp7537
S'p/person'
p7538
(lp7539
(tasS'wiki'
p7540
(lp7541
(g7533
tp7542
asS'name'
p7543
(lp7544
(g7526
tp7545
assS'_0'
p7546
g18
(tRp7547
S'ARG0'
p7548
(lp7549
(g7536
tp7550
asS's/say-01'
p7551
(lp7552
(tass(dp7553
g63
I9
sg72
Nsg68
(dp7554
sg77
(dp7555
sg62
I00
sg64
(dp7556
g7546
Nssg66
I0
sg67
Nsg75
(lp7557
g7546
asg70
(dp7558
sg73
(dp7559
sbsS'f'
(lp7560
S'Johnson'
p7561
aS'said'
p7562
asg87
I0
sg88
I0
sg89
g433
sg90
(lp7563
sg92
Nsg93
(lp7564
sbI-1
sg1
(g12
g3
NtRp7565
(dp7566
S'e'
g15
(tRp7567
S'_3'
p7568
g18
(tRp7569
S'd/door'
p7570
(lp7571
(tassS'_2'
p7572
g18
(tRp7573
S's/success'
p7574
(lp7575
(tassS'_1'
p7576
g18
(tRp7577
S'w/wide'
p7578
(lp7579
(tassS'_0'
p7580
g18
(tRp7581
S'ARG0'
p7582
(lp7583
(g7572
tp7584
asS'ARG1'
p7585
(lp7586
(g7568
tp7587
asS'o/open-01'
p7588
(lp7589
(tasS'manner'
p7590
(lp7591
(g7576
tp7592
ass(dp7593
g62
I00
sg63
I7
sg64
(dp7594
g7580
Nssg66
I0
sg67
Nsg68
(dp7595
sg70
(dp7596
g7572
I0
ssg72
Nsg73
(dp7597
I0
S'_2'
p7598
ssg75
(lp7599
g7580
asg77
(dp7600
sbsS'f'
(lp7601
S'successes'
p7602
aS'open'
p7603
aS'the'
p7604
aS'door'
p7605
aS'wide'
p7606
asg87
I0
sg88
I0
sg89
g2990
sg90
(lp7607
sg92
Nsg93
(lp7608
sbI1
sg1
(g12
g3
NtRp7609
(dp7610
S'e'
g15
(tRp7611
S'_3'
p7612
g18
(tRp7613
S'y/yuan'
p7614
(lp7615
(tassS'_2'
p7616
g18
(tRp7617
S'unit'
p7618
(lp7619
(g7612
tp7620
assS'_1'
p7621
g18
(tRp7622
sS'_0'
p7623
g18
(tRp7624
g1
(g33
g3
NtRp7625
(dp7626
g36
I1
sg37
S'A3-101'
p7627
sb(lp7628
(g7621
g7616
tp7629
asg1
(g33
g3
NtRp7630
(dp7631
g36
I0
sg37
S'A1-0'
p7632
sb(lp7633
(tass(dp7634
g63
I4
sg72
Nsg68
(dp7635
sg77
(dp7636
sg62
I00
sg64
(dp7637
g7623
Nssg66
I0
sg67
Nsg75
(lp7638
g7623
asg70
(dp7639
S'_1'
p7640
I0
ssg73
(dp7641
I0
g7640
ssbsS'f'
(lp7642
g434
ag577
aS'-'
aS'yuan'
p7643
asg87
I0
sg88
I0
sg89
g982
sg90
(lp7644
sg92
Nsg93
(lp7645
sbI-1
sg1
(g12
g3
NtRp7646
(dp7647
S'e'
g15
(tRp7648
S'_4'
p7649
g18
(tRp7650
g1
(g33
g3
NtRp7651
(dp7652
g36
I1
sg37
S'A1-1'
p7653
sb(lp7654
(tassS'_3'
p7655
g18
(tRp7656
S'q/question-01'
p7657
(lp7658
(tasS'ARG1'
p7659
(lp7660
(g7649
tp7661
assS'_2'
p7662
g18
(tRp7663
S't3/this'
p7664
(lp7665
(tassS'_1'
p7666
g18
(tRp7667
S'mod'
p7668
(lp7669
(g7662
tp7670
assS'_0'
p7671
g18
(tRp7672
g1
(g33
g3
NtRp7673
(dp7674
g36
I0
sg37
S'A2-11'
p7675
sb(lp7676
(g7666
tp7677
asS'ARG3'
p7678
(lp7679
(g7655
tp7680
ass(dp7681
g62
I00
sg63
I7
sg64
(dp7682
g7671
Nssg66
I0
sg67
Nsg68
(dp7683
sg70
(dp7684
sg72
Nsg73
(dp7685
sg75
(lp7686
g7671
asg77
(dp7687
sbsS'f'
(lp7688
S'These'
p7689
ag2990
aS'to'
p7690
aS'questions'
p7691
aS'about'
p7692
aS'the'
p7693
ag83
asg87
I0
sg88
I0
sg89
g83
sg90
(lp7694
sg92
Nsg93
(lp7695
sbI1
sg1
(g12
g3
NtRp7696
(dp7697
S'e'
g15
(tRp7698
S'_2'
p7699
g18
(tRp7700
sS'_1'
p7701
g18
(tRp7702
S'm/many'
p7703
(lp7704
(tasS'op1'
p7705
(lp7706
(g7699
tp7707
assS'_0'
p7708
g18
(tRp7709
S's2/see-01'
p7710
(lp7711
(tasS'duration'
p7712
(lp7713
(g7701
tp7714
ass(dp7715
g62
I00
sg63
I4
sg64
(dp7716
g7708
Nssg66
I0
sg67
Nsg68
(dp7717
sg70
(dp7718
g7699
I0
ssg72
Nsg73
(dp7719
I0
S'_2'
p7720
ssg75
(lp7721
g7708
asg77
(dp7722
sbsS'f'
(lp7723
S'seen'
p7724
aS'for'
p7725
aS'many'
p7726
asg87
I0
sg88
I0
sg89
g204
sg90
(lp7727
sg92
Nsg93
(lp7728
sbI1
sg1
(g12
g3
NtRp7729
(dp7730
S'e'
g15
(tRp7731
S'_4'
p7732
g18
(tRp7733
S'interrogative'
p7734
(lp7735
(tassS'_3'
p7736
g18
(tRp7737
S'w2/we'
p7738
(lp7739
(tassS'_2'
p7740
g18
(tRp7741
S'ARG0'
p7742
(lp7743
(g7736
tp7744
asS's2/succeed-01'
p7745
(lp7746
(tassS'_1'
p7747
g18
(tRp7748
S'ARG2'
p7749
(lp7750
(g7740
tp7751
assS'_0'
p7752
g18
(tRp7753
g1
(g33
g3
NtRp7754
(dp7755
g36
I0
sg37
S'A2-11'
p7756
sb(lp7757
(g7747
tp7758
asS'mode'
p7759
(lp7760
(g7732
tp7761
ass(dp7762
g63
I7
sg72
Nsg68
(dp7763
sg77
(dp7764
sg62
I00
sg64
(dp7765
g7752
Nssg66
I0
sg67
Nsg75
(lp7766
g7752
asg70
(dp7767
sg73
(dp7768
sbsS'f'
(lp7769
g578
aS'for'
p7770
aS'us'
p7771
aS'to'
p7772
aS'succeed'
p7773
aS'?'
asg87
I0
sg88
I0
sg89
g433
sg90
(lp7774
sg92
Nsg93
(lp7775
sbI-1
sg1
(g12
g3
NtRp7776
(dp7777
S'e'
g15
(tRp7778
S'_6'
p7779
g18
(tRp7780
S'a/altogether'
p7781
(lp7782
(tassS'_5'
p7783
g18
(tRp7784
S'm/minor'
p7785
(lp7786
(tassS'_4'
p7787
g18
(tRp7788
S'ARG1'
p7789
(lp7790
(S'_1'
tp7791
asS'w/wound-01'
p7792
(lp7793
(tasS'mod'
p7794
(lp7795
(g7783
tp7796
assS'_3'
p7797
g18
(tRp7798
S'ARG2'
p7799
(lp7800
(g7787
tp7801
assS'_2'
p7802
g18
(tRp7803
S'11'
p7804
(lp7805
(tassS'_1'
p7806
g18
(tRp7807
S'quant'
p7808
(lp7809
(g7802
tp7810
assS'_0'
p7811
g18
(tRp7812
g1
(g33
g3
NtRp7813
(dp7814
g36
I0
sg37
S'A3-111'
p7815
sb(lp7816
(g7806
g7797
tp7817
asS'mod'
p7818
(lp7819
(g7779
tp7820
ass(dp7821
g63
I10
sg72
Nsg68
(dp7822
sg77
(dp7823
sg62
I00
sg64
(dp7824
g7811
Nssg66
I0
sg67
Nsg75
(lp7825
g7811
asg70
(dp7826
sg73
(dp7827
sbsS'f'
(lp7828
S'altogether'
p7829
aS'11'
p7830
aS'[A3-111]'
p7831
aS'due'
p7832
aS'to'
p7833
aS'minor'
p7834
aS'wounds'
p7835
asg87
I0
sg88
I0
sg89
g433
sg90
(lp7836
sg92
Nsg93
(lp7837
sbI-1
sg1
(g12
g3
NtRp7838
(dp7839
S'e'
g15
(tRp7840
S'_4'
p7841
g18
(tRp7842
S'a2/also'
p7843
(lp7844
(tassS'_3'
p7845
g18
(tRp7846
sS'_2'
p7847
g18
(tRp7848
sS'_1'
p7849
g18
(tRp7850
sS'_0'
p7851
g18
(tRp7852
S'a/accelerate-01'
p7853
(lp7854
(tasg1
(g33
g3
NtRp7855
(dp7856
g36
I0
sg37
S'A4-0100'
p7857
sb(lp7858
(g7849
g7847
g7845
tp7859
asS'mod'
p7860
(lp7861
(g7841
tp7862
ass(dp7863
g63
I4
sg72
Nsg68
(dp7864
sg77
(dp7865
sg62
I00
sg64
(dp7866
g7851
Nssg66
I0
sg67
Nsg75
(lp7867
g7851
asg70
(dp7868
S'_3'
p7869
I2
sS'_2'
p7870
I1
sS'_1'
p7871
I0
ssg73
(dp7872
I0
g7871
sI1
g7870
sI2
g7869
ssbsS'f'
(lp7873
S'[A4-0100]'
p7874
aS','
aS'they'
p7875
aS'also'
p7876
aS'accelerate'
p7877
asg87
I0
sg88
I0
sg89
g5001
sg90
(lp7878
sg92
Nsg93
(lp7879
sbI-1
sg1
(g12
g3
NtRp7880
(dp7881
S'e'
g15
(tRp7882
S'_4'
p7883
g18
(tRp7884
S'd/door'
p7885
(lp7886
(tassS'_3'
p7887
g18
(tRp7888
S't3/this'
p7889
(lp7890
(tassS'_2'
p7891
g18
(tRp7892
S's/success'
p7893
(lp7894
(tasS'mod'
p7895
(lp7896
(g7887
tp7897
assS'_1'
p7898
g18
(tRp7899
S'w/wide'
p7900
(lp7901
(tassS'_0'
p7902
g18
(tRp7903
S'ARG0'
p7904
(lp7905
(g7891
tp7906
asS'ARG1'
p7907
(lp7908
(g7883
tp7909
asg1
(g33
g3
NtRp7910
(dp7911
g36
I0
sg37
S'A1-0'
p7912
sb(lp7913
(tasS'o/open-01'
p7914
(lp7915
(tasS'manner'
p7916
(lp7917
(g7898
tp7918
ass(dp7919
g63
I10
sg72
Nsg68
(dp7920
sg77
(dp7921
sg62
I00
sg64
(dp7922
g7902
Nssg66
I0
sg67
Nsg75
(lp7923
g7902
asg70
(dp7924
sg73
(dp7925
sbsS'f'
(lp7926
S'These'
p7927
aS'successes'
p7928
aS'open'
p7929
aS'the'
p7930
aS'door'
p7931
aS'wide'
p7932
aS'[A1-0]'
p7933
asg87
I0
sg88
I0
sg89
S'[A1-1]'
p7934
sg90
(lp7935
sg92
Nsg93
(lp7936
sbI-1
sg1
(g12
g3
NtRp7937
(dp7938
S'e'
g15
(tRp7939
S'_5'
p7940
g18
(tRp7941
S'k/kingdom'
p7942
(lp7943
(tassS'_4'
p7944
g18
(tRp7945
S'i/institute'
p7946
(lp7947
(tassS'_3'
p7948
g18
(tRp7949
S'c/college'
p7950
(lp7951
(tassS'_2'
p7952
g18
(tRp7953
S'u/university'
p7954
(lp7955
(tassS'_1'
p7956
g18
(tRp7957
g1
(g33
g3
NtRp7958
(dp7959
g36
I1
sg37
S'A4-1000'
p7960
sb(lp7961
(g7952
g7948
g7944
tp7962
asS'poss'
p7963
(lp7964
(g7940
tp7965
assS'_0'
p7966
g18
(tRp7967
g1
(g33
g3
NtRp7968
(dp7969
g36
I0
sg37
S'A2-10'
p7970
sb(lp7971
(g7956
tp7972
ass(dp7973
g62
I00
sg63
I7
sg64
(dp7974
g7966
Nssg66
I0
sg67
Nsg68
(dp7975
sg70
(dp7976
sg72
Nsg73
(dp7977
sg75
(lp7978
g7966
asg77
(dp7979
sbsS'f'
(lp7980
g204
aS'the'
p7981
aS'universities'
p7982
aS','
aS'colleges'
p7983
aS'[A4-1000]'
p7984
aS'institutes'
p7985
aS'of'
p7986
aS'the'
p7987
aS'Kingdom'
p7988
asg87
I0
sg88
I0
sg89
g83
sg90
(lp7989
sg92
Nsg93
(lp7990
sbI1
sg1
(g12
g3
NtRp7991
(dp7992
S'e'
g15
(tRp7993
S'_4'
p7994
g18
(tRp7995
S'p4/press'
p7996
(lp7997
(tassS'_3'
p7998
g18
(tRp7999
S'c2/correspondent'
p8000
(lp8001
(tasS'mod'
p8002
(lp8003
(g7994
tp8004
assS'_2'
p8005
g18
(tRp8006
g1
(g33
g3
NtRp8007
(dp8008
g36
I0
sg37
S'A1-1'
p8009
sb(lp8010
(tassS'_1'
p8011
g18
(tRp8012
S'ARG1'
p8013
(lp8014
(g8005
tp8015
asS'h/have-org-role-91'
p8016
(lp8017
(tasS'ARG2'
p8018
(lp8019
(g7998
tp8020
assS'_0'
p8021
g18
(tRp8022
S'p2/person'
p8023
(lp8024
(tasS'ARG0-of'
p8025
(lp8026
(g8011
tp8027
ass(dp8028
g62
I00
sg63
I9
sg64
(dp8029
g8021
Nssg66
I0
sg67
Nsg68
(dp8030
sg70
(dp8031
sg72
Nsg73
(dp8032
sg75
(lp8033
g8021
asg77
(dp8034
sbsS'f'
(lp8035
S'Press'
p8036
aS'Correspondent'
p8037
aS'for'
p8038
ag83
asg87
I0
sg88
I0
sg89
g83
sg90
(lp8039
sg92
Nsg93
(lp8040
sbI1
sg1
(g12
g3
NtRp8041
(dp8042
S'e'
g15
(tRp8043
S'_4'
p8044
g18
(tRp8045
S'm/month'
p8046
(lp8047
(tassS'_3'
p8048
g18
(tRp8049
S'1'
(lp8050
(tassS'_2'
p8051
g18
(tRp8052
S'quant'
p8053
(lp8054
(g8048
tp8055
asS'unit'
p8056
(lp8057
(g8044
tp8058
asS't/temporal-quantity'
p8059
(lp8060
(tassS'_1'
p8061
g18
(tRp8062
g1
(g33
g3
NtRp8063
(dp8064
g36
I0
sg37
S'A1-1'
p8065
sb(lp8066
(tassS'_0'
p8067
g18
(tRp8068
S'ARG1'
p8069
(lp8070
(g8061
tp8071
asS'ARG2'
p8072
(lp8073
(g8051
tp8074
asS'r/rate-entity-91'
p8075
(lp8076
(tass(dp8077
g62
I00
sg63
I9
sg64
(dp8078
g8067
Nssg66
I0
sg67
Nsg68
(dp8079
sg70
(dp8080
sg72
Nsg73
(dp8081
sg75
(lp8082
g8067
asg77
(dp8083
sbsS'f'
(lp8084
g83
aS'monthly'
p8085
asg87
I0
sg88
I0
sg89
g83
sg90
(lp8086
sg92
Nsg93
(lp8087
sbI1
sg1
(g12
g3
NtRp8088
(dp8089
S'e'
g15
(tRp8090
S'_2'
p8091
g18
(tRp8092
g1
(g33
g3
NtRp8093
(dp8094
g36
I0
sg37
S'A1-1'
p8095
sb(lp8096
(tassS'_1'
p8097
g18
(tRp8098
S'w2/woman'
p8099
(lp8100
(tasS'mod'
p8101
(lp8102
(g8091
tp8103
assS'_0'
p8104
g18
(tRp8105
S'ARG0'
p8106
(lp8107
(g8097
tp8108
asS'w/work-01'
p8109
(lp8110
(tass(dp8111
g62
I00
sg63
I5
sg64
(dp8112
g8104
Nssg66
I0
sg67
Nsg68
(dp8113
sg70
(dp8114
sg72
Nsg73
(dp8115
sg75
(lp8116
g8104
asg77
(dp8117
sbsS'f'
(lp8118
S'work'
p8119
aS'for'
p8120
ag83
aS'woman'
p8121
asg87
I0
sg88
I0
sg89
g83
sg90
(lp8122
sg92
Nsg93
(lp8123
sbI1
sg1
(g12
g3
NtRp8124
(dp8125
S'e'
g15
(tRp8126
S'_3'
p8127
g18
(tRp8128
S'm/main'
p8129
(lp8130
(tassS'_2'
p8131
g18
(tRp8132
sS'_1'
p8133
g18
(tRp8134
S'b/board'
p8135
(lp8136
(tasS'poss'
p8137
(lp8138
(g8131
tp8139
asS'mod'
p8140
(lp8141
(g8127
tp8142
assS'_0'
p8143
g18
(tRp8144
S'location'
p8145
(lp8146
(g8133
tp8147
ass(dp8148
g63
I5
sg72
Nsg68
(dp8149
sg77
(dp8150
sg62
I00
sg64
(dp8151
g8143
Nssg66
I0
sg67
Nsg75
(lp8152
g8143
asg70
(dp8153
g8131
I0
ssg73
(dp8154
I0
S'_2'
p8155
ssbsS'f'
(lp8156
S'on'
p8157
aS'the'
p8158
aS'main'
p8159
aS'board'
p8160
aS'of'
p8161
asg87
I0
sg88
I0
sg89
g1463
sg90
(lp8162
sg92
Nsg93
(lp8163
sbI-1
sg1
(g12
g3
NtRp8164
(dp8165
S'e'
g15
(tRp8166
S'_7'
p8167
g18
(tRp8168
S'a3/and'
p8169
(lp8170
(tasS'op1'
p8171
(lp8172
(S'_1'
tp8173
asS'op2'
p8174
(lp8175
(S'_3'
tp8176
assS'_6'
p8177
g18
(tRp8178
S'c'
(lp8179
(tassS'_5'
p8180
g18
(tRp8181
S'poss'
p8182
(lp8183
(g8177
tp8184
asS'v/vehicle'
p8185
(lp8186
(tassS'_4'
p8187
g18
(tRp8188
S'y/young'
p8189
(lp8190
(tassS'_3'
p8191
g18
(tRp8192
S'p/person'
p8193
(lp8194
(tasS'mod'
p8195
(lp8196
(g8187
tp8197
assS'_2'
p8198
g18
(tRp8199
S'ARG2'
p8200
(lp8201
(g8191
tp8202
assS'_1'
p8203
g18
(tRp8204
sS'_0'
p8205
g18
(tRp8206
g1
(g33
g3
NtRp8207
(dp8208
g36
I0
sg37
S'A6-111000'
p8209
sb(lp8210
(g8203
g8198
g8180
S'_3'
g8167
tp8211
ass(dp8212
g63
I11
sg72
Nsg68
(dp8213
sg77
(dp8214
sg62
I00
sg64
(dp8215
g8205
Nssg66
I0
sg67
Nsg75
(lp8216
g8205
asg70
(dp8217
sg73
(dp8218
sbsS'f'
(lp8219
S'[A6-111000]'
p8220
aS'their'
p8221
aS'own'
p8222
aS'vehicle'
p8223
aS'to'
p8224
aS'the'
p8225
aS'young'
p8226
aS'person'
p8227
asg87
I0
sg88
I0
sg89
g433
sg90
(lp8228
sg92
Nsg93
(lp8229
sbI-1
sg1
(g12
g3
NtRp8230
(dp8231
S'e'
g15
(tRp8232
S'_3'
p8233
g18
(tRp8234
S'b2/buffet'
p8235
(lp8236
(tassS'_2'
p8237
g18
(tRp8238
S'r/restaurant'
p8239
(lp8240
(tassS'_1'
p8241
g18
(tRp8242
S'n/neighborhood'
p8243
(lp8244
(tassS'_0'
p8245
g18
(tRp8246
g1
(g33
g3
NtRp8247
(dp8248
g36
I0
sg37
S'A3-100'
p8249
sb(lp8250
(g8237
g8233
tp8251
asS'location'
p8252
(lp8253
(g8241
tp8254
ass(dp8255
g63
I5
sg72
Nsg68
(dp8256
sg77
(dp8257
sg62
I00
sg64
(dp8258
g8245
Nssg66
I0
sg67
Nsg75
(lp8259
g8245
asg70
(dp8260
sg73
(dp8261
sbsS'f'
(lp8262
S'buffets'
p8263
aS'[A3-100]'
p8264
aS'restaurants'
p8265
aS'of'
p8266
aS'the'
p8267
aS'neighborhood'
p8268
asg87
I0
sg88
I0
sg89
S'[A1-1]'
p8269
sg90
(lp8270
sg92
Nsg93
(lp8271
sbI-1
sg1
(g12
g3
NtRp8272
(dp8273
S'e'
g15
(tRp8274
S'_7'
p8275
g18
(tRp8276
S'y3/year'
p8277
(lp8278
(tassS'_6'
p8279
g18
(tRp8280
S'unit'
p8281
(lp8282
(g8275
tp8283
assS'_5'
p8284
g18
(tRp8285
S'm/many'
p8286
(lp8287
(tasS'op1'
p8288
(lp8289
(g8279
tp8290
assS'_4'
p8291
g18
(tRp8292
S'-'
(lp8293
(tassS'_3'
p8294
g18
(tRp8295
S'polarity'
p8296
(lp8297
(g8291
tp8298
asS's2/see-01'
p8299
(lp8300
(tasS'duration'
p8301
(lp8302
(g8284
tp8303
assS'_2'
p8304
g18
(tRp8305
sS'_1'
p8306
g18
(tRp8307
sS'_0'
p8308
g18
(tRp8309
S'ARG0'
p8310
(lp8311
(g8306
tp8312
asS'f/find-01'
p8313
(lp8314
(tasS'ARG1-of'
p8315
(lp8316
(g8294
tp8317
asS'ARG1'
p8318
(lp8319
(g8304
tp8320
ass(dp8321
g63
I12
sg72
Nsg68
(dp8322
sg77
(dp8323
sg62
I00
sg64
(dp8324
g8308
Nssg66
I0
sg67
Nsg75
(lp8325
g8308
asg70
(dp8326
g8279
I2
sg8304
I1
sg8306
I0
ssg73
(dp8327
I0
S'_1'
p8328
sI1
S'_2'
p8329
sI2
S'_6'
p8330
ssbsS'f'
(lp8331
S"n't"
p8332
aS'seen'
p8333
aS'for'
p8334
aS'many'
p8335
aS'years'
p8336
aS'found'
p8337
asg87
I0
sg88
I0
sg89
S'[A4-1000]'
p8338
sg90
(lp8339
sg92
Nsg93
(lp8340
sbI-1
sg1
(g12
g3
NtRp8341
(dp8342
S'e'
g15
(tRp8343
S'_3'
p8344
g18
(tRp8345
S'q/qualify-02'
p8346
(lp8347
(tassS'_2'
p8348
g18
(tRp8349
S'ARG2-of'
p8350
(lp8351
(g8344
tp8352
asS't2/thing'
p8353
(lp8354
(tassS'_1'
p8355
g18
(tRp8356
g1
(g33
g3
NtRp8357
(dp8358
g36
I1
sg37
S'A2-10'
p8359
sb(lp8360
(g8348
tp8361
assS'_0'
p8362
g18
(tRp8363
S'f/field'
p8364
(lp8365
(tasg1
(g33
g3
NtRp8366
(dp8367
g36
I0
sg37
S'A2-00'
p8368
sb(lp8369
(g8355
tp8370
ass(dp8371
g62
I00
sg63
I6
sg64
(dp8372
g8362
Nssg66
I0
sg67
Nsg68
(dp8373
sg70
(dp8374
sg72
Nsg73
(dp8375
sg75
(lp8376
g8362
asg77
(dp8377
sbsS'f'
(lp8378
S'Fields'
p8379
ag3991
aS'('
ag204
aS'qualifications'
p8380
asg87
I0
sg88
I0
sg89
g83
sg90
(lp8381
sg92
Nsg93
(lp8382
sbI1
sg1
(g12
g3
NtRp8383
(dp8384
S'e'
g15
(tRp8385
S'_6'
p8386
g18
(tRp8387
S'p3/person'
p8388
(lp8389
(tassS'_5'
p8390
g18
(tRp8391
S'-'
(lp8392
(tassS'_4'
p8393
g18
(tRp8394
S'v/very'
p8395
(lp8396
(tassS'_3'
p8397
g18
(tRp8398
S'polarity'
p8399
(lp8400
(g8390
tp8401
asS'p2/probable'
p8402
(lp8403
(tasS'degree'
p8404
(lp8405
(g8393
tp8406
assS'_2'
p8407
g18
(tRp8408
S'ARG1'
p8409
(lp8410
(g8386
tp8411
asS'mod'
p8412
(lp8413
(g8397
tp8414
asS'c/come-01'
p8415
(lp8416
(tassS'_1'
p8417
g18
(tRp8418
sS'_0'
p8419
g18
(tRp8420
S'a/and'
p8421
(lp8422
(tasS'op1'
p8423
(lp8424
(g8417
tp8425
asS'op2'
p8426
(lp8427
(g8407
tp8428
ass(dp8429
g63
I12
sg72
Nsg68
(dp8430
sg77
(dp8431
sg62
I00
sg64
(dp8432
g8419
Nssg66
I0
sg67
Nsg75
(lp8433
g8419
asg70
(dp8434
g8386
I2
sg8407
I1
sg8417
I0
ssg73
(dp8435
I0
S'_1'
p8436
sI1
S'_2'
p8437
sI2
S'_6'
p8438
ssbsS'f'
(lp8439
S'and'
p8440
aS'very'
p8441
aS'probably'
p8442
aS'cannot'
p8443
aS'come'
p8444
asg87
I0
sg88
I0
sg89
g7377
sg90
(lp8445
sg92
Nsg93
(lp8446
sbI-1
sg1
(g12
g3
NtRp8447
(dp8448
S'e'
g15
(tRp8449
S'_5'
p8450
g18
(tRp8451
sS'_4'
p8452
g18
(tRp8453
S'"Johnson"'
p8454
(lp8455
(tassS'_3'
p8456
g18
(tRp8457
S'n/name'
p8458
(lp8459
(tasS'op1'
p8460
(lp8461
(g8452
tp8462
assS'_2'
p8463
g18
(tRp8464
S'-'
(lp8465
(tassS'_1'
p8466
g18
(tRp8467
S'p/person'
p8468
(lp8469
(tasS'wiki'
p8470
(lp8471
(g8463
tp8472
asS'name'
p8473
(lp8474
(g8456
tp8475
assS'_0'
p8476
g18
(tRp8477
g1
(g33
g3
NtRp8478
(dp8479
g36
I0
sg37
S'A3-100'
p8480
sb(lp8481
(g8466
g8450
tp8482
ass(dp8483
g62
I00
sg63
I8
sg64
(dp8484
g8476
Nssg66
I0
sg67
Nsg68
(dp8485
sg70
(dp8486
S'_5'
p8487
I0
ssg72
Nsg73
(dp8488
I0
g8487
ssg75
(lp8489
g8476
asg77
(dp8490
sbsS'f'
(lp8491
S'Johnson'
p8492
ag209
asg87
I0
sg88
I0
sg89
g204
sg90
(lp8493
sg92
Nsg93
(lp8494
sbI1
sg1
(g12
g3
NtRp8495
(dp8496
S'e'
g15
(tRp8497
S'_7'
p8498
g18
(tRp8499
S'a2/actual'
p8500
(lp8501
(tassS'_6'
p8502
g18
(tRp8503
sS'_5'
p8504
g18
(tRp8505
S'ARG0'
p8506
(lp8507
(S'_3'
tp8508
asS'l/lend-01'
p8509
(lp8510
(tasS'ARG1'
p8511
(lp8512
(g8502
tp8513
assS'_4'
p8514
g18
(tRp8515
sS'_3'
p8516
g18
(tRp8517
sS'_2'
p8518
g18
(tRp8519
sS'_1'
p8520
g18
(tRp8521
g1
(g33
g3
NtRp8522
(dp8523
g36
I0
sg37
S'A4-1010'
p8524
sb(lp8525
(g8518
g8516
g8514
tp8526
assS'_0'
p8527
g18
(tRp8528
S'ARG0'
p8529
(lp8530
(S'_3'
tp8531
asS'ARG1'
p8532
(lp8533
(g8504
tp8534
asS'time'
p8535
(lp8536
(g8520
tp8537
asS'i/initiate-01'
p8538
(lp8539
(tasS'mod'
p8540
(lp8541
(g8498
tp8542
ass(dp8543
g63
I10
sg72
Nsg68
(dp8544
sg77
(dp8545
sg62
I00
sg64
(dp8546
g8527
Nssg66
I0
sg67
Nsg75
(lp8547
g8527
asg70
(dp8548
g8502
I2
sg8504
I1
sS'_4'
p8549
I4
sS'_3'
p8550
I0
sS'_2'
p8551
I3
ssg73
(dp8552
I0
S'_3'
p8553
sI1
S'_5'
p8554
sI2
S'_6'
p8555
sI3
g8551
sI4
g8549
ssbsS'f'
(lp8556
g4462
aS','
aS'they'
p8557
aS'actually'
p8558
aS'took'
p8559
aS'the'
p8560
aS'initiative'
p8561
aS'to'
p8562
aS'lend'
p8563
asg87
I0
sg88
I0
sg89
g8220
sg90
(lp8564
sg92
Nsg93
(lp8565
sbI-1
sg1
(g12
g3
NtRp8566
(dp8567
S'e'
g15
(tRp8568
S'_5'
p8569
g18
(tRp8570
S'a2/actual'
p8571
(lp8572
(tassS'_4'
p8573
g18
(tRp8574
S'c'
(lp8575
(tassS'_3'
p8576
g18
(tRp8577
S'poss'
p8578
(lp8579
(g8573
tp8580
asS'v/vehicle'
p8581
(lp8582
(tassS'_2'
p8583
g18
(tRp8584
S'ARG0'
p8585
(lp8586
(S'_1'
tp8587
asS'l/lend-01'
p8588
(lp8589
(tasS'ARG1'
p8590
(lp8591
(g8576
tp8592
assS'_1'
p8593
g18
(tRp8594
sS'_0'
p8595
g18
(tRp8596
S'ARG0'
p8597
(lp8598
(g8593
tp8599
asS'ARG1'
p8600
(lp8601
(g8583
tp8602
asS'i/initiate-01'
p8603
(lp8604
(tasS'mod'
p8605
(lp8606
(g8569
tp8607
ass(dp8608
g62
I00
sg63
I11
sg64
(dp8609
g8595
Nssg66
I0
sg67
Nsg68
(dp8610
sg70
(dp8611
g8583
I1
sg8593
I0
ssg72
Nsg73
(dp8612
I0
S'_1'
p8613
sI1
S'_2'
p8614
ssg75
(lp8615
g8595
asg77
(dp8616
sbsS'f'
(lp8617
S'actually'
p8618
aS'took'
p8619
aS'the'
p8620
aS'initiative'
p8621
aS'to'
p8622
aS'lend'
p8623
aS'their'
p8624
aS'own'
p8625
aS'vehicle'
p8626
asg87
I0
sg88
I0
sg89
g1062
sg90
(lp8627
sg92
Nsg93
(lp8628
sbI1
sg1
(g12
g3
NtRp8629
(dp8630
S'e'
g15
(tRp8631
S'_7'
p8632
g18
(tRp8633
S'a/almost'
p8634
(lp8635
(tassS'_6'
p8636
g18
(tRp8637
g1
(g33
g3
NtRp8638
(dp8639
g36
I0
sg37
S'A1-1'
p8640
sb(lp8641
(tassS'_5'
p8642
g18
(tRp8643
S's2/share'
p8644
(lp8645
(tasS'poss'
p8646
(lp8647
(g8636
tp8648
assS'_4'
p8649
g18
(tRp8650
S'ARG1'
p8651
(lp8652
(g8642
tp8653
asS'p2/price-01'
p8654
(lp8655
(tassS'_3'
p8656
g18
(tRp8657
S't/thing'
p8658
(lp8659
(tasS'ARG2-of'
p8660
(lp8661
(g8649
tp8662
assS'_2'
p8663
g18
(tRp8664
S'n3/now'
p8665
(lp8666
(tassS'_1'
p8667
g18
(tRp8668
S'b/before'
p8669
(lp8670
(tasS'op1'
p8671
(lp8672
(g8663
tp8673
assS'_0'
p8674
g18
(tRp8675
S'ARG1'
p8676
(lp8677
(g8656
tp8678
asS'mod'
p8679
(lp8680
(g8632
tp8681
asS'd/double-01'
p8682
(lp8683
(tasS'time'
p8684
(lp8685
(g8667
tp8686
ass(dp8687
g62
I00
sg63
I15
sg64
(dp8688
g8674
Nssg66
I0
sg67
Nsg68
(dp8689
sg70
(dp8690
g8667
I0
ssg72
Nsg73
(dp8691
I0
S'_1'
p8692
ssg75
(lp8693
g8674
asg77
(dp8694
sbsS'f'
(lp8695
S'share'
p8696
aS'price'
p8697
aS'of'
p8698
ag83
aS'has'
p8699
aS'almost'
p8700
aS'doubled'
p8701
asg87
I0
sg88
I0
sg89
g2990
sg90
(lp8702
sg92
Nsg93
(lp8703
sbI1
sg1
(g12
g3
NtRp8704
(dp8705
S'e'
g15
(tRp8706
S'_1'
p8707
g18
(tRp8708
sS'_0'
p8709
g18
(tRp8710
S'ARG2'
p8711
(lp8712
(g8707
tp8713
asS'r/result-01'
p8714
(lp8715
(tass(dp8716
g63
I2
sg72
Nsg68
(dp8717
sg77
(dp8718
sg62
I00
sg64
(dp8719
sg66
I0
sg67
Nsg75
(lp8720
S'_0'
p8721
asg70
(dp8722
g8707
I0
ssg73
(dp8723
I0
g8707
ssbsS'f'
(lp8724
S'result'
p8725
asg87
I0
sg88
I0
sg89
g982
sg90
(lp8726
sg92
Nsg93
(lp8727
sbI-1
sg1
(g12
g3
NtRp8728
(dp8729
S'e'
g15
(tRp8730
S'_3'
p8731
g18
(tRp8732
sS'_2'
p8733
g18
(tRp8734
sS'_1'
p8735
g18
(tRp8736
sS'_0'
p8737
g18
(tRp8738
S'a/and'
p8739
(lp8740
(tasS'op1'
p8741
(lp8742
(g8735
tp8743
asS'op2'
p8744
(lp8745
(g8733
tp8746
asS'op3'
p8747
(lp8748
(g8731
tp8749
ass(dp8750
g62
I00
sg63
I4
sg64
(dp8751
sg66
I0
sg67
(dp8752
(S'_0'
p8753
g8741
g8743
tp8754
I0
s(g8753
g8744
g8746
tp8755
I0
s(g8753
g8747
g8749
tp8756
I0
s(g8753
g8739
(ttp8757
I0
ssg68
(dp8758
sg70
(dp8759
g8731
I2
sg8733
I1
sg8735
I0
ssg72
(lp8760
g8757
ag8754
ag8755
ag8756
asg73
(dp8761
I0
g8735
sI1
g8733
sI2
g8731
ssg75
(lp8762
g8753
asg77
(dp8763
sbsS'f'
(lp8764
S'and'
p8765
asg87
I0
sg88
I0
sg89
S'[A4-1000]'
p8766
sg90
(lp8767
sg92
Nsg93
(lp8768
F1
aF0
aF0
asbI1
sg1
(g12
g3
NtRp8769
(dp8770
S'e'
g15
(tRp8771
S'_5'
p8772
g18
(tRp8773
S'c4/certain'
p8774
(lp8775
(tassS'_4'
p8776
g18
(tRp8777
S'a2/antibiotic'
p8778
(lp8779
(tasS'mod'
p8780
(lp8781
(g8772
tp8782
assS'_3'
p8783
g18
(tRp8784
g1
(g33
g3
NtRp8785
(dp8786
g36
I1
sg37
S'A2-10'
p8787
sb(lp8788
(g8776
tp8789
assS'_2'
p8790
g18
(tRp8791
S'ARG1'
p8792
(lp8793
(g8783
tp8794
assS'_1'
p8795
g18
(tRp8796
g1
(g33
g3
NtRp8797
(dp8798
g36
I0
sg37
S'A2-11'
p8799
sb(lp8800
(g8790
tp8801
assS'_0'
p8802
g18
(tRp8803
S'c2/contrast-01'
p8804
(lp8805
(tasS'ARG2'
p8806
(lp8807
(g8795
tp8808
ass(dp8809
g62
I00
sg63
I8
sg64
(dp8810
g8802
Nssg66
I0
sg67
Nsg68
(dp8811
sg70
(dp8812
sg72
Nsg73
(dp8813
sg75
(lp8814
g8802
asg77
(dp8815
sbsS'f'
(lp8816
S'However'
p8817
aS','
ag2990
aS'that'
p8818
ag204
aS'certain'
p8819
aS'antibiotics'
p8820
asg87
I0
sg88
I0
sg89
g83
sg90
(lp8821
sg92
Nsg93
(lp8822
sbI1
sg1
(g12
g3
NtRp8823
(dp8824
S'e'
g15
(tRp8825
S'_8'
p8826
g18
(tRp8827
S'-'
(lp8828
(tassS'_7'
p8829
g18
(tRp8830
sS'_6'
p8831
g18
(tRp8832
S't/this'
p8833
(lp8834
(tassS'_5'
p8835
g18
(tRp8836
S'1'
(lp8837
(tassS'_4'
p8838
g18
(tRp8839
S'd2/day'
p8840
(lp8841
(tassS'_3'
p8842
g18
(tRp8843
S't2/temporal-quantity'
p8844
(lp8845
(tasS'quant'
p8846
(lp8847
(g8835
tp8848
asS'unit'
p8849
(lp8850
(g8838
tp8851
assS'_2'
p8852
g18
(tRp8853
S'f4/few'
p8854
(lp8855
(tasS'op1'
p8856
(lp8857
(g8842
tp8858
asS'mod'
p8859
(lp8860
(g8831
tp8861
assS'_1'
p8862
g18
(tRp8863
S'ARG0'
p8864
(lp8865
(g8829
tp8866
asS'ARG1'
p8867
(lp8868
(g8852
tp8869
asS'd/drag-01'
p8870
(lp8871
(tassS'_0'
p8872
g18
(tRp8873
S'polarity'
p8874
(lp8875
(g8826
tp8876
asS'ARG1'
p8877
(lp8878
(g8862
tp8879
asS'p/possible-01'
p8880
(lp8881
(tass(dp8882
g63
I16
sg72
Nsg68
(dp8883
sg77
(dp8884
sg62
I00
sg64
(dp8885
g8872
Nssg66
I0
sg67
Nsg75
(lp8886
g8872
asg70
(dp8887
g8829
I0
ssg73
(dp8888
I0
S'_7'
p8889
ssbsS'f'
(lp8890
S'I'
aS'can'
p8891
aS"n't"
p8892
aS'drag'
p8893
aS'for'
p8894
aS'these'
p8895
aS'few'
p8896
aS'days'
p8897
asg87
I0
sg88
I0
sg89
g982
sg90
(lp8898
sg92
Nsg93
(lp8899
sbI-1
sg1
(g12
g3
NtRp8900
(dp8901
S'e'
g15
(tRp8902
S'_6'
p8903
g18
(tRp8904
S's2/sport'
p8905
(lp8906
(tassS'_5'
p8907
g18
(tRp8908
sS'_4'
p8909
g18
(tRp8910
S'c/correspondent'
p8911
(lp8912
(tassS'_3'
p8913
g18
(tRp8914
S'h/have-org-role-91'
p8915
(lp8916
(tasS'ARG2'
p8917
(lp8918
(g8909
tp8919
assS'_2'
p8920
g18
(tRp8921
S'ARG0-of'
p8922
(lp8923
(g8913
tp8924
assS'_1'
p8925
g18
(tRp8926
S's/special-02'
p8927
(lp8928
(tassS'_0'
p8929
g18
(tRp8930
S'ARG0'
p8931
(lp8932
(g8920
tp8933
asS'ARG1'
p8934
(lp8935
(g8907
tp8936
asS'ARG1-of'
p8937
(lp8938
(g8925
tp8939
asS'w/wire-01'
p8940
(lp8941
(tasS'mod'
p8942
(lp8943
(g8903
tp8944
ass(dp8945
g63
I11
sg72
Nsg68
(dp8946
sg77
(dp8947
sg62
I00
sg64
(dp8948
g8929
Nssg66
I0
sg67
Nsg75
(lp8949
g8929
asg70
(dp8950
g8907
I1
sg8920
I0
ssg73
(dp8951
I0
S'_2'
p8952
sI1
S'_5'
p8953
ssbsS'f'
(lp8954
S'Special'
p8955
aS'Sport'
p8956
aS'Wire'
p8957
aS'('
aS'Correspondent'
p8958
asg87
I0
sg88
I0
sg89
g575
sg90
(lp8959
sg92
Nsg93
(lp8960
sbI-1
sg1
(g12
g3
NtRp8961
(dp8962
S'e'
g15
(tRp8963
S'_3'
p8964
g18
(tRp8965
S'b2/buffet'
p8966
(lp8967
(tassS'_2'
p8968
g18
(tRp8969
S'r/restaurant'
p8970
(lp8971
(tassS'_1'
p8972
g18
(tRp8973
S'n/neighborhood'
p8974
(lp8975
(tassS'_0'
p8976
g18
(tRp8977
S'a/and'
p8978
(lp8979
(tasS'location'
p8980
(lp8981
(g8972
tp8982
asS'op2'
p8983
(lp8984
(g8964
tp8985
asS'op1'
p8986
(lp8987
(g8968
tp8988
ass(dp8989
g62
I00
sg63
I7
sg64
(dp8990
g8976
Nssg66
I0
sg67
Nsg68
(dp8991
sg70
(dp8992
sg72
Nsg73
(dp8993
sg75
(lp8994
g8976
asg77
(dp8995
sbsS'f'
(lp8996
S'buffets'
p8997
aS'and'
p8998
aS'restaurants'
p8999
aS'of'
p9000
aS'the'
p9001
aS'neighborhood'
p9002
asg87
I0
sg88
I0
sg89
g83
sg90
(lp9003
sg92
Nsg93
(lp9004
sbI1
sg1
(g12
g3
NtRp9005
(dp9006
S'e'
g15
(tRp9007
S'_7'
p9008
g18
(tRp9009
S's4/sell-01'
p9010
(lp9011
(tassS'_6'
p9012
g18
(tRp9013
g1
(g33
g3
NtRp9014
(dp9015
g36
I1
sg37
S'A2-10'
p9016
sb(lp9017
(g9008
tp9018
assS'_5'
p9019
g18
(tRp9020
S'ARG1'
p9021
(lp9022
(g9012
tp9023
asS'c2/cause-01'
p9024
(lp9025
(tassS'_4'
p9026
g18
(tRp9027
S'"Shukri"'
p9028
(lp9029
(tassS'_3'
p9030
g18
(tRp9031
S'n/name'
p9032
(lp9033
(tasS'op1'
p9034
(lp9035
(g9026
tp9036
assS'_2'
p9037
g18
(tRp9038
S'-'
(lp9039
(tassS'_1'
p9040
g18
(tRp9041
S'p/person'
p9042
(lp9043
(tasS'wiki'
p9044
(lp9045
(g9037
tp9046
asS'name'
p9047
(lp9048
(g9030
tp9049
assS'_0'
p9050
g18
(tRp9051
g1
(g33
g3
NtRp9052
(dp9053
g36
I0
sg37
S'A3-100'
p9054
sb(lp9055
(g9040
g9019
tp9056
ass(dp9057
g63
I12
sg72
Nsg68
(dp9058
sg77
(dp9059
sg62
I00
sg64
(dp9060
g9050
Nssg66
I0
sg67
Nsg75
(lp9061
g9050
asg70
(dp9062
sg73
(dp9063
sbsS'f'
(lp9064
S'Shukri'
p9065
ag575
aS'.'
aS'Therefore'
p9066
aS','
aS'it'
p9067
aS'is'
p9068
ag982
aS'to'
p9069
aS'sell'
p9070
asg87
I0
sg88
I0
sg89
g433
sg90
(lp9071
sg92
Nsg93
(lp9072
sbI-1
sg1
(g12
g3
NtRp9073
(dp9074
S'e'
g15
(tRp9075
S'_7'
p9076
g18
(tRp9077
S'-'
(lp9078
(tassS'_6'
p9079
g18
(tRp9080
S'polarity'
p9081
(lp9082
(g9076
tp9083
asS'p/possible-01'
p9084
(lp9085
(tassS'_5'
p9086
g18
(tRp9087
S'ARG1-of'
p9088
(lp9089
(g9079
tp9090
asS'u/use-01'
p9091
(lp9092
(tassS'_4'
p9093
g18
(tRp9094
S'ARG1-of'
p9095
(lp9096
(g9086
tp9097
assS'_3'
p9098
g18
(tRp9099
S'm/miss-01'
p9100
(lp9101
(tassS'_2'
p9102
g18
(tRp9103
S's/specialize-01'
p9104
(lp9105
(tassS'_1'
p9106
g18
(tRp9107
S'ARG1-of'
p9108
(lp9109
(g9102
tp9110
a(g9098
tp9111
asS't/thing'
p9112
(lp9113
(tassS'_0'
p9114
g18
(tRp9115
g1
(g33
g3
NtRp9116
(dp9117
g36
I0
sg37
S'A3-100'
p9118
sb(lp9119
(g9106
g9093
tp9120
ass(dp9121
g62
I00
sg63
I12
sg64
(dp9122
g9114
Nssg66
I0
sg67
Nsg68
(dp9123
sg70
(dp9124
S'_4'
p9125
I0
ssg72
Nsg73
(dp9126
I0
g9125
ssg75
(lp9127
g9114
asg77
(dp9128
sbsS'f'
(lp9129
S'missing'
p9130
aS'specializations'
p9131
ag209
aS'useless'
p9132
asg87
I0
sg88
I0
sg89
g204
sg90
(lp9133
sg92
Nsg93
(lp9134
sbI1
sg1
(g12
g3
NtRp9135
(dp9136
S'e'
g15
(tRp9137
S'_3'
p9138
g18
(tRp9139
S's/slight'
p9140
(lp9141
(tassS'_2'
p9142
g18
(tRp9143
S'mod'
p9144
(lp9145
(g9138
tp9146
assS'_1'
p9147
g18
(tRp9148
sS'_0'
p9149
g18
(tRp9150
S'ARG0'
p9151
(lp9152
(g9147
tp9153
asS'ARG1'
p9154
(lp9155
(g9142
tp9156
asS'a/achieve-01'
p9157
(lp9158
(tass(dp9159
g63
I5
sg72
Nsg68
(dp9160
sg77
(dp9161
sg62
I00
sg64
(dp9162
g9149
Nssg66
I0
sg67
Nsg75
(lp9163
g9149
asg70
(dp9164
g9142
I1
sg9147
I0
ssg73
(dp9165
I0
S'_1'
p9166
sI1
S'_2'
p9167
ssbsS'f'
(lp9168
S'achieved'
p9169
aS'slight'
p9170
asg87
I0
sg88
I0
sg89
g575
sg90
(lp9171
sg92
Nsg93
(lp9172
sbI-1
sg1
(g12
g3
NtRp9173
(dp9174
S'e'
g15
(tRp9175
S'_3'
p9176
g18
(tRp9177
S'b/bank'
p9178
(lp9179
(tassS'_2'
p9180
g18
(tRp9181
S'o/old'
p9182
(lp9183
(tassS'_1'
p9184
g18
(tRp9185
S'm/man'
p9186
(lp9187
(tasS'mod'
p9188
(lp9189
(g9180
tp9190
assS'_0'
p9191
g18
(tRp9192
S'ARG0'
p9193
(lp9194
(g9184
tp9195
asS'ARG1'
p9196
(lp9197
(g9176
tp9198
asS'r/rob-01'
p9199
(lp9200
(tass(dp9201
g62
I00
sg63
I7
sg64
(dp9202
g9191
Nssg66
I0
sg67
Nsg68
(dp9203
sg70
(dp9204
g9184
I0
ssg72
Nsg73
(dp9205
I0
S'_1'
p9206
ssg75
(lp9207
g9191
asg77
(dp9208
sbsS'f'
(lp9209
S'Old'
p9210
aS'Man'
p9211
aS'Robs'
p9212
aS'a'
aS'Bank'
p9213
asg87
I0
sg88
I0
sg89
g2990
sg90
(lp9214
sg92
Nsg93
(lp9215
sbI1
sg1
(g12
g3
NtRp9216
(dp9217
S'e'
g15
(tRp9218
S'_3'
p9219
g18
(tRp9220
sS'_2'
p9221
g18
(tRp9222
S'n3/now'
p9223
(lp9224
(tassS'_1'
p9225
g18
(tRp9226
S'b/before'
p9227
(lp9228
(tasS'op1'
p9229
(lp9230
(g9221
tp9231
assS'_0'
p9232
g18
(tRp9233
S'ARG1'
p9234
(lp9235
(g9219
tp9236
asS'd/double-01'
p9237
(lp9238
(tasS'time'
p9239
(lp9240
(g9225
tp9241
ass(dp9242
g63
I6
sg72
Nsg68
(dp9243
sg77
(dp9244
sg62
I00
sg64
(dp9245
g9232
Nssg66
I0
sg67
Nsg75
(lp9246
g9232
asg70
(dp9247
g9219
I0
sg9225
I1
ssg73
(dp9248
I0
S'_3'
p9249
sI1
S'_1'
p9250
ssbsS'f'
(lp9251
S'doubled'
p9252
asg87
I0
sg88
I0
sg89
g577
sg90
(lp9253
sg92
Nsg93
(lp9254
sbI-1
sg1
(g12
g3
NtRp9255
(dp9256
S'e'
g15
(tRp9257
S'_6'
p9258
g18
(tRp9259
S'"Mallouh"'
p9260
(lp9261
(tassS'_5'
p9262
g18
(tRp9263
S'"Rahim"'
p9264
(lp9265
(tassS'_4'
p9266
g18
(tRp9267
S'"Abdul"'
p9268
(lp9269
(tassS'_3'
p9270
g18
(tRp9271
S'n/name'
p9272
(lp9273
(tasS'op1'
p9274
(lp9275
(g9266
tp9276
asS'op2'
p9277
(lp9278
(g9262
tp9279
asS'op3'
p9280
(lp9281
(g9258
tp9282
assS'_2'
p9283
g18
(tRp9284
S'-'
(lp9285
(tassS'_1'
p9286
g18
(tRp9287
S'wiki'
p9288
(lp9289
(g9283
tp9290
asS'p2/person'
p9291
(lp9292
(tasS'name'
p9293
(lp9294
(g9270
tp9295
assS'_0'
p9296
g18
(tRp9297
g1
(g33
g3
NtRp9298
(dp9299
g36
I0
sg37
S'A2-10'
p9300
sb(lp9301
(g9286
tp9302
ass(dp9303
g63
I12
sg72
Nsg68
(dp9304
sg77
(dp9305
sg62
I00
sg64
(dp9306
g9296
Nssg66
I0
sg67
Nsg75
(lp9307
g9296
asg70
(dp9308
sg73
(dp9309
sbsS'f'
(lp9310
S'Abdul'
p9311
aS'Rahim'
p9312
aS'Mallouh'
p9313
aS','
aS'[A2-10]'
p9314
asg87
I0
sg88
I0
sg89
g8269
sg90
(lp9315
sg92
Nsg93
(lp9316
sbI-1
sg1
(g12
g3
NtRp9317
(dp9318
S'e'
g15
(tRp9319
S'_1'
p9320
g18
(tRp9321
g1
(g33
g3
NtRp9322
(dp9323
g36
I1
sg37
S'A1-1'
p9324
sb(lp9325
(tassS'_0'
p9326
g18
(tRp9327
S'unit'
p9328
(lp9329
(g9320
tp9330
asg1
(g33
g3
NtRp9331
(dp9332
g36
I0
sg37
S'A1-1'
p9333
sb(lp9334
(tass(dp9335
g62
I00
sg63
I3
sg64
(dp9336
g9326
Nssg66
I0
sg67
Nsg68
(dp9337
sg70
(dp9338
sg72
Nsg73
(dp9339
sg75
(lp9340
g9326
asg77
(dp9341
sbsS'f'
(lp9342
S'[A1-1]'
p9343
ag9343
asg87
I0
sg88
I0
sg89
g9343
sg90
(lp9344
sg92
Nsg93
(lp9345
sbI-1
sg1
(g12
g3
NtRp9346
(dp9347
S'e'
g15
(tRp9348
S'_2'
p9349
g18
(tRp9350
g1
(g33
g3
NtRp9351
(dp9352
g36
I1
sg37
S'A1-1'
p9353
sb(lp9354
(tassS'_1'
p9355
g18
(tRp9356
S'p/person'
p9357
(lp9358
(tasS'source'
p9359
(lp9360
(g9349
tp9361
assS'_0'
p9362
g18
(tRp9363
S'beneficiary'
p9364
(lp9365
(g9355
tp9366
asg1
(g33
g3
NtRp9367
(dp9368
g36
I0
sg37
S'A1-1'
p9369
sb(lp9370
(tass(dp9371
g62
I00
sg63
I5
sg64
(dp9372
g9362
Nssg66
I0
sg67
Nsg68
(dp9373
sg70
(dp9374
sg72
Nsg73
(dp9375
sg75
(lp9376
g9362
asg77
(dp9377
sbsS'f'
(lp9378
S'[A1-1]'
p9379
aS'for'
p9380
ag9379
asg87
I0
sg88
I0
sg89
g9379
sg90
(lp9381
sg92
Nsg93
(lp9382
sbI-1
sg1
(g12
g3
NtRp9383
(dp9384
S'e'
g15
(tRp9385
S'_1'
p9386
g18
(tRp9387
g1
(g33
g3
NtRp9388
(dp9389
g36
I1
sg37
S'A1-1'
p9390
sb(lp9391
(tassS'_0'
p9392
g18
(tRp9393
g1
(g33
g3
NtRp9394
(dp9395
g36
I0
sg37
S'A2-10'
p9396
sb(lp9397
(g9386
tp9398
ass(dp9399
g62
I00
sg63
I2
sg64
(dp9400
g9392
Nssg66
I0
sg67
Nsg68
(dp9401
sg70
(dp9402
sg72
Nsg73
(dp9403
sg75
(lp9404
g9392
asg77
(dp9405
sbsS'f'
(lp9406
S'[A2-10]'
p9407
ag9343
asg87
I0
sg88
I0
sg89
g9343
sg90
(lp9408
sg92
Nsg93
(lp9409
sbI1
sg1
(g12
g3
NtRp9410
(dp9411
S'e'
g15
(tRp9412
S'_7'
p9413
g18
(tRp9414
S't/this'
p9415
(lp9416
(tassS'_6'
p9417
g18
(tRp9418
g1
(g33
g3
NtRp9419
(dp9420
g36
I0
sg37
S'A1-1'
p9421
sb(lp9422
(tassS'_5'
p9423
g18
(tRp9424
g1
(g33
g3
NtRp9425
(dp9426
g36
I2
sg37
S'A1-1'
p9427
sb(lp9428
(tassS'_4'
p9429
g18
(tRp9430
S'd/direct-02'
p9431
(lp9432
(tassS'_3'
p9433
g18
(tRp9434
S'ARG1-of'
p9435
(lp9436
(g9429
tp9437
asS'l/launch-01'
p9438
(lp9439
(tasg1
(g33
g3
NtRp9440
(dp9441
g36
I1
sg37
S'A2-00'
p9442
sb(lp9443
(g9423
tp9444
assS'_2'
p9445
g18
(tRp9446
S'1'
(lp9447
(tassS'_1'
p9448
g18
(tRp9449
S'o2/ordinal-entity'
p9450
(lp9451
(tasS'value'
p9452
(lp9453
(g9445
tp9454
assS'_0'
p9455
g18
(tRp9456
S'e/enterprise'
p9457
(lp9458
(tasS'ord'
p9459
(lp9460
(g9448
tp9461
asS'ARG1-of'
p9462
(lp9463
(g9433
tp9464
asS'domain'
p9465
(lp9466
(g9413
tp9467
asS'mod'
p9468
(lp9469
(g9417
tp9470
ass(dp9471
g63
I15
sg72
Nsg68
(dp9472
sg77
(dp9473
sg62
I00
sg64
(dp9474
g9455
Nssg66
I0
sg67
Nsg75
(lp9475
g9455
asg70
(dp9476
sg73
(dp9477
sbsS'f'
(lp9478
S'This'
p9479
aS'will'
p9480
aS'be'
p9481
aS'the'
p9482
aS'first'
p9483
ag433
aS'enterprise'
p9484
aS'directly'
p9485
aS'launched'
p9486
ag1463
aS'the'
p9487
ag433
asg87
I0
sg88
I0
sg89
g433
sg90
(lp9488
sg92
Nsg93
(lp9489
sbI-1
sg1
(g12
g3
NtRp9490
(dp9491
S'e'
g15
(tRp9492
S'_8'
p9493
g18
(tRp9494
S'ARG1'
p9495
(lp9496
(S'_4'
tp9497
asS'w2/wash-01'
p9498
(lp9499
(tassS'_7'
p9500
g18
(tRp9501
S'-'
(lp9502
(tassS'_6'
p9503
g18
(tRp9504
S'polarity'
p9505
(lp9506
(g9500
tp9507
asS'ARG1'
p9508
(lp9509
(g9493
tp9510
asS'p2/possible-01'
p9511
(lp9512
(tassS'_5'
p9513
g18
(tRp9514
S'j2/jewelry'
p9515
(lp9516
(tassS'_4'
p9517
g18
(tRp9518
sS'_3'
p9519
g18
(tRp9520
S's4/same-01'
p9521
(lp9522
(tasS'ARG1'
p9523
(lp9524
(g9517
tp9525
asS'ARG2'
p9526
(lp9527
(g9513
tp9528
assS'_2'
p9529
g18
(tRp9530
S'ARG2'
p9531
(lp9532
(g9519
tp9533
asS't/treat-01'
p9534
(lp9535
(tassS'_1'
p9536
g18
(tRp9537
S'o/obligate-01'
p9538
(lp9539
(tasS'ARG2'
p9540
(lp9541
(g9529
tp9542
assS'_0'
p9543
g18
(tRp9544
g1
(g33
g3
NtRp9545
(dp9546
g36
I0
sg37
S'A3-100'
p9547
sb(lp9548
(g9536
g9503
tp9549
ass(dp9550
g63
I15
sg72
Nsg68
(dp9551
sg77
(dp9552
sg62
I00
sg64
(dp9553
g9543
Nssg66
I0
sg67
Nsg75
(lp9554
g9543
asg70
(dp9555
g9517
I0
sg9493
I1
ssg73
(dp9556
I0
S'_4'
p9557
sI1
S'_8'
p9558
ssbsS'f'
(lp9559
S'must'
p9560
aS'be'
p9561
aS'treated'
p9562
aS'the'
p9563
aS'same'
p9564
aS'as'
p9565
aS'jewelry'
p9566
aS','
ag575
aS'cannot'
p9567
aS'be'
p9568
aS'washed'
p9569
asg87
I0
sg88
I0
sg89
g577
sg90
(lp9570
sg92
Nsg93
(lp9571
sbI-1
sg1
(g12
g3
NtRp9572
(dp9573
S'e'
g15
(tRp9574
S'_3'
p9575
g18
(tRp9576
g1
(g33
g3
NtRp9577
(dp9578
g36
I1
sg37
S'A1-0'
p9579
sb(lp9580
(tassS'_2'
p9581
g18
(tRp9582
S'c/court'
p9583
(lp9584
(tassS'_1'
p9585
g18
(tRp9586
S'a2/also'
p9587
(lp9588
(tassS'_0'
p9589
g18
(tRp9590
g1
(g33
g3
NtRp9591
(dp9592
g36
I0
sg37
S'A3-101'
p9593
sb(lp9594
(g9581
g9575
tp9595
asS'mod'
p9596
(lp9597
(g9585
tp9598
ass(dp9599
g62
I00
sg63
I5
sg64
(dp9600
g9589
Nssg66
I0
sg67
Nsg68
(dp9601
sg70
(dp9602
sg72
Nsg73
(dp9603
sg75
(lp9604
g9589
asg77
(dp9605
sbsS'f'
(lp9606
S'Court'
p9607
aS'also'
p9608
ag1062
ag311
asg87
I0
sg88
I0
sg89
g83
sg90
(lp9609
sg92
Nsg93
(lp9610
sbI1
sg1
(g12
g3
NtRp9611
(dp9612
S'e'
g15
(tRp9613
S'_5'
p9614
g18
(tRp9615
sS'_4'
p9616
g18
(tRp9617
S'r2/raid-01'
p9618
(lp9619
(tassS'_3'
p9620
g18
(tRp9621
S'o/overall'
p9622
(lp9623
(tassS'_2'
p9624
g18
(tRp9625
S'ARG1'
p9626
(lp9627
(g9616
tp9628
asS'ARG2'
p9629
(lp9630
(g9614
tp9631
asS'r/result-01'
p9632
(lp9633
(tasS'mod'
p9634
(lp9635
(g9620
tp9636
assS'_1'
p9637
g18
(tRp9638
sS'_0'
p9639
g18
(tRp9640
S'ARG0'
p9641
(lp9642
(g9637
tp9643
asS'ARG1'
p9644
(lp9645
(g9624
tp9646
asS'a/add-01'
p9647
(lp9648
(tass(dp9649
g62
I00
sg63
I9
sg64
(dp9650
g9639
Nssg66
I0
sg67
Nsg68
(dp9651
sg70
(dp9652
g9614
I1
sg9637
I0
ssg72
Nsg73
(dp9653
I0
S'_1'
p9654
sI1
S'_5'
p9655
ssg75
(lp9656
g9639
asg77
(dp9657
sbsS'f'
(lp9658
S'added'
p9659
aS','
aS'"'
aS'The'
p9660
aS'overall'
p9661
aS'result'
p9662
aS'of'
p9663
aS'the'
p9664
aS'raid'
p9665
asg87
I0
sg88
I0
sg89
g209
sg90
(lp9666
sg92
Nsg93
(lp9667
sbI1
sg1
(g12
g3
NtRp9668
(dp9669
S'e'
g15
(tRp9670
S'_3'
p9671
g18
(tRp9672
S'g2/globe'
p9673
(lp9674
(tassS'_2'
p9675
g18
(tRp9676
S'p3/prosper-01'
p9677
(lp9678
(tassS'_1'
p9679
g18
(tRp9680
S's2/scene'
p9681
(lp9682
(tasS'mod'
p9683
(lp9684
(g9675
tp9685
assS'_0'
p9686
g18
(tRp9687
S'ARG0'
p9688
(lp9689
(g9679
tp9690
asS'e2/emerge-01'
p9691
(lp9692
(tasS'mod'
p9693
(lp9694
(g9671
tp9695
ass(dp9696
g63
I7
sg72
Nsg68
(dp9697
sg77
(dp9698
sg62
I00
sg64
(dp9699
g9686
Nssg66
I0
sg67
Nsg75
(lp9700
g9686
asg70
(dp9701
sg73
(dp9702
sbsS'f'
(lp9703
S'scene'
p9704
aS'of'
p9705
aS'prosperity'
p9706
aS'is'
p9707
aS'emerging'
p9708
aS'globally'
p9709
asg87
I0
sg88
I0
sg89
g6495
sg90
(lp9710
sg92
Nsg93
(lp9711
sbI-1
sg1
(g12
g3
NtRp9712
(dp9713
S'e'
g15
(tRp9714
S'_5'
p9715
g18
(tRp9716
S'imperative'
p9717
(lp9718
(tassS'_4'
p9719
g18
(tRp9720
S'o/out'
p9721
(lp9722
(tassS'_3'
p9723
g18
(tRp9724
S'y/you'
p9725
(lp9726
(tassS'_2'
p9727
g18
(tRp9728
S'poss'
p9729
(lp9730
(g9723
tp9731
asS'l/life'
p9732
(lp9733
(tassS'_1'
p9734
g18
(tRp9735
S'w/way'
p9736
(lp9737
(tasS'direction'
p9738
(lp9739
(g9719
tp9740
asS'purpose'
p9741
(lp9742
(g9727
tp9743
assS'_0'
p9744
g18
(tRp9745
S'ARG0'
p9746
(lp9747
(S'_3'
tp9748
asS'f/find-01'
p9749
(lp9750
(tasS'mode'
p9751
(lp9752
(g9715
tp9753
asS'ARG1'
p9754
(lp9755
(g9734
tp9756
ass(dp9757
g63
I12
sg72
Nsg68
(dp9758
sg77
(dp9759
sg62
I00
sg64
(dp9760
g9744
Nssg66
I0
sg67
Nsg75
(lp9761
g9744
asg70
(dp9762
sg73
(dp9763
sbsS'f'
(lp9764
S'Find'
p9765
aS'a'
aS'way'
p9766
aS'out'
p9767
aS'for'
p9768
aS'your'
p9769
aS'own'
p9770
aS'life'
p9771
asg87
I0
sg88
I0
sg89
g8269
sg90
(lp9772
sg92
Nsg93
(lp9773
sbI-1
sg1
(g12
g3
NtRp9774
(dp9775
S'e'
g15
(tRp9776
S'_3'
p9777
g18
(tRp9778
g1
(g33
g3
NtRp9779
(dp9780
g36
I0
sg37
S'A1-1'
p9781
sb(lp9782
(tassS'_2'
p9783
g18
(tRp9784
S'd/direct-02'
p9785
(lp9786
(tassS'_1'
p9787
g18
(tRp9788
S'ARG1-of'
p9789
(lp9790
(g9783
tp9791
asS'l/launch-01'
p9792
(lp9793
(tassS'_0'
p9794
g18
(tRp9795
S'e/enterprise'
p9796
(lp9797
(tasS'ARG1-of'
p9798
(lp9799
(g9787
tp9800
asS'mod'
p9801
(lp9802
(g9777
tp9803
ass(dp9804
g62
I00
sg63
I7
sg64
(dp9805
g9794
Nssg66
I0
sg67
Nsg68
(dp9806
sg70
(dp9807
g9787
I0
ssg72
Nsg73
(dp9808
I0
S'_1'
p9809
ssg75
(lp9810
g9794
asg77
(dp9811
sbsS'f'
(lp9812
g83
aS'enterprise'
p9813
aS'directly'
p9814
aS'launched'
p9815
asg87
I0
sg88
I0
sg89
g2990
sg90
(lp9816
sg92
Nsg93
(lp9817
sbI1
sg1
(g12
g3
NtRp9818
(dp9819
S'e'
g15
(tRp9820
S'_8'
p9821
g18
(tRp9822
S'g2/govern-01'
p9823
(lp9824
(tassS'_7'
p9825
g18
(tRp9826
S'"Beirut"'
p9827
(lp9828
(tassS'_6'
p9829
g18
(tRp9830
S'n5/name'
p9831
(lp9832
(tasS'op1'
p9833
(lp9834
(g9825
tp9835
assS'_5'
p9836
g18
(tRp9837
S'"Beirut"'
p9838
(lp9839
(tassS'_4'
p9840
g18
(tRp9841
S'wiki'
p9842
(lp9843
(g9836
tp9844
asS'c4/city'
p9845
(lp9846
(tasS'name'
p9847
(lp9848
(g9829
tp9849
assS'_3'
p9850
g18
(tRp9851
S'g/government-organization'
p9852
(lp9853
(tasS'location'
p9854
(lp9855
(g9840
tp9856
asS'ARG0-of'
p9857
(lp9858
(g9821
tp9859
assS'_2'
p9860
g18
(tRp9861
g1
(g33
g3
NtRp9862
(dp9863
g36
I0
sg37
S'A1-1'
p9864
sb(lp9865
(tassS'_1'
p9866
g18
(tRp9867
g1
(g33
g3
NtRp9868
(dp9869
g36
I1
sg37
S'A2-10'
p9870
sb(lp9871
(g9860
tp9872
assS'_0'
p9873
g18
(tRp9874
g1
(g33
g3
NtRp9875
(dp9876
g36
I2
sg37
S'A3-100'
p9877
sb(lp9878
(g9866
g9850
tp9879
ass(dp9880
g63
I14
sg72
Nsg68
(dp9881
sg77
(dp9882
sg62
I00
sg64
(dp9883
g9873
Nssg66
I0
sg67
Nsg75
(lp9884
g9873
asg70
(dp9885
sg73
(dp9886
sbsS'f'
(lp9887
g433
ag982
ag575
aS'government'
p9888
aS'in'
p9889
aS'Beirut'
p9890
asg87
I0
sg88
I0
sg89
g433
sg90
(lp9891
sg92
Nsg93
(lp9892
sbI-1
sg1
(g12
g3
NtRp9893
(dp9894
S'e'
g15
(tRp9895
S'_4'
p9896
g18
(tRp9897
S'a2/antibiotic'
p9898
(lp9899
(tassS'_3'
p9900
g18
(tRp9901
S's/some'
p9902
(lp9903
(tassS'_2'
p9904
g18
(tRp9905
S'mod'
p9906
(lp9907
(g9900
tp9908
assS'_1'
p9909
g18
(tRp9910
g1
(g33
g3
NtRp9911
(dp9912
g36
I0
sg37
S'A3-110'
p9913
sb(lp9914
(g9904
g9896
tp9915
assS'_0'
p9916
g18
(tRp9917
S'c2/contrast-01'
p9918
(lp9919
(tasS'ARG2'
p9920
(lp9921
(g9909
tp9922
ass(dp9923
g63
I6
sg72
Nsg68
(dp9924
sg77
(dp9925
sg62
I00
sg64
(dp9926
g9916
Nssg66
I0
sg67
Nsg75
(lp9927
g9916
asg70
(dp9928
sg73
(dp9929
sbsS'f'
(lp9930
S'However'
p9931
aS','
aS'some'
p9932
ag3544
aS'antibiotics'
p9933
asg87
I0
sg88
I0
sg89
g433
sg90
(lp9934
sg92
Nsg93
(lp9935
sbI-1
sg1
(g12
g3
NtRp9936
(dp9937
S'e'
g15
(tRp9938
S'_6'
p9939
g18
(tRp9940
S'y3/year'
p9941
(lp9942
(tassS'_5'
p9943
g18
(tRp9944
S'unit'
p9945
(lp9946
(g9939
tp9947
assS'_4'
p9948
g18
(tRp9949
S'-'
(lp9950
(tassS'_3'
p9951
g18
(tRp9952
S'polarity'
p9953
(lp9954
(g9948
tp9955
asg1
(g33
g3
NtRp9956
(dp9957
g36
I0
sg37
S'A2-10'
p9958
sb(lp9959
(g9943
tp9960
assS'_2'
p9961
g18
(tRp9962
sS'_1'
p9963
g18
(tRp9964
sS'_0'
p9965
g18
(tRp9966
S'ARG0'
p9967
(lp9968
(g9963
tp9969
asS'f/find-01'
p9970
(lp9971
(tasS'ARG1-of'
p9972
(lp9973
(g9951
tp9974
asS'ARG1'
p9975
(lp9976
(g9961
tp9977
ass(dp9978
g62
I00
sg63
I9
sg64
(dp9979
g9965
Nssg66
I0
sg67
Nsg68
(dp9980
sg70
(dp9981
S'_5'
p9982
I2
sg9961
I1
sg9963
I0
ssg72
Nsg73
(dp9983
I0
S'_1'
p9984
sI1
S'_2'
p9985
sI2
g9982
ssg75
(lp9986
g9965
asg77
(dp9987
sbsS'f'
(lp9988
S"n't"
p9989
ag204
aS'years'
p9990
aS'found'
p9991
asg87
I0
sg88
I0
sg89
g7984
sg90
(lp9992
sg92
Nsg93
(lp9993
sbI1
sg1
(g12
g3
NtRp9994
(dp9995
S'e'
g15
(tRp9996
S'_6'
p9997
g18
(tRp9998
sS'_5'
p9999
g18
(tRp10000
S'11'
p10001
(lp10002
(tassS'_4'
p10003
g18
(tRp10004
S'm/minor'
p10005
(lp10006
(tasS'quant'
p10007
(lp10008
(g9999
tp10009
assS'_3'
p10010
g18
(tRp10011
S'6'
(lp10012
(tassS'_2'
p10013
g18
(tRp10014
S'quant'
p10015
(lp10016
(g10010
tp10017
asS'w/woman'
p10018
(lp10019
(tassS'_1'
p10020
g18
(tRp10021
g1
(g33
g3
NtRp10022
(dp10023
g36
I0
sg37
S'A3-100'
p10024
sb(lp10025
(g10013
g10003
tp10026
assS'_0'
p10027
g18
(tRp10028
S'i/include-01'
p10029
(lp10030
(tasS'ARG1'
p10031
(lp10032
(g10020
tp10033
asS'ARG2'
p10034
(lp10035
(g9997
tp10036
ass(dp10037
g62
I00
sg63
I10
sg64
(dp10038
g10027
Nssg66
I0
sg67
Nsg68
(dp10039
sg70
(dp10040
g9997
I0
ssg72
Nsg73
(dp10041
I0
S'_6'
p10042
ssg75
(lp10043
g10027
asg77
(dp10044
sbsS'f'
(lp10045
S'included'
p10046
aS'6'
aS'women'
p10047
ag209
aS'11'
p10048
aS'minors'
p10049
asg87
I0
sg88
I0
sg89
g204
sg90
(lp10050
sg92
Nsg93
(lp10051
sbI1
sg1
(g12
g3
NtRp10052
(dp10053
S'e'
g15
(tRp10054
S'_6'
p10055
g18
(tRp10056
S'o/only'
p10057
(lp10058
(tassS'_5'
p10059
g18
(tRp10060
S't/this'
p10061
(lp10062
(tassS'_4'
p10063
g18
(tRp10064
S'b/begin-01'
p10065
(lp10066
(tasS'ARG2'
p10067
(lp10068
(g10059
tp10069
asS'mod'
p10070
(lp10071
(g10055
tp10072
assS'_3'
p10073
g18
(tRp10074
S'ARG0'
p10075
(lp10076
(S'_2'
tp10077
asS'ARG1'
p10078
(lp10079
(g10063
tp10080
asS'c2/confirm-01'
p10081
(lp10082
(tassS'_2'
p10083
g18
(tRp10084
g1
(g33
g3
NtRp10085
(dp10086
g36
I0
sg37
S'A1-1'
p10087
sb(lp10088
(tassS'_1'
p10089
g18
(tRp10090
g1
(g33
g3
NtRp10091
(dp10092
g36
I1
sg37
S'A2-10'
p10093
sb(lp10094
(g10083
tp10095
assS'_0'
p10096
g18
(tRp10097
S'a/and'
p10098
(lp10099
(tasS'op1'
p10100
(lp10101
(g10089
tp10102
asS'op2'
p10103
(lp10104
(g10073
tp10105
ass(dp10106
g63
I13
sg72
Nsg68
(dp10107
sg77
(dp10108
sg62
I00
sg64
(dp10109
g10096
Nssg66
I0
sg67
Nsg75
(lp10110
g10096
asg70
(dp10111
sg73
(dp10112
sbsS'f'
(lp10113
g433
ag982
aS'and'
p10114
aS'confirmed'
p10115
aS'that'
p10116
aS'this'
p10117
aS'would'
p10118
aS'only'
p10119
aS'be'
p10120
aS'the'
p10121
aS'beginning'
p10122
asg87
I0
sg88
I0
sg89
g433
sg90
(lp10123
sg92
Nsg93
(lp10124
sbI-1
sg1
(g12
g3
NtRp10125
(dp10126
S'e'
g15
(tRp10127
S'_7'
p10128
g18
(tRp10129
S'q/qualify-02'
p10130
(lp10131
(tassS'_6'
p10132
g18
(tRp10133
S'ARG2-of'
p10134
(lp10135
(g10128
tp10136
asS't2/thing'
p10137
(lp10138
(tassS'_5'
p10139
g18
(tRp10140
g1
(g33
g3
NtRp10141
(dp10142
g36
I1
sg37
S'A2-10'
p10143
sb(lp10144
(g10132
tp10145
assS'_4'
p10146
g18
(tRp10147
S'ARG1'
p10148
(lp10149
(g10139
tp10150
asS'i/include-91'
p10151
(lp10152
(tassS'_3'
p10153
g18
(tRp10154
g1
(g33
g3
NtRp10155
(dp10156
g36
I0
sg37
S'A1-1'
p10157
sb(lp10158
(tassS'_2'
p10159
g18
(tRp10160
S'w2/woman'
p10161
(lp10162
(tasS'mod'
p10163
(lp10164
(g10153
tp10165
assS'_1'
p10166
g18
(tRp10167
S'ARG0'
p10168
(lp10169
(g10159
tp10170
asS'w/work-01'
p10171
(lp10172
(tassS'_0'
p10173
g18
(tRp10174
S'ARG1-of'
p10175
(lp10176
(g10166
tp10177
asS'f/field'
p10178
(lp10179
(tasS'ARG2-of'
p10180
(lp10181
(g10146
tp10182
ass(dp10183
g63
I14
sg72
Nsg68
(dp10184
sg77
(dp10185
sg62
I00
sg64
(dp10186
g10173
Nssg66
I0
sg67
Nsg75
(lp10187
g10173
asg70
(dp10188
sg73
(dp10189
sbsS'f'
(lp10190
S'Fields'
p10191
aS'of'
p10192
aS'work'
p10193
aS'for'
p10194
ag153
aS'woman'
p10195
aS'('
ag397
aS'qualifications'
p10196
asg87
I0
sg88
I0
sg89
g153
sg90
(lp10197
sg92
Nsg93
(lp10198
sbI-1
sg1
(g12
g3
NtRp10199
(dp10200
S'e'
g15
(tRp10201
S'_7'
p10202
g18
(tRp10203
g1
(g33
g3
NtRp10204
(dp10205
g36
I1
sg37
S'A1-1'
p10206
sb(lp10207
(tassS'_6'
p10208
g18
(tRp10209
S'location'
p10210
(lp10211
(g10202
tp10212
assS'_5'
p10213
g18
(tRp10214
g1
(g33
g3
NtRp10215
(dp10216
g36
I0
sg37
S'A2-11'
p10217
sb(lp10218
(g10208
tp10219
assS'_4'
p10220
g18
(tRp10221
S'"Damascus"'
p10222
(lp10223
(tassS'_3'
p10224
g18
(tRp10225
S'n4/name'
p10226
(lp10227
(tasS'op1'
p10228
(lp10229
(g10220
tp10230
assS'_2'
p10231
g18
(tRp10232
S'"Damascus"'
p10233
(lp10234
(tassS'_1'
p10235
g18
(tRp10236
S'wiki'
p10237
(lp10238
(g10231
tp10239
asS'c3/city'
p10240
(lp10241
(tasS'name'
p10242
(lp10243
(g10224
tp10244
assS'_0'
p10245
g18
(tRp10246
S's2/support-01'
p10247
(lp10248
(tasS'ARG0'
p10249
(lp10250
(g10235
tp10251
asS'ARG1'
p10252
(lp10253
(g10213
tp10254
ass(dp10255
g62
I00
sg63
I13
sg64
(dp10256
g10245
Nssg66
I0
sg67
Nsg68
(dp10257
sg70
(dp10258
sg72
Nsg73
(dp10259
sg75
(lp10260
g10245
asg77
(dp10261
sbsS'f'
(lp10262
S'Damascus'
p10263
aS'supports'
p10264
aS'a'
ag2990
aS'"'
aS'in'
p10265
ag83
asg87
I0
sg88
I0
sg89
g83
sg90
(lp10266
sg92
Nsg93
(lp10267
sbI1
sg1
(g12
g3
NtRp10268
(dp10269
S'e'
g15
(tRp10270
S'_6'
p10271
g18
(tRp10272
S'j/just'
p10273
(lp10274
(tassS'_5'
p10275
g18
(tRp10276
S'o2/ordinary'
p10277
(lp10278
(tassS'_4'
p10279
g18
(tRp10280
S'mod'
p10281
(lp10282
(g10275
tp10283
assS'_3'
p10284
g18
(tRp10285
S'ARG2'
p10286
(lp10287
(g10279
tp10288
asS'r/resemble-01'
p10289
(lp10290
(tassS'_2'
p10291
g18
(tRp10292
S'ARG1-of'
p10293
(lp10294
(g10284
tp10295
assS'_1'
p10296
g18
(tRp10297
S'ARG1'
p10298
(lp10299
(g10291
tp10300
asS'w/wear-01'
p10301
(lp10302
(tasS'mod'
p10303
(lp10304
(g10271
tp10305
assS'_0'
p10306
g18
(tRp10307
S'ARG1'
p10308
(lp10309
(g10296
tp10310
asS'p/possible-01'
p10311
(lp10312
(tass(dp10313
g63
I11
sg72
Nsg68
(dp10314
sg77
(dp10315
sg62
I00
sg64
(dp10316
g10306
Nssg66
I0
sg67
Nsg75
(lp10317
g10306
asg70
(dp10318
g10279
I1
sg10291
I0
ssg73
(dp10319
I0
S'_2'
p10320
sI1
S'_4'
p10321
ssbsS'f'
(lp10322
S'can'
p10323
aS'be'
p10324
aS'worn'
p10325
aS'just'
p10326
aS'like'
p10327
aS'ordinary'
p10328
asg87
I0
sg88
I0
sg89
g575
sg90
(lp10329
sg92
Nsg93
(lp10330
sbI-1
sg1
(g12
g3
NtRp10331
(dp10332
S'e'
g15
(tRp10333
S'_5'
p10334
g18
(tRp10335
sS'_4'
p10336
g18
(tRp10337
S'ARG1'
p10338
(lp10339
(g10334
tp10340
asS'r/resist-01'
p10341
(lp10342
(tassS'_3'
p10343
g18
(tRp10344
S'ARG0-of'
p10345
(lp10346
(g10336
tp10347
asS'g2/gene'
p10348
(lp10349
(tassS'_2'
p10350
g18
(tRp10351
S't2/this'
p10352
(lp10353
(tassS'_1'
p10354
g18
(tRp10355
S'mod'
p10356
(lp10357
(g10350
tp10358
asS'p2/potatoe'
p10359
(lp10360
(tassS'_0'
p10361
g18
(tRp10362
S'ARG0'
p10363
(lp10364
(g10354
tp10365
asS'ARG1'
p10366
(lp10367
(g10343
tp10368
asS'c3/contain-01'
p10369
(lp10370
(tass(dp10371
g62
I00
sg63
I10
sg64
(dp10372
g10361
Nssg66
I0
sg67
Nsg68
(dp10373
sg70
(dp10374
g10334
I0
ssg72
Nsg73
(dp10375
I0
S'_5'
p10376
ssg75
(lp10377
g10361
asg77
(dp10378
sbsS'f'
(lp10379
S'these'
p10380
aS'potatoes'
p10381
aS'contain'
p10382
aS'a'
aS'gene'
p10383
aS'that'
p10384
aS'is'
p10385
aS'resistant'
p10386
aS'to'
p10387
asg87
I0
sg88
I0
sg89
g204
sg90
(lp10388
sg92
Nsg93
(lp10389
sbI1
sg1
(g12
g3
NtRp10390
(dp10391
S'e'
g15
(tRp10392
S'_5'
p10393
g18
(tRp10394
sS'_4'
p10395
g18
(tRp10396
sS'_3'
p10397
g18
(tRp10398
S'ARG0'
p10399
(lp10400
(g10395
tp10401
asS'ARG1'
p10402
(lp10403
(g10393
tp10404
asS's3/support-01'
p10405
(lp10406
(tassS'_2'
p10407
g18
(tRp10408
g1
(g33
g3
NtRp10409
(dp10410
g36
I1
sg37
S'A2-11'
p10411
sb(lp10412
(S'_4'
tp10413
asS'purpose'
p10414
(lp10415
(g10397
tp10416
assS'_1'
p10417
g18
(tRp10418
sS'_0'
p10419
g18
(tRp10420
g1
(g33
g3
NtRp10421
(dp10422
g36
I0
sg37
S'A3-100'
p10423
sb(lp10424
(g10417
g10407
tp10425
ass(dp10426
g63
I6
sg72
Nsg68
(dp10427
sg77
(dp10428
sg62
I00
sg64
(dp10429
g10419
Nssg66
I0
sg67
Nsg75
(lp10430
g10419
asg70
(dp10431
g10393
I1
sS'_1'
p10432
I0
ssg73
(dp10433
I0
g10432
sI1
S'_5'
p10434
ssbsS'f'
(lp10435
g575
aS'the'
p10436
ag578
aS'to'
p10437
aS'support'
p10438
asg87
I0
sg88
I0
sg89
g575
sg90
(lp10439
sg92
Nsg93
(lp10440
sbI-1
sg1
(g12
g3
NtRp10441
(dp10442
S'e'
g15
(tRp10443
S'_2'
p10444
g18
(tRp10445
g1
(g33
g3
NtRp10446
(dp10447
g36
I1
sg37
S'A1-1'
p10448
sb(lp10449
(tassS'_1'
p10450
g18
(tRp10451
g1
(g33
g3
NtRp10452
(dp10453
g36
I0
sg37
S'A1-1'
p10454
sb(lp10455
(tassS'_0'
p10456
g18
(tRp10457
S'ARG0'
p10458
(lp10459
(g10450
tp10460
asS's/say-01'
p10461
(lp10462
(tasS'ARG1'
p10463
(lp10464
(g10444
tp10465
ass(dp10466
g62
I00
sg63
I5
sg64
(dp10467
g10456
Nssg66
I0
sg67
Nsg68
(dp10468
sg70
(dp10469
sg72
Nsg73
(dp10470
sg75
(lp10471
g10456
asg77
(dp10472
sbsS'f'
(lp10473
S'[A1-1]'
p10474
aS'said'
p10475
aS'that'
p10476
ag10474
asg87
I0
sg88
I0
sg89
g10474
sg90
(lp10477
sg92
Nsg93
(lp10478
sbI2
sg1
(g12
g3
NtRp10479
(dp10480
S'e'
g15
(tRp10481
S'_8'
p10482
g18
(tRp10483
S'e/estimate-01'
p10484
(lp10485
(tassS'_7'
p10486
g18
(tRp10487
S'n3/next'
p10488
(lp10489
(tassS'_6'
p10490
g18
(tRp10491
S'y/year'
p10492
(lp10493
(tasS'mod'
p10494
(lp10495
(g10486
tp10496
assS'_5'
p10497
g18
(tRp10498
S'ARG1-of'
p10499
(lp10500
(g10482
tp10501
asS'c4/complete-01'
p10502
(lp10503
(tasS'time'
p10504
(lp10505
(g10490
tp10506
assS'_4'
p10507
g18
(tRp10508
S'ARG1-of'
p10509
(lp10510
(g10497
tp10511
assS'_3'
p10512
g18
(tRp10513
S'n4/numerous'
p10514
(lp10515
(tassS'_2'
p10516
g18
(tRp10517
S'mod'
p10518
(lp10519
(g10512
tp10520
assS'_1'
p10521
g18
(tRp10522
S'ARG2'
p10523
(lp10524
(g10516
tp10525
asS'i2/include-91'
p10526
(lp10527
(tassS'_0'
p10528
g18
(tRp10529
S'ARG1-of'
p10530
(lp10531
(g10521
tp10532
asS'domain'
p10533
(lp10534
(g10507
tp10535
asS'i/item'
p10536
(lp10537
(tass(dp10538
g63
I15
sg72
Nsg68
(dp10539
sg77
(dp10540
sg62
I00
sg64
(dp10541
g10528
Nssg66
I0
sg67
Nsg75
(lp10542
g10528
asg70
(dp10543
g10507
I1
sg10516
I0
ssg73
(dp10544
I0
S'_2'
p10545
sI1
S'_4'
p10546
ssbsS'f'
(lp10547
S'estimated'
p10548
aS'to'
p10549
aS'be'
p10550
aS'completed'
p10551
aS'next'
p10552
aS'year'
p10553
aS','
aS'is'
p10554
aS'one'
p10555
aS'item'
p10556
aS'among'
p10557
aS'numerous'
p10558
asg87
I0
sg88
I0
sg89
g575
sg90
(lp10559
sg92
Nsg93
(lp10560
sbI-1
sg1
(g12
g3
NtRp10561
(dp10562
S'e'
g15
(tRp10563
S'_3'
p10564
g18
(tRp10565
S'r2/raid-01'
p10566
(lp10567
(tassS'_2'
p10568
g18
(tRp10569
S'o/overall'
p10570
(lp10571
(tassS'_1'
p10572
g18
(tRp10573
S'a2/annihilate-01'
p10574
(lp10575
(tassS'_0'
p10576
g18
(tRp10577
S'ARG1'
p10578
(lp10579
(g10564
tp10580
asg1
(g33
g3
NtRp10581
(dp10582
g36
I0
sg37
S'A2-10'
p10583
sb(lp10584
(g10572
tp10585
asS'mod'
p10586
(lp10587
(g10568
tp10588
ass(dp10589
g63
I6
sg72
Nsg68
(dp10590
sg77
(dp10591
sg62
I00
sg64
(dp10592
g10576
Nssg66
I0
sg67
Nsg75
(lp10593
g10576
asg70
(dp10594
S'_1'
p10595
I0
ssg73
(dp10596
I0
g10595
ssbsS'f'
(lp10597
S'overall'
p10598
ag982
aS'of'
p10599
aS'the'
p10600
aS'raid'
p10601
aS'was'
p10602
aS'the'
p10603
aS'annihilation'
p10604
asg87
I0
sg88
I0
sg89
g578
sg90
(lp10605
sg92
Nsg93
(lp10606
sbI-1
sg1
(g12
g3
NtRp10607
(dp10608
S'e'
g15
(tRp10609
S'_5'
p10610
g18
(tRp10611
sS'_4'
p10612
g18
(tRp10613
S'c/cooperate-01'
p10614
(lp10615
(tassS'_3'
p10616
g18
(tRp10617
S'domain'
p10618
(lp10619
(g10612
tp10620
asS'i/importance'
p10621
(lp10622
(tassS'_2'
p10623
g18
(tRp10624
S's/stress-01'
p10625
(lp10626
(tasS'ARG1'
p10627
(lp10628
(g10616
tp10629
assS'_1'
p10630
g18
(tRp10631
S'c2/contrast-01'
p10632
(lp10633
(tasS'ARG2'
p10634
(lp10635
(g10623
tp10636
assS'_0'
p10637
g18
(tRp10638
S'snt2'
p10639
(lp10640
(g10610
tp10641
asS'snt1'
p10642
(lp10643
(g10630
tp10644
asS'm/multi-sentence'
p10645
(lp10646
(tass(dp10647
g62
I00
sg63
I10
sg64
(dp10648
g10637
Nssg66
I0
sg67
Nsg68
(dp10649
sg70
(dp10650
g10610
I1
sg10612
I0
ssg72
Nsg73
(dp10651
I0
S'_4'
p10652
sI1
S'_5'
p10653
ssg75
(lp10654
g10637
asg77
(dp10655
sbsS'f'
(lp10656
S'stressed'
p10657
aS'the'
p10658
aS'importance'
p10659
aS'of'
p10660
aS'the'
p10661
aS'cooperation'
p10662
asg87
I0
sg88
I0
sg89
g4095
sg90
(lp10663
sg92
Nsg93
(lp10664
sbI1
sg1
(g12
g3
NtRp10665
(dp10666
S'e'
g15
(tRp10667
S'_3'
p10668
g18
(tRp10669
sS'_2'
p10670
g18
(tRp10671
S'p/perform-02'
p10672
(lp10673
(tasg1
(g33
g3
NtRp10674
(dp10675
g36
I0
sg37
S'A2-00'
p10676
sb(lp10677
(g10668
tp10678
assS'_1'
p10679
g18
(tRp10680
S'ARG0'
p10681
(lp10682
(g10670
tp10683
asS'm/miss-01'
p10684
(lp10685
(tassS'_0'
p10686
g18
(tRp10687
S'ARG1-of'
p10688
(lp10689
(g10679
tp10690
asS'f/formula'
p10691
(lp10692
(tass(dp10693
g62
I00
sg63
I6
sg64
(dp10694
g10686
Nssg66
I0
sg67
Nsg68
(dp10695
sg70
(dp10696
S'_3'
p10697
I0
ssg72
Nsg73
(dp10698
I0
g10697
ssg75
(lp10699
g10686
asg77
(dp10700
sbsS'f'
(lp10701
S'missing'
p10702
aS'formula'
p10703
aS'in'
p10704
aS'the'
p10705
aS'performance'
p10706
ag3991
asg87
I0
sg88
I0
sg89
g204
sg90
(lp10707
sg92
Nsg93
(lp10708
sbI1
sg1
(g12
g3
NtRp10709
(dp10710
S'e'
g15
(tRp10711
S'_3'
p10712
g18
(tRp10713
S'g2/gene'
p10714
(lp10715
(tassS'_2'
p10716
g18
(tRp10717
S't2/this'
p10718
(lp10719
(tassS'_1'
p10720
g18
(tRp10721
S'p2/potatoe'
p10722
(lp10723
(tasS'mod'
p10724
(lp10725
(g10716
tp10726
assS'_0'
p10727
g18
(tRp10728
S'ARG0'
p10729
(lp10730
(g10720
tp10731
asS'ARG1'
p10732
(lp10733
(g10712
tp10734
asS'c3/contain-01'
p10735
(lp10736
(tass(dp10737
g63
I7
sg72
Nsg68
(dp10738
sg77
(dp10739
sg62
I00
sg64
(dp10740
g10727
Nssg66
I0
sg67
Nsg75
(lp10741
g10727
asg70
(dp10742
g10712
I0
ssg73
(dp10743
I0
S'_3'
p10744
ssbsS'f'
(lp10745
S'these'
p10746
aS'potatoes'
p10747
aS'contain'
p10748
aS'a'
aS'gene'
p10749
asg87
I0
sg88
I0
sg89
g578
sg90
(lp10750
sg92
Nsg93
(lp10751
sbI-1
sg1
(g12
g3
NtRp10752
(dp10753
S'e'
g15
(tRp10754
S'_3'
p10755
g18
(tRp10756
sS'_2'
p10757
g18
(tRp10758
S'6'
(lp10759
(tassS'_1'
p10760
g18
(tRp10761
S'o/ordinal-entity'
p10762
(lp10763
(tasS'value'
p10764
(lp10765
(g10757
tp10766
assS'_0'
p10767
g18
(tRp10768
S'ord'
p10769
(lp10770
(g10760
tp10771
asS't/tour'
p10772
(lp10773
(tasS'subevent-of'
p10774
(lp10775
(g10755
tp10776
ass(dp10777
g62
I00
sg63
I6
sg64
(dp10778
g10767
Nssg66
I0
sg67
Nsg68
(dp10779
sg70
(dp10780
g10755
I0
ssg72
Nsg73
(dp10781
I0
S'_3'
p10782
ssg75
(lp10783
g10767
asg77
(dp10784
sbsS'f'
(lp10785
S'sixth'
p10786
aS'Tour'
p10787
aS'of'
p10788
asg87
I0
sg88
I0
sg89
g204
sg90
(lp10789
sg92
Nsg93
(lp10790
sbI1
sg1
(g12
g3
NtRp10791
(dp10792
S'e'
g15
(tRp10793
S'_8'
p10794
g18
(tRp10795
S'y/year'
p10796
(lp10797
(tassS'_7'
p10798
g18
(tRp10799
S'36'
p10800
(lp10801
(tassS'_6'
p10802
g18
(tRp10803
S'quant'
p10804
(lp10805
(g10798
tp10806
asS't/temporal-quantity'
p10807
(lp10808
(tasS'unit'
p10809
(lp10810
(g10794
tp10811
assS'_5'
p10812
g18
(tRp10813
S'1'
(lp10814
(tassS'_4'
p10815
g18
(tRp10816
S'y3/year'
p10817
(lp10818
(tassS'_3'
p10819
g18
(tRp10820
S't2/temporal-quantity'
p10821
(lp10822
(tasS'quant'
p10823
(lp10824
(g10812
tp10825
asS'unit'
p10826
(lp10827
(g10815
tp10828
assS'_2'
p10829
g18
(tRp10830
S'a/almost'
p10831
(lp10832
(tasS'op1'
p10833
(lp10834
(g10819
tp10835
assS'_1'
p10836
g18
(tRp10837
S'ARG3'
p10838
(lp10839
(g10829
tp10840
asS'r/rate-entity-91'
p10841
(lp10842
(tassS'_0'
p10843
g18
(tRp10844
S'duration'
p10845
(lp10846
(g10802
tp10847
asS'frequency'
p10848
(lp10849
(g10836
tp10850
ass(dp10851
g62
I00
sg63
I16
sg64
(dp10852
g10843
Nssg66
I0
sg67
Nsg68
(dp10853
sg70
(dp10854
sg72
Nsg73
(dp10855
sg75
(lp10856
g10843
asg77
(dp10857
sbsS'f'
(lp10858
S'almost'
p10859
aS'every'
p10860
aS'year'
p10861
aS'over'
p10862
aS'a'
aS'period'
p10863
aS'of'
p10864
aS'36'
p10865
aS'years'
p10866
asg87
I0
sg88
I0
sg89
g311
sg90
(lp10867
sg92
Nsg93
(lp10868
sbI1
sg1
(g12
g3
NtRp10869
(dp10870
S'e'
g15
(tRp10871
S'_8'
p10872
g18
(tRp10873
sS'_7'
p10874
g18
(tRp10875
S'"Xueli"'
p10876
(lp10877
(tassS'_6'
p10878
g18
(tRp10879
S'"Lu"'
p10880
(lp10881
(tassS'_5'
p10882
g18
(tRp10883
S'n/name'
p10884
(lp10885
(tasS'op1'
p10886
(lp10887
(g10878
tp10888
asS'op2'
p10889
(lp10890
(g10874
tp10891
assS'_4'
p10892
g18
(tRp10893
S'-'
(lp10894
(tassS'_3'
p10895
g18
(tRp10896
S'wiki'
p10897
(lp10898
(g10892
tp10899
asS'p2/person'
p10900
(lp10901
(tasS'name'
p10902
(lp10903
(g10882
tp10904
assS'_2'
p10905
g18
(tRp10906
S'9'
(lp10907
(tassS'_1'
p10908
g18
(tRp10909
S'd/date-entity'
p10910
(lp10911
(tasS'day'
p10912
(lp10913
(g10905
tp10914
assS'_0'
p10915
g18
(tRp10916
g1
(g33
g3
NtRp10917
(dp10918
g36
I0
sg37
S'A3-100'
p10919
sb(lp10920
(g10895
g10872
tp10921
asS'time'
p10922
(lp10923
(g10908
tp10924
ass(dp10925
g63
I14
sg72
Nsg68
(dp10926
sg77
(dp10927
sg62
I00
sg64
(dp10928
g10915
Nssg66
I0
sg67
Nsg75
(lp10929
g10915
asg70
(dp10930
g10908
I1
sS'_8'
p10931
I0
ssg73
(dp10932
I0
g10931
sI1
S'_1'
p10933
ssbsS'f'
(lp10934
S'9'
aS','
ag575
aS'Lu'
p10935
aS'Xueli'
p10936
asg87
I0
sg88
I0
sg89
g577
sg90
(lp10937
sg92
Nsg93
(lp10938
sbI-1
sg1
(g12
g3
NtRp10939
(dp10940
S'e'
g15
(tRp10941
S'_2'
p10942
g18
(tRp10943
S'o/only'
p10944
(lp10945
(tassS'_1'
p10946
g18
(tRp10947
S't/this'
p10948
(lp10949
(tassS'_0'
p10950
g18
(tRp10951
S'b/begin-01'
p10952
(lp10953
(tasS'ARG2'
p10954
(lp10955
(g10946
tp10956
asS'mod'
p10957
(lp10958
(g10942
tp10959
ass(dp10960
g62
I00
sg63
I5
sg64
(dp10961
g10950
Nssg66
I0
sg67
Nsg68
(dp10962
sg70
(dp10963
sg72
Nsg73
(dp10964
sg75
(lp10965
g10950
asg77
(dp10966
sbsS'f'
(lp10967
S'this'
p10968
aS'would'
p10969
aS'only'
p10970
aS'be'
p10971
aS'the'
p10972
aS'beginning'
p10973
asg87
I0
sg88
I0
sg89
g83
sg90
(lp10974
sg92
Nsg93
(lp10975
sbI1
ssS'n'
I10
sb.